
ram.elf:     file format elf32-littlearm

Disassembly of section .text:

00200000 <_start>:
  200000:	ea00000c 	b	200038 <reset>
  200004:	ea000005 	b	200020 <undefined_instruction>
  200008:	ea000005 	b	200024 <software_interrupt>
  20000c:	ea000005 	b	200028 <abort_prefetch>
  200010:	ea000005 	b	20002c <abort_data>
  200014:	ea000005 	b	200030 <not_used>
  200018:	ea000019 	b	200084 <irq_entry>
  20001c:	ea000004 	b	200034 <fiq>

00200020 <undefined_instruction>:
  200020:	eafffffe 	b	200020 <undefined_instruction>

00200024 <software_interrupt>:
  200024:	eafffffe 	b	200024 <software_interrupt>

00200028 <abort_prefetch>:
  200028:	eafffffe 	b	200028 <abort_prefetch>

0020002c <abort_data>:
  20002c:	eafffffe 	b	20002c <abort_data>

00200030 <not_used>:
  200030:	eafffffe 	b	200030 <not_used>

00200034 <fiq>:
  200034:	eafffffe 	b	200034 <fiq>

00200038 <reset>:
  200038:	e10f0000 	mrs	r0, CPSR
  20003c:	e38000c0 	orr	r0, r0, #192	; 0xc0
  200040:	e129f000 	msr	CPSR_fc, r0
  200044:	e59fd0fc 	ldr	sp, [pc, #252]	; 200148 <_fiq+0x4>
  200048:	e59f00fc 	ldr	r0, [pc, #252]	; 20014c <_fiq+0x8>
  20004c:	e1a0e00f 	mov	lr, pc
  200050:	e12fff10 	bx	r0
  200054:	e59f00ec 	ldr	r0, [pc, #236]	; 200148 <_fiq+0x4>
  200058:	e321f0d1 	msr	CPSR_c, #209	; 0xd1
  20005c:	e59f80ec 	ldr	r8, [pc, #236]	; 200150 <_fiq+0xc>
  200060:	e321f0d2 	msr	CPSR_c, #210	; 0xd2
  200064:	e1a0d000 	mov	sp, r0
  200068:	e2400c01 	sub	r0, r0, #256	; 0x100
  20006c:	e321f0d3 	msr	CPSR_c, #211	; 0xd3
  200070:	e1a0d000 	mov	sp, r0
  200074:	e59fe0d8 	ldr	lr, [pc, #216]	; 200154 <_fiq+0x10>
  200078:	e59f00d8 	ldr	r0, [pc, #216]	; 200158 <_fiq+0x14>

0020007c <__main>:
  20007c:	e12fff10 	bx	r0

00200080 <End>:
  200080:	eafffffe 	b	200080 <End>

00200084 <irq_entry>:
  200084:	e24ee004 	sub	lr, lr, #4	; 0x4
  200088:	e92d4000 	stmdb	sp!, {lr}
  20008c:	e92d0001 	stmdb	sp!, {r0}
  200090:	e59fe0b8 	ldr	lr, [pc, #184]	; 200150 <_fiq+0xc>
  200094:	e59e0100 	ldr	r0, [lr, #256]
  200098:	e58ee100 	str	lr, [lr, #256]
  20009c:	e321f093 	msr	CPSR_c, #147	; 0x93
  2000a0:	e92d5ffe 	stmdb	sp!, {r1, r2, r3, r4, r5, r6, r7, r8, r9, sl, fp, ip, lr}
  2000a4:	e1a0e00f 	mov	lr, pc
  2000a8:	e12fff10 	bx	r0
  2000ac:	e8bd5ffe 	ldmia	sp!, {r1, r2, r3, r4, r5, r6, r7, r8, r9, sl, fp, ip, lr}
  2000b0:	e321f092 	msr	CPSR_c, #146	; 0x92
  2000b4:	e59fe094 	ldr	lr, [pc, #148]	; 200150 <_fiq+0xc>
  2000b8:	e58ee130 	str	lr, [lr, #304]
  2000bc:	e8bd0001 	ldmia	sp!, {r0}
  2000c0:	e8fd8000 	ldmia	sp!, {pc}^

002000c4 <AT91F_Default_FIQ_handler>:
  2000c4:	eafffffe 	b	2000c4 <AT91F_Default_FIQ_handler>

002000c8 <AT91F_Default_IRQ_handler>:
  2000c8:	eafffffe 	b	2000c8 <AT91F_Default_IRQ_handler>

002000cc <AT91F_Spurious_handler>:
  2000cc:	e12fff1e 	bx	lr
  2000d0:	eafffffd 	b	2000cc <AT91F_Spurious_handler>

002000d4 <disable_ints>:
  2000d4:	e92d0003 	stmdb	sp!, {r0, r1}
  2000d8:	e3a01080 	mov	r1, #128	; 0x80
  2000dc:	ea000001 	b	2000e8 <disint>

002000e0 <disable_fiq>:
  2000e0:	e92d0003 	stmdb	sp!, {r0, r1}
  2000e4:	e3a01040 	mov	r1, #64	; 0x40

002000e8 <disint>:
  2000e8:	e10f0000 	mrs	r0, CPSR
  2000ec:	e1800001 	orr	r0, r0, r1
  2000f0:	e129f000 	msr	CPSR_fc, r0
  2000f4:	e10f0000 	mrs	r0, CPSR
  2000f8:	e0100001 	ands	r0, r0, r1
  2000fc:	0afffff9 	beq	2000e8 <disint>
  200100:	e8bd0003 	ldmia	sp!, {r0, r1}
  200104:	e12fff1e 	bx	lr

00200108 <copy_vectors>:
  200108:	e59ff018 	ldr	pc, [pc, #24]	; 200128 <_reset>
  20010c:	e59ff018 	ldr	pc, [pc, #24]	; 20012c <_undefined_instruction>
  200110:	e59ff018 	ldr	pc, [pc, #24]	; 200130 <_software_interrupt>
  200114:	e59ff018 	ldr	pc, [pc, #24]	; 200134 <_abort_prefetch>
  200118:	e59ff018 	ldr	pc, [pc, #24]	; 200138 <_abort_data>
  20011c:	e59ff018 	ldr	pc, [pc, #24]	; 20013c <_not_used>
  200120:	e59ff018 	ldr	pc, [pc, #24]	; 200140 <_irq_entry>
  200124:	e59ff018 	ldr	pc, [pc, #24]	; 200144 <_fiq>

00200128 <_reset>:
  200128:	00200038 	eoreq	r0, r0, r8, lsr r0

0020012c <_undefined_instruction>:
  20012c:	002002b4 	streqh	r0, [r0], -r4

00200130 <_software_interrupt>:
  200130:	002002d0 	ldreqd	r0, [r0], -r0

00200134 <_abort_prefetch>:
  200134:	00200298 	mlaeq	r0, r8, r2, r0

00200138 <_abort_data>:
  200138:	0020023c 	eoreq	r0, r0, ip, lsr r2

0020013c <_not_used>:
  20013c:	00200030 	eoreq	r0, r0, r0, lsr r0

00200140 <_irq_entry>:
  200140:	00200084 	eoreq	r0, r0, r4, lsl #1

00200144 <_fiq>:
  200144:	00200034 	eoreq	r0, r0, r4, lsr r0
  200148:	0020fffc 	streqd	pc, [r0], -ip
  20014c:	0020015c 	eoreq	r0, r0, ip, asr r1
  200150:	fffff000 	swinv	0x00fff000
  200154:	00200080 	eoreq	r0, r0, r0, lsl #1
  200158:	0020064c 	eoreq	r0, r0, ip, asr #12

0020015c <startup>:
  20015c:	e3a004a5 	mov	r0, #-1526726656	; 0xa5000000
  200160:	e3a0120a 	mov	r1, #-1610612736	; 0xa0000000
  200164:	e92d4010 	stmdb	sp!, {r4, lr}
  200168:	e2802001 	add	r2, r0, #1	; 0x1
  20016c:	e3a03603 	mov	r3, #3145728	; 0x300000
  200170:	e3a04102 	mov	r4, #-2147483648	; 0x80000000
  200174:	e3a0c32a 	mov	ip, #-1476395008	; 0xa8000000
  200178:	e3a0ec06 	mov	lr, #1536	; 0x600
  20017c:	e1a01ac1 	mov	r1, r1, asr #21
  200180:	e5812008 	str	r2, [r1, #8]
  200184:	e2830c01 	add	r0, r3, #256	; 0x100
  200188:	e1a04ac4 	mov	r4, r4, asr #21
  20018c:	e1a0cacc 	mov	ip, ip, asr #21
  200190:	e28ee001 	add	lr, lr, #1	; 0x1
  200194:	e3e030ff 	mvn	r3, #255	; 0xff
  200198:	e3a02902 	mov	r2, #32768	; 0x8000
  20019c:	e5830060 	str	r0, [r3, #96]
  2001a0:	e58c2004 	str	r2, [ip, #4]
  2001a4:	e584e020 	str	lr, [r4, #32]
  2001a8:	e5942068 	ldr	r2, [r4, #104]
  2001ac:	e3120001 	tst	r2, #1	; 0x1
  2001b0:	0afffffc 	beq	2001a8 <startup+0x4c>
  2001b4:	e3a00819 	mov	r0, #1638400	; 0x190000
  2001b8:	e2803b07 	add	r3, r0, #7168	; 0x1c00
  2001bc:	e283c005 	add	ip, r3, #5	; 0x5
  2001c0:	e584c02c 	str	ip, [r4, #44]
  2001c4:	e5941068 	ldr	r1, [r4, #104]
  2001c8:	e3110004 	tst	r1, #4	; 0x4
  2001cc:	0afffffc 	beq	2001c4 <startup+0x68>
  2001d0:	e5942068 	ldr	r2, [r4, #104]
  2001d4:	e3120008 	tst	r2, #8	; 0x8
  2001d8:	0afffffc 	beq	2001d0 <startup+0x74>
  2001dc:	e3a0c004 	mov	ip, #4	; 0x4
  2001e0:	e584c030 	str	ip, [r4, #48]
  2001e4:	e5943068 	ldr	r3, [r4, #104]
  2001e8:	e3130008 	tst	r3, #8	; 0x8
  2001ec:	0afffffc 	beq	2001e4 <startup+0x88>
  2001f0:	e5941030 	ldr	r1, [r4, #48]
  2001f4:	e3810003 	orr	r0, r1, #3	; 0x3
  2001f8:	e5840030 	str	r0, [r4, #48]
  2001fc:	e5942068 	ldr	r2, [r4, #104]
  200200:	e3120008 	tst	r2, #8	; 0x8
  200204:	0afffffc 	beq	2001fc <startup+0xa0>
  200208:	e8bd8010 	ldmia	sp!, {r4, pc}

0020020c <disable_interrupts>:
  20020c:	e1a0f00e 	mov	pc, lr

00200210 <enable_interrupts>:
  200210:	e1a0f00e 	mov	pc, lr

00200214 <ints_are_enabled>:
  200214:	e3a00000 	mov	r0, #0	; 0x0
  200218:	e1a0f00e 	mov	pc, lr

0020021c <markup_ram>:
  20021c:	e3a03d7f 	mov	r3, #8128	; 0x1fc0
  200220:	e283303e 	add	r3, r3, #62	; 0x3e
  200224:	e3a02602 	mov	r2, #2097152	; 0x200000
  200228:	e3e01000 	mvn	r1, #0	; 0x0
  20022c:	e2533001 	subs	r3, r3, #1	; 0x1
  200230:	e4821004 	str	r1, [r2], #4
  200234:	1afffffc 	bne	20022c <markup_ram+0x10>
  200238:	e1a0f00e 	mov	pc, lr

0020023c <__data_abort>:
  20023c:	e24ee008 	sub	lr, lr, #8	; 0x8
  200240:	e1a0100e 	mov	r1, lr
  200244:	e321f0d3 	msr	CPSR_c, #211	; 0xd3
  200248:	e1a0300d 	mov	r3, sp
  20024c:	e92d5fff 	stmdb	sp!, {r0, r1, r2, r3, r4, r5, r6, r7, r8, r9, sl, fp, ip, lr}
  200250:	e1a0400d 	mov	r4, sp
  200254:	e59f002c 	ldr	r0, [pc, #44]	; 200288 <.text+0x288>
  200258:	eb000cf5 	bl	203634 <xprintf>
  20025c:	e59f0028 	ldr	r0, [pc, #40]	; 20028c <.text+0x28c>
  200260:	eb000cf3 	bl	203634 <xprintf>
  200264:	e894100e 	ldmia	r4, {r1, r2, r3, ip}
  200268:	e59f0020 	ldr	r0, [pc, #32]	; 200290 <.text+0x290>
  20026c:	e58dc000 	str	ip, [sp]
  200270:	eb000cef 	bl	203634 <xprintf>
  200274:	e5942034 	ldr	r2, [r4, #52]
  200278:	e59f0014 	ldr	r0, [pc, #20]	; 200294 <.text+0x294>
  20027c:	e5941030 	ldr	r1, [r4, #48]
  200280:	eb000ceb 	bl	203634 <xprintf>
  200284:	eafffffe 	b	200284 <__data_abort+0x48>
  200288:	002043c0 	eoreq	r4, r0, r0, asr #7
  20028c:	002043d4 	ldreqd	r4, [r0], -r4
  200290:	002043dc 	ldreqd	r4, [r0], -ip
  200294:	002043ec 	eoreq	r4, r0, ip, ror #7

00200298 <__prefetch_abort>:
  200298:	e24ee008 	sub	lr, lr, #8	; 0x8
  20029c:	e1a0100e 	mov	r1, lr
  2002a0:	e321f0d3 	msr	CPSR_c, #211	; 0xd3
  2002a4:	e59f0004 	ldr	r0, [pc, #4]	; 2002b0 <.text+0x2b0>
  2002a8:	eb000ce1 	bl	203634 <xprintf>
  2002ac:	eafffffe 	b	2002ac <__prefetch_abort+0x14>
  2002b0:	002043fc 	streqd	r4, [r0], -ip

002002b4 <__undefined_instruction>:
  2002b4:	e24ee008 	sub	lr, lr, #8	; 0x8
  2002b8:	e1a0100e 	mov	r1, lr
  2002bc:	e321f0d3 	msr	CPSR_c, #211	; 0xd3
  2002c0:	e59f0004 	ldr	r0, [pc, #4]	; 2002cc <.text+0x2cc>
  2002c4:	eb000cda 	bl	203634 <xprintf>
  2002c8:	eafffffe 	b	2002c8 <__undefined_instruction+0x14>
  2002cc:	00204414 	eoreq	r4, r0, r4, lsl r4

002002d0 <__software_interrupt>:
  2002d0:	e24ee004 	sub	lr, lr, #4	; 0x4
  2002d4:	e1a0100e 	mov	r1, lr
  2002d8:	e321f0d3 	msr	CPSR_c, #211	; 0xd3
  2002dc:	e59f0004 	ldr	r0, [pc, #4]	; 2002e8 <.text+0x2e8>
  2002e0:	eb000cd3 	bl	203634 <xprintf>
  2002e4:	eafffffe 	b	2002e4 <__software_interrupt+0x14>
  2002e8:	00204434 	eoreq	r4, r0, r4, lsr r4

002002ec <__spurious_handler>:
  2002ec:	e24ee004 	sub	lr, lr, #4	; 0x4
  2002f0:	e1a0100e 	mov	r1, lr
  2002f4:	e321f0d3 	msr	CPSR_c, #211	; 0xd3
  2002f8:	e1a0300d 	mov	r3, sp
  2002fc:	e92d5fff 	stmdb	sp!, {r0, r1, r2, r3, r4, r5, r6, r7, r8, r9, sl, fp, ip, lr}
  200300:	e1a0400d 	mov	r4, sp
  200304:	e59f002c 	ldr	r0, [pc, #44]	; 200338 <.text+0x338>
  200308:	eb000cc9 	bl	203634 <xprintf>
  20030c:	e59f0028 	ldr	r0, [pc, #40]	; 20033c <.text+0x33c>
  200310:	eb000cc7 	bl	203634 <xprintf>
  200314:	e894100e 	ldmia	r4, {r1, r2, r3, ip}
  200318:	e59f0020 	ldr	r0, [pc, #32]	; 200340 <.text+0x340>
  20031c:	e58dc000 	str	ip, [sp]
  200320:	eb000cc3 	bl	203634 <xprintf>
  200324:	e5942034 	ldr	r2, [r4, #52]
  200328:	e59f0014 	ldr	r0, [pc, #20]	; 200344 <.text+0x344>
  20032c:	e5941030 	ldr	r1, [r4, #48]
  200330:	eb000cbf 	bl	203634 <xprintf>
  200334:	eafffffe 	b	200334 <__spurious_handler+0x48>
  200338:	00204450 	eoreq	r4, r0, r0, asr r4
  20033c:	002043d4 	ldreqd	r4, [r0], -r4
  200340:	002043dc 	ldreqd	r4, [r0], -ip
  200344:	002043ec 	eoreq	r4, r0, ip, ror #7

00200348 <debug_setup>:
  200348:	e1a0f00e 	mov	pc, lr

0020034c <reboot>:
  20034c:	e3a0120a 	mov	r1, #-1610612736	; 0xa0000000
  200350:	e3a0c4a5 	mov	ip, #-1526726656	; 0xa5000000
  200354:	e1a01ac1 	mov	r1, r1, asr #21
  200358:	e28c200d 	add	r2, ip, #13	; 0xd
  20035c:	e3a00001 	mov	r0, #1	; 0x1
  200360:	e3e030ff 	mvn	r3, #255	; 0xff
  200364:	e5830000 	str	r0, [r3]
  200368:	e5812000 	str	r2, [r1]
  20036c:	e1a0f00e 	mov	pc, lr

00200370 <programmed>:
  200370:	e3500003 	cmp	r0, #3	; 0x3
  200374:	979ff100 	ldrls	pc, [pc, r0, lsl #2]
  200378:	ea000004 	b	200390 <.text+0x390>
  20037c:	002003c8 	eoreq	r0, r0, r8, asr #7
  200380:	002003b4 	streqh	r0, [r0], -r4
  200384:	0020038c 	eoreq	r0, r0, ip, lsl #7
  200388:	002003a0 	eoreq	r0, r0, r0, lsr #7
  20038c:	e3a03812 	mov	r3, #1179648	; 0x120000
  200390:	e5930000 	ldr	r0, [r3]
  200394:	e2900001 	adds	r0, r0, #1	; 0x1
  200398:	13a00001 	movne	r0, #1	; 0x1
  20039c:	e1a0f00e 	mov	pc, lr
  2003a0:	e3a03813 	mov	r3, #1245184	; 0x130000
  2003a4:	e5930000 	ldr	r0, [r3]
  2003a8:	e2900001 	adds	r0, r0, #1	; 0x1
  2003ac:	13a00001 	movne	r0, #1	; 0x1
  2003b0:	e1a0f00e 	mov	pc, lr
  2003b4:	e3a03811 	mov	r3, #1114112	; 0x110000
  2003b8:	e5930000 	ldr	r0, [r3]
  2003bc:	e2900001 	adds	r0, r0, #1	; 0x1
  2003c0:	13a00001 	movne	r0, #1	; 0x1
  2003c4:	e1a0f00e 	mov	pc, lr
  2003c8:	e3a03601 	mov	r3, #1048576	; 0x100000
  2003cc:	e5930000 	ldr	r0, [r3]
  2003d0:	e2900001 	adds	r0, r0, #1	; 0x1
  2003d4:	13a00001 	movne	r0, #1	; 0x1
  2003d8:	e1a0f00e 	mov	pc, lr

002003dc <wait_us>:
  2003dc:	e24dd004 	sub	sp, sp, #4	; 0x4
  2003e0:	e3a03000 	mov	r3, #0	; 0x0
  2003e4:	e58d3000 	str	r3, [sp]
  2003e8:	e59d2000 	ldr	r2, [sp]
  2003ec:	e1520003 	cmp	r2, r3
  2003f0:	da000001 	ble	2003fc <wait_us+0x20>
  2003f4:	e28dd004 	add	sp, sp, #4	; 0x4
  2003f8:	e1a0f00e 	mov	pc, lr
  2003fc:	e59dc000 	ldr	ip, [sp]
  200400:	e28c1001 	add	r1, ip, #1	; 0x1
  200404:	e58d1000 	str	r1, [sp]
  200408:	e59d0000 	ldr	r0, [sp]
  20040c:	e3500000 	cmp	r0, #0	; 0x0
  200410:	cafffff7 	bgt	2003f4 <wait_us+0x18>
  200414:	e59dc000 	ldr	ip, [sp]
  200418:	e28c1001 	add	r1, ip, #1	; 0x1
  20041c:	e58d1000 	str	r1, [sp]
  200420:	e59d0000 	ldr	r0, [sp]
  200424:	e3500000 	cmp	r0, #0	; 0x0
  200428:	dafffff3 	ble	2003fc <wait_us+0x20>
  20042c:	eafffff0 	b	2003f4 <wait_us+0x18>

00200430 <wait_ms>:
  200430:	e24dd004 	sub	sp, sp, #4	; 0x4
  200434:	e3a00000 	mov	r0, #0	; 0x0
  200438:	e3a01ffa 	mov	r1, #1000	; 0x3e8
  20043c:	ea000001 	b	200448 <wait_ms+0x18>
  200440:	e2511001 	subs	r1, r1, #1	; 0x1
  200444:	0a000010 	beq	20048c <wait_ms+0x5c>
  200448:	e58d0000 	str	r0, [sp]
  20044c:	e59d3000 	ldr	r3, [sp]
  200450:	e3530000 	cmp	r3, #0	; 0x0
  200454:	cafffff9 	bgt	200440 <wait_ms+0x10>
  200458:	e59d3000 	ldr	r3, [sp]
  20045c:	e283c001 	add	ip, r3, #1	; 0x1
  200460:	e58dc000 	str	ip, [sp]
  200464:	e59d2000 	ldr	r2, [sp]
  200468:	e3520000 	cmp	r2, #0	; 0x0
  20046c:	cafffff3 	bgt	200440 <wait_ms+0x10>
  200470:	e59d3000 	ldr	r3, [sp]
  200474:	e283c001 	add	ip, r3, #1	; 0x1
  200478:	e58dc000 	str	ip, [sp]
  20047c:	e59d2000 	ldr	r2, [sp]
  200480:	e3520000 	cmp	r2, #0	; 0x0
  200484:	dafffff3 	ble	200458 <wait_ms+0x28>
  200488:	eaffffec 	b	200440 <wait_ms+0x10>
  20048c:	e28dd004 	add	sp, sp, #4	; 0x4
  200490:	e1a0f00e 	mov	pc, lr

00200494 <wait_1s>:
  200494:	e1a0c00d 	mov	ip, sp
  200498:	e92dd810 	stmdb	sp!, {r4, fp, ip, lr, pc}
  20049c:	e24cb004 	sub	fp, ip, #4	; 0x4
  2004a0:	e24dd004 	sub	sp, sp, #4	; 0x4
  2004a4:	e3a04000 	mov	r4, #0	; 0x0
  2004a8:	eb000bfd 	bl	2034a4 <usart_getc_rdy>
  2004ac:	e3500000 	cmp	r0, #0	; 0x0
  2004b0:	1a00001b 	bne	200524 <wait_1s+0x90>
  2004b4:	e3a0cff9 	mov	ip, #996	; 0x3e4
  2004b8:	e1a01000 	mov	r1, r0
  2004bc:	e28cc003 	add	ip, ip, #3	; 0x3
  2004c0:	e3a00ffa 	mov	r0, #1000	; 0x3e8
  2004c4:	ea000001 	b	2004d0 <wait_1s+0x3c>
  2004c8:	e2500001 	subs	r0, r0, #1	; 0x1
  2004cc:	0a000010 	beq	200514 <wait_1s+0x80>
  2004d0:	e50b1014 	str	r1, [fp, #-20]
  2004d4:	e51b3014 	ldr	r3, [fp, #-20]
  2004d8:	e3530000 	cmp	r3, #0	; 0x0
  2004dc:	cafffff9 	bgt	2004c8 <wait_1s+0x34>
  2004e0:	e51b2014 	ldr	r2, [fp, #-20]
  2004e4:	e2823001 	add	r3, r2, #1	; 0x1
  2004e8:	e50b3014 	str	r3, [fp, #-20]
  2004ec:	e51b2014 	ldr	r2, [fp, #-20]
  2004f0:	e3520000 	cmp	r2, #0	; 0x0
  2004f4:	cafffff3 	bgt	2004c8 <wait_1s+0x34>
  2004f8:	e51b2014 	ldr	r2, [fp, #-20]
  2004fc:	e2823001 	add	r3, r2, #1	; 0x1
  200500:	e50b3014 	str	r3, [fp, #-20]
  200504:	e51b2014 	ldr	r2, [fp, #-20]
  200508:	e3520000 	cmp	r2, #0	; 0x0
  20050c:	dafffff3 	ble	2004e0 <wait_1s+0x4c>
  200510:	eaffffec 	b	2004c8 <wait_1s+0x34>
  200514:	e2844001 	add	r4, r4, #1	; 0x1
  200518:	e154000c 	cmp	r4, ip
  20051c:	daffffe1 	ble	2004a8 <wait_1s+0x14>
  200520:	e89da818 	ldmia	sp, {r3, r4, fp, sp, pc}
  200524:	e3a00001 	mov	r0, #1	; 0x1
  200528:	e89da818 	ldmia	sp, {r3, r4, fp, sp, pc}

0020052c <wait>:
  20052c:	e1a0c00d 	mov	ip, sp
  200530:	e92dd830 	stmdb	sp!, {r4, r5, fp, ip, lr, pc}
  200534:	e24cb004 	sub	fp, ip, #4	; 0x4
  200538:	e24dd004 	sub	sp, sp, #4	; 0x4
  20053c:	e3a04000 	mov	r4, #0	; 0x0
  200540:	e3a05000 	mov	r5, #0	; 0x0
  200544:	eb000bd6 	bl	2034a4 <usart_getc_rdy>
  200548:	e3500000 	cmp	r0, #0	; 0x0
  20054c:	1a000020 	bne	2005d4 <wait+0xa8>
  200550:	e3a0cff9 	mov	ip, #996	; 0x3e4
  200554:	e28cc003 	add	ip, ip, #3	; 0x3
  200558:	e3a01ffa 	mov	r1, #1000	; 0x3e8
  20055c:	ea000001 	b	200568 <wait+0x3c>
  200560:	e2511001 	subs	r1, r1, #1	; 0x1
  200564:	0a000010 	beq	2005ac <wait+0x80>
  200568:	e50b0018 	str	r0, [fp, #-24]
  20056c:	e51b3018 	ldr	r3, [fp, #-24]
  200570:	e3530000 	cmp	r3, #0	; 0x0
  200574:	cafffff9 	bgt	200560 <wait+0x34>
  200578:	e51b3018 	ldr	r3, [fp, #-24]
  20057c:	e283e001 	add	lr, r3, #1	; 0x1
  200580:	e50be018 	str	lr, [fp, #-24]
  200584:	e51b2018 	ldr	r2, [fp, #-24]
  200588:	e3520000 	cmp	r2, #0	; 0x0
  20058c:	cafffff3 	bgt	200560 <wait+0x34>
  200590:	e51b3018 	ldr	r3, [fp, #-24]
  200594:	e283e001 	add	lr, r3, #1	; 0x1
  200598:	e50be018 	str	lr, [fp, #-24]
  20059c:	e51b2018 	ldr	r2, [fp, #-24]
  2005a0:	e3520000 	cmp	r2, #0	; 0x0
  2005a4:	dafffff3 	ble	200578 <wait+0x4c>
  2005a8:	eaffffec 	b	200560 <wait+0x34>
  2005ac:	e2855001 	add	r5, r5, #1	; 0x1
  2005b0:	e155000c 	cmp	r5, ip
  2005b4:	daffffe2 	ble	200544 <wait+0x18>
  2005b8:	e2844001 	add	r4, r4, #1	; 0x1
  2005bc:	e59f0018 	ldr	r0, [pc, #24]	; 2005dc <.text+0x5dc>
  2005c0:	eb000c1b 	bl	203634 <xprintf>
  2005c4:	e3540002 	cmp	r4, #2	; 0x2
  2005c8:	daffffdc 	ble	200540 <wait+0x14>
  2005cc:	e3a00001 	mov	r0, #1	; 0x1
  2005d0:	e89da838 	ldmia	sp, {r3, r4, r5, fp, sp, pc}
  2005d4:	e3a00000 	mov	r0, #0	; 0x0
  2005d8:	e89da838 	ldmia	sp, {r3, r4, r5, fp, sp, pc}
  2005dc:	0020446c 	eoreq	r4, r0, ip, ror #8

002005e0 <copy_and_run>:
  2005e0:	e1a0c00d 	mov	ip, sp
  2005e4:	e92dd800 	stmdb	sp!, {fp, ip, lr, pc}
  2005e8:	e24cb004 	sub	fp, ip, #4	; 0x4
  2005ec:	e3500003 	cmp	r0, #3	; 0x3
  2005f0:	979ff100 	ldrls	pc, [pc, r0, lsl #2]
  2005f4:	ea000004 	b	20060c <.text+0x60c>
  2005f8:	00200644 	eoreq	r0, r0, r4, asr #12
  2005fc:	0020063c 	eoreq	r0, r0, ip, lsr r6
  200600:	00200608 	eoreq	r0, r0, r8, lsl #12
  200604:	00200634 	eoreq	r0, r0, r4, lsr r6
  200608:	e3a0c812 	mov	ip, #1179648	; 0x120000
  20060c:	e3a00602 	mov	r0, #2097152	; 0x200000
  200610:	e1a01000 	mov	r1, r0
  200614:	e3a02901 	mov	r2, #16384	; 0x4000
  200618:	e49c3004 	ldr	r3, [ip], #4
  20061c:	e2522001 	subs	r2, r2, #1	; 0x1
  200620:	e4813004 	str	r3, [r1], #4
  200624:	1afffffb 	bne	200618 <.text+0x618>
  200628:	e1a0e00f 	mov	lr, pc
  20062c:	e1a0f000 	mov	pc, r0
  200630:	e89da800 	ldmia	sp, {fp, sp, pc}
  200634:	e3a0c813 	mov	ip, #1245184	; 0x130000
  200638:	eafffff3 	b	20060c <.text+0x60c>
  20063c:	e3a0c811 	mov	ip, #1114112	; 0x110000
  200640:	eafffff1 	b	20060c <.text+0x60c>
  200644:	e3a0c601 	mov	ip, #1048576	; 0x100000
  200648:	eaffffef 	b	20060c <.text+0x60c>

0020064c <main>:
  20064c:	e1a0c00d 	mov	ip, sp
  200650:	e92dd870 	stmdb	sp!, {r4, r5, r6, fp, ip, lr, pc}
  200654:	e24cb004 	sub	fp, ip, #4	; 0x4
  200658:	e24dd004 	sub	sp, sp, #4	; 0x4
  20065c:	ebffff39 	bl	200348 <debug_setup>
  200660:	eb000bc3 	bl	203574 <usart_setup>
  200664:	eb000759 	bl	2023d0 <flash_setup>
  200668:	eb00005f 	bl	2007ec <usb_setup>
  20066c:	eb000896 	bl	2028cc <led_setup>
  200670:	eb00066b 	bl	202024 <samba_setup>
  200674:	e59f0160 	ldr	r0, [pc, #352]	; 2007dc <.text+0x7dc>
  200678:	eb000925 	bl	202b14 <puts>
  20067c:	eb00006d 	bl	200838 <usb_open>
  200680:	ebfffee2 	bl	200210 <enable_interrupts>
  200684:	e3a03001 	mov	r3, #1	; 0x1
  200688:	e3530003 	cmp	r3, #3	; 0x3
  20068c:	979ff103 	ldrls	pc, [pc, r3, lsl #2]
  200690:	ea000004 	b	2006a8 <.text+0x6a8>
  200694:	002007bc 	streqh	r0, [r0], -ip
  200698:	002007b4 	streqh	r0, [r0], -r4
  20069c:	002006a4 	eoreq	r0, r0, r4, lsr #13
  2006a0:	002007ac 	eoreq	r0, r0, ip, lsr #15
  2006a4:	e3a04812 	mov	r4, #1179648	; 0x120000
  2006a8:	e5940000 	ldr	r0, [r4]
  2006ac:	e3700001 	cmn	r0, #1	; 0x1
  2006b0:	0a000037 	beq	200794 <.text+0x794>
  2006b4:	e3a04000 	mov	r4, #0	; 0x0
  2006b8:	e3a06000 	mov	r6, #0	; 0x0
  2006bc:	eb000b78 	bl	2034a4 <usart_getc_rdy>
  2006c0:	e3500000 	cmp	r0, #0	; 0x0
  2006c4:	1a000032 	bne	200794 <.text+0x794>
  2006c8:	e3a0cff9 	mov	ip, #996	; 0x3e4
  2006cc:	e28cc003 	add	ip, ip, #3	; 0x3
  2006d0:	e3a01ffa 	mov	r1, #1000	; 0x3e8
  2006d4:	ea000001 	b	2006e0 <.text+0x6e0>
  2006d8:	e2511001 	subs	r1, r1, #1	; 0x1
  2006dc:	0a000010 	beq	200724 <.text+0x724>
  2006e0:	e50b001c 	str	r0, [fp, #-28]
  2006e4:	e51b201c 	ldr	r2, [fp, #-28]
  2006e8:	e3520000 	cmp	r2, #0	; 0x0
  2006ec:	cafffff9 	bgt	2006d8 <.text+0x6d8>
  2006f0:	e51b201c 	ldr	r2, [fp, #-28]
  2006f4:	e2823001 	add	r3, r2, #1	; 0x1
  2006f8:	e50b301c 	str	r3, [fp, #-28]
  2006fc:	e51be01c 	ldr	lr, [fp, #-28]
  200700:	e35e0000 	cmp	lr, #0	; 0x0
  200704:	cafffff3 	bgt	2006d8 <.text+0x6d8>
  200708:	e51b201c 	ldr	r2, [fp, #-28]
  20070c:	e2823001 	add	r3, r2, #1	; 0x1
  200710:	e50b301c 	str	r3, [fp, #-28]
  200714:	e51be01c 	ldr	lr, [fp, #-28]
  200718:	e35e0000 	cmp	lr, #0	; 0x0
  20071c:	dafffff3 	ble	2006f0 <.text+0x6f0>
  200720:	eaffffec 	b	2006d8 <.text+0x6d8>
  200724:	e2866001 	add	r6, r6, #1	; 0x1
  200728:	e156000c 	cmp	r6, ip
  20072c:	daffffe2 	ble	2006bc <.text+0x6bc>
  200730:	e2844001 	add	r4, r4, #1	; 0x1
  200734:	e59f00a4 	ldr	r0, [pc, #164]	; 2007e0 <.text+0x7e0>
  200738:	eb000bbd 	bl	203634 <xprintf>
  20073c:	e3540002 	cmp	r4, #2	; 0x2
  200740:	daffffdc 	ble	2006b8 <.text+0x6b8>
  200744:	e3a04001 	mov	r4, #1	; 0x1
  200748:	e59f0094 	ldr	r0, [pc, #148]	; 2007e4 <.text+0x7e4>
  20074c:	eb000bb8 	bl	203634 <xprintf>
  200750:	e3540003 	cmp	r4, #3	; 0x3
  200754:	979ff104 	ldrls	pc, [pc, r4, lsl #2]
  200758:	ea000004 	b	200770 <.text+0x770>
  20075c:	002007d4 	ldreqd	r0, [r0], -r4
  200760:	002007cc 	eoreq	r0, r0, ip, asr #15
  200764:	0020076c 	eoreq	r0, r0, ip, ror #14
  200768:	002007c4 	eoreq	r0, r0, r4, asr #15
  20076c:	e3a05812 	mov	r5, #1179648	; 0x120000
  200770:	e3a00602 	mov	r0, #2097152	; 0x200000
  200774:	e1a01000 	mov	r1, r0
  200778:	e3a02901 	mov	r2, #16384	; 0x4000
  20077c:	e4956004 	ldr	r6, [r5], #4
  200780:	e2522001 	subs	r2, r2, #1	; 0x1
  200784:	e4816004 	str	r6, [r1], #4
  200788:	1afffffb 	bne	20077c <.text+0x77c>
  20078c:	e1a0e00f 	mov	lr, pc
  200790:	e1a0f000 	mov	pc, r0
  200794:	e59f004c 	ldr	r0, [pc, #76]	; 2007e8 <.text+0x7e8>
  200798:	eb000ba5 	bl	203634 <xprintf>
  20079c:	eb0009f9 	bl	202f88 <cli_poll>
  2007a0:	eb000573 	bl	201d74 <usb_poll>
  2007a4:	eb000898 	bl	202a0c <led_poll>
  2007a8:	eafffffb 	b	20079c <.text+0x79c>
  2007ac:	e3a04813 	mov	r4, #1245184	; 0x130000
  2007b0:	eaffffbc 	b	2006a8 <.text+0x6a8>
  2007b4:	e3a04811 	mov	r4, #1114112	; 0x110000
  2007b8:	eaffffba 	b	2006a8 <.text+0x6a8>
  2007bc:	e3a04601 	mov	r4, #1048576	; 0x100000
  2007c0:	eaffffb8 	b	2006a8 <.text+0x6a8>
  2007c4:	e3a05813 	mov	r5, #1245184	; 0x130000
  2007c8:	eaffffe8 	b	200770 <.text+0x770>
  2007cc:	e3a05811 	mov	r5, #1114112	; 0x110000
  2007d0:	eaffffe6 	b	200770 <.text+0x770>
  2007d4:	e3a05601 	mov	r5, #1048576	; 0x100000
  2007d8:	eaffffe4 	b	200770 <.text+0x770>
  2007dc:	00204470 	eoreq	r4, r0, r0, ror r4
  2007e0:	0020446c 	eoreq	r4, r0, ip, ror #8
  2007e4:	00204484 	eoreq	r4, r0, r4, lsl #9
  2007e8:	00204490 	mlaeq	r0, r0, r4, r4

002007ec <usb_setup>:
  2007ec:	e52de004 	str	lr, [sp, #-4]!
  2007f0:	e3a03321 	mov	r3, #-2080374784	; 0x84000000
  2007f4:	e1a01ac3 	mov	r1, r3, asr #21
  2007f8:	e591c00c 	ldr	ip, [r1, #12]
  2007fc:	e3a0e20a 	mov	lr, #-1610612736	; 0xa0000000
  200800:	e38c2201 	orr	r2, ip, #268435456	; 0x10000000
  200804:	e3a00102 	mov	r0, #-2147483648	; 0x80000000
  200808:	e581200c 	str	r2, [r1, #12]
  20080c:	e1a0e9ce 	mov	lr, lr, asr #19
  200810:	e3a0c801 	mov	ip, #65536	; 0x10000
  200814:	e1a00ac0 	mov	r0, r0, asr #21
  200818:	e3a03080 	mov	r3, #128	; 0x80
  20081c:	e3a02b02 	mov	r2, #2048	; 0x800
  200820:	e5803000 	str	r3, [r0]
  200824:	e5802010 	str	r2, [r0, #16]
  200828:	e58ec0a0 	str	ip, [lr, #160]
  20082c:	e58ec000 	str	ip, [lr]
  200830:	e58ec010 	str	ip, [lr, #16]
  200834:	e49df004 	ldr	pc, [sp], #4

00200838 <usb_open>:
  200838:	e52de004 	str	lr, [sp, #-4]!
  20083c:	e59f103c 	ldr	r1, [pc, #60]	; 200880 <.text+0x880>
  200840:	e3a0e20b 	mov	lr, #-1342177280	; 0xb0000000
  200844:	e59f2038 	ldr	r2, [pc, #56]	; 200884 <.text+0x884>
  200848:	e1a0064e 	mov	r0, lr, asr #12
  20084c:	e3a03002 	mov	r3, #2	; 0x2
  200850:	e3a0e000 	mov	lr, #0	; 0x0
  200854:	e5823000 	str	r3, [r2]
  200858:	e5c1e000 	strb	lr, [r1]
  20085c:	e3a0c20a 	mov	ip, #-1610612736	; 0xa0000000
  200860:	e59f1020 	ldr	r1, [pc, #32]	; 200888 <.text+0x888>
  200864:	e59f3020 	ldr	r3, [pc, #32]	; 20088c <.text+0x88c>
  200868:	e1a0c9cc 	mov	ip, ip, asr #19
  20086c:	e3a02801 	mov	r2, #65536	; 0x10000
  200870:	e5c3e000 	strb	lr, [r3]
  200874:	e5810000 	str	r0, [r1]
  200878:	e58c2034 	str	r2, [ip, #52]
  20087c:	e49df004 	ldr	pc, [sp], #4
  200880:	00204694 	mlaeq	r0, r4, r6, r4
  200884:	002046a0 	eoreq	r4, r0, r0, lsr #13
  200888:	00204698 	mlaeq	r0, r8, r6, r4
  20088c:	0020469c 	mlaeq	r0, ip, r6, r4

00200890 <usb_dataready>:
  200890:	e59f3010 	ldr	r3, [pc, #16]	; 2008a8 <.text+0x8a8>
  200894:	e5932000 	ldr	r2, [r3]
  200898:	e5920034 	ldr	r0, [r2, #52]
  20089c:	e1b00820 	movs	r0, r0, lsr #16
  2008a0:	13a00001 	movne	r0, #1	; 0x1
  2008a4:	e1a0f00e 	mov	pc, lr
  2008a8:	00204698 	mlaeq	r0, r8, r6, r4

002008ac <usb_senddata>:
  2008ac:	e52de004 	str	lr, [sp, #-4]!
  2008b0:	e59fe0d8 	ldr	lr, [pc, #216]	; 200990 <.text+0x990>
  2008b4:	e24dd004 	sub	sp, sp, #4	; 0x4
  2008b8:	e3510008 	cmp	r1, #8	; 0x8
  2008bc:	31a03001 	movcc	r3, r1
  2008c0:	23a03008 	movcs	r3, #8	; 0x8
  2008c4:	e2432001 	sub	r2, r3, #1	; 0x1
  2008c8:	e3720001 	cmn	r2, #1	; 0x1
  2008cc:	e0631001 	rsb	r1, r3, r1
  2008d0:	0a000005 	beq	2008ec <usb_senddata+0x40>
  2008d4:	e59ec000 	ldr	ip, [lr]
  2008d8:	e2422001 	sub	r2, r2, #1	; 0x1
  2008dc:	e4d03001 	ldrb	r3, [r0], #1
  2008e0:	e3720001 	cmn	r2, #1	; 0x1
  2008e4:	e58c3050 	str	r3, [ip, #80]
  2008e8:	1afffffa 	bne	2008d8 <usb_senddata+0x2c>
  2008ec:	e59e2000 	ldr	r2, [lr]
  2008f0:	e592c030 	ldr	ip, [r2, #48]
  2008f4:	e31c0001 	tst	ip, #1	; 0x1
  2008f8:	0a000005 	beq	200914 <usb_senddata+0x68>
  2008fc:	e592c030 	ldr	ip, [r2, #48]
  200900:	e3cc3001 	bic	r3, ip, #1	; 0x1
  200904:	e5823030 	str	r3, [r2, #48]
  200908:	e5923030 	ldr	r3, [r2, #48]
  20090c:	e3130001 	tst	r3, #1	; 0x1
  200910:	1afffffc 	bne	200908 <usb_senddata+0x5c>
  200914:	e59e2000 	ldr	r2, [lr]
  200918:	e5923030 	ldr	r3, [r2, #48]
  20091c:	e383c010 	orr	ip, r3, #16	; 0x10
  200920:	e582c030 	str	ip, [r2, #48]
  200924:	e1a0c002 	mov	ip, r2
  200928:	e59c3030 	ldr	r3, [ip, #48]
  20092c:	e58d3000 	str	r3, [sp]
  200930:	e59d2000 	ldr	r2, [sp]
  200934:	e3120002 	tst	r2, #2	; 0x2
  200938:	1a000010 	bne	200980 <usb_senddata+0xd4>
  20093c:	e59d2000 	ldr	r2, [sp]
  200940:	e3120001 	tst	r2, #1	; 0x1
  200944:	0afffff7 	beq	200928 <usb_senddata+0x7c>
  200948:	e3510000 	cmp	r1, #0	; 0x0
  20094c:	1affffd9 	bne	2008b8 <usb_senddata+0xc>
  200950:	e59e2000 	ldr	r2, [lr]
  200954:	e592c030 	ldr	ip, [r2, #48]
  200958:	e31c0001 	tst	ip, #1	; 0x1
  20095c:	0a000005 	beq	200978 <usb_senddata+0xcc>
  200960:	e5920030 	ldr	r0, [r2, #48]
  200964:	e3c03001 	bic	r3, r0, #1	; 0x1
  200968:	e5823030 	str	r3, [r2, #48]
  20096c:	e5921030 	ldr	r1, [r2, #48]
  200970:	e3110001 	tst	r1, #1	; 0x1
  200974:	1afffffc 	bne	20096c <usb_senddata+0xc0>
  200978:	e28dd004 	add	sp, sp, #4	; 0x4
  20097c:	e8bd8000 	ldmia	sp!, {pc}
  200980:	e59c1030 	ldr	r1, [ip, #48]
  200984:	e3c10002 	bic	r0, r1, #2	; 0x2
  200988:	e58c0030 	str	r0, [ip, #48]
  20098c:	eafffff9 	b	200978 <usb_senddata+0xcc>
  200990:	00204698 	mlaeq	r0, r8, r6, r4

00200994 <usb_sendzlp>:
  200994:	e59f1038 	ldr	r1, [pc, #56]	; 2009d4 <.text+0x9d4>
  200998:	e5912000 	ldr	r2, [r1]
  20099c:	e5920030 	ldr	r0, [r2, #48]
  2009a0:	e3803010 	orr	r3, r0, #16	; 0x10
  2009a4:	e5823030 	str	r3, [r2, #48]
  2009a8:	e592c030 	ldr	ip, [r2, #48]
  2009ac:	e31c0001 	tst	ip, #1	; 0x1
  2009b0:	0afffffc 	beq	2009a8 <usb_sendzlp+0x14>
  2009b4:	e5920030 	ldr	r0, [r2, #48]
  2009b8:	e3c03001 	bic	r3, r0, #1	; 0x1
  2009bc:	e5823030 	str	r3, [r2, #48]
  2009c0:	e5912000 	ldr	r2, [r1]
  2009c4:	e5921030 	ldr	r1, [r2, #48]
  2009c8:	e3110001 	tst	r1, #1	; 0x1
  2009cc:	1afffffc 	bne	2009c4 <usb_sendzlp+0x30>
  2009d0:	e1a0f00e 	mov	pc, lr
  2009d4:	00204698 	mlaeq	r0, r8, r6, r4

002009d8 <usb_sendstall>:
  2009d8:	e59f1038 	ldr	r1, [pc, #56]	; 200a18 <.text+0xa18>
  2009dc:	e5912000 	ldr	r2, [r1]
  2009e0:	e5920030 	ldr	r0, [r2, #48]
  2009e4:	e3803020 	orr	r3, r0, #32	; 0x20
  2009e8:	e5823030 	str	r3, [r2, #48]
  2009ec:	e592c030 	ldr	ip, [r2, #48]
  2009f0:	e31c0008 	tst	ip, #8	; 0x8
  2009f4:	0afffffc 	beq	2009ec <usb_sendstall+0x14>
  2009f8:	e5920030 	ldr	r0, [r2, #48]
  2009fc:	e3c03028 	bic	r3, r0, #40	; 0x28
  200a00:	e5823030 	str	r3, [r2, #48]
  200a04:	e5912000 	ldr	r2, [r1]
  200a08:	e5921030 	ldr	r1, [r2, #48]
  200a0c:	e3110028 	tst	r1, #40	; 0x28
  200a10:	1afffffc 	bne	200a08 <usb_sendstall+0x30>
  200a14:	e1a0f00e 	mov	pc, lr
  200a18:	00204698 	mlaeq	r0, r8, r6, r4

00200a1c <usb_enumerate>:
  200a1c:	e92d40f0 	stmdb	sp!, {r4, r5, r6, r7, lr}
  200a20:	e59f7d10 	ldr	r7, [pc, #3344]	; 201738 <.text+0x1738>
  200a24:	e5976000 	ldr	r6, [r7]
  200a28:	e5963030 	ldr	r3, [r6, #48]
  200a2c:	e3130004 	tst	r3, #4	; 0x4
  200a30:	e24dd008 	sub	sp, sp, #8	; 0x8
  200a34:	0a000061 	beq	200bc0 <usb_enumerate+0x1a4>
  200a38:	e5964050 	ldr	r4, [r6, #80]
  200a3c:	e5965050 	ldr	r5, [r6, #80]
  200a40:	e5961050 	ldr	r1, [r6, #80]
  200a44:	e596e050 	ldr	lr, [r6, #80]
  200a48:	e5962050 	ldr	r2, [r6, #80]
  200a4c:	e596c050 	ldr	ip, [r6, #80]
  200a50:	e5963050 	ldr	r3, [r6, #80]
  200a54:	e5960050 	ldr	r0, [r6, #80]
  200a58:	e20220ff 	and	r2, r2, #255	; 0xff
  200a5c:	e20330ff 	and	r3, r3, #255	; 0xff
  200a60:	e20110ff 	and	r1, r1, #255	; 0xff
  200a64:	e181140e 	orr	r1, r1, lr, lsl #8
  200a68:	e20440ff 	and	r4, r4, #255	; 0xff
  200a6c:	e182e40c 	orr	lr, r2, ip, lsl #8
  200a70:	e183c400 	orr	ip, r3, r0, lsl #8
  200a74:	e1a0280e 	mov	r2, lr, lsl #16
  200a78:	e1a0380c 	mov	r3, ip, lsl #16
  200a7c:	e1a01801 	mov	r1, r1, lsl #16
  200a80:	e3140080 	tst	r4, #128	; 0x80
  200a84:	e20550ff 	and	r5, r5, #255	; 0xff
  200a88:	e1a0e821 	mov	lr, r1, lsr #16
  200a8c:	e1a0c822 	mov	ip, r2, lsr #16
  200a90:	e1a00823 	mov	r0, r3, lsr #16
  200a94:	1a00004b 	bne	200bc8 <usb_enumerate+0x1ac>
  200a98:	e5972000 	ldr	r2, [r7]
  200a9c:	e5921030 	ldr	r1, [r2, #48]
  200aa0:	e3c13004 	bic	r3, r1, #4	; 0x4
  200aa4:	e5823030 	str	r3, [r2, #48]
  200aa8:	e5921030 	ldr	r1, [r2, #48]
  200aac:	e1a03121 	mov	r3, r1, lsr #2
  200ab0:	e2131001 	ands	r1, r3, #1	; 0x1
  200ab4:	1afffffb 	bne	200aa8 <usb_enumerate+0x8c>
  200ab8:	e3a03c03 	mov	r3, #768	; 0x300
  200abc:	e1844405 	orr	r4, r4, r5, lsl #8
  200ac0:	e2832001 	add	r2, r3, #1	; 0x1
  200ac4:	e1540002 	cmp	r4, r2
  200ac8:	0a00006c 	beq	200c80 <usb_enumerate+0x264>
  200acc:	ca000045 	bgt	200be8 <usb_enumerate+0x1cc>
  200ad0:	e3540c01 	cmp	r4, #256	; 0x100
  200ad4:	0a0000eb 	beq	200e88 <usb_enumerate+0x46c>
  200ad8:	ca00009d 	bgt	200d54 <usb_enumerate+0x338>
  200adc:	e3540081 	cmp	r4, #129	; 0x81
  200ae0:	0a00012d 	beq	200f9c <usb_enumerate+0x580>
  200ae4:	ca0001b9 	bgt	2011d0 <usb_enumerate+0x7b4>
  200ae8:	e3540080 	cmp	r4, #128	; 0x80
  200aec:	1a0000a3 	bne	200d80 <usb_enumerate+0x364>
  200af0:	e28d0008 	add	r0, sp, #8	; 0x8
  200af4:	e3a01000 	mov	r1, #0	; 0x0
  200af8:	e16010b2 	strh	r1, [r0, #-2]!
  200afc:	e3a0c002 	mov	ip, #2	; 0x2
  200b00:	e35c0008 	cmp	ip, #8	; 0x8
  200b04:	31a0300c 	movcc	r3, ip
  200b08:	23a03008 	movcs	r3, #8	; 0x8
  200b0c:	e2432001 	sub	r2, r3, #1	; 0x1
  200b10:	e3720001 	cmn	r2, #1	; 0x1
  200b14:	e063c00c 	rsb	ip, r3, ip
  200b18:	0a000005 	beq	200b34 <usb_enumerate+0x118>
  200b1c:	e5971000 	ldr	r1, [r7]
  200b20:	e2422001 	sub	r2, r2, #1	; 0x1
  200b24:	e4d03001 	ldrb	r3, [r0], #1
  200b28:	e3720001 	cmn	r2, #1	; 0x1
  200b2c:	e5813050 	str	r3, [r1, #80]
  200b30:	1afffffa 	bne	200b20 <usb_enumerate+0x104>
  200b34:	e5972000 	ldr	r2, [r7]
  200b38:	e5921030 	ldr	r1, [r2, #48]
  200b3c:	e3110001 	tst	r1, #1	; 0x1
  200b40:	0a000005 	beq	200b5c <usb_enumerate+0x140>
  200b44:	e5921030 	ldr	r1, [r2, #48]
  200b48:	e3c13001 	bic	r3, r1, #1	; 0x1
  200b4c:	e5823030 	str	r3, [r2, #48]
  200b50:	e5923030 	ldr	r3, [r2, #48]
  200b54:	e3130001 	tst	r3, #1	; 0x1
  200b58:	1afffffc 	bne	200b50 <usb_enumerate+0x134>
  200b5c:	e5972000 	ldr	r2, [r7]
  200b60:	e5923030 	ldr	r3, [r2, #48]
  200b64:	e3831010 	orr	r1, r3, #16	; 0x10
  200b68:	e5821030 	str	r1, [r2, #48]
  200b6c:	e1a01002 	mov	r1, r2
  200b70:	e5913030 	ldr	r3, [r1, #48]
  200b74:	e58d3000 	str	r3, [sp]
  200b78:	e59d2000 	ldr	r2, [sp]
  200b7c:	e3120002 	tst	r2, #2	; 0x2
  200b80:	1a000160 	bne	201108 <usb_enumerate+0x6ec>
  200b84:	e59d2000 	ldr	r2, [sp]
  200b88:	e3120001 	tst	r2, #1	; 0x1
  200b8c:	0afffff7 	beq	200b70 <usb_enumerate+0x154>
  200b90:	e35c0000 	cmp	ip, #0	; 0x0
  200b94:	1affffd9 	bne	200b00 <usb_enumerate+0xe4>
  200b98:	e5971000 	ldr	r1, [r7]
  200b9c:	e591c030 	ldr	ip, [r1, #48]
  200ba0:	e31c0001 	tst	ip, #1	; 0x1
  200ba4:	0a000005 	beq	200bc0 <usb_enumerate+0x1a4>
  200ba8:	e5913030 	ldr	r3, [r1, #48]
  200bac:	e3c30001 	bic	r0, r3, #1	; 0x1
  200bb0:	e5810030 	str	r0, [r1, #48]
  200bb4:	e5912030 	ldr	r2, [r1, #48]
  200bb8:	e3120001 	tst	r2, #1	; 0x1
  200bbc:	1afffffc 	bne	200bb4 <usb_enumerate+0x198>
  200bc0:	e28dd008 	add	sp, sp, #8	; 0x8
  200bc4:	e8bd80f0 	ldmia	sp!, {r4, r5, r6, r7, pc}
  200bc8:	e5962030 	ldr	r2, [r6, #48]
  200bcc:	e3823080 	orr	r3, r2, #128	; 0x80
  200bd0:	e5863030 	str	r3, [r6, #48]
  200bd4:	e1a02006 	mov	r2, r6
  200bd8:	e5921030 	ldr	r1, [r2, #48]
  200bdc:	e3110080 	tst	r1, #128	; 0x80
  200be0:	0afffffc 	beq	200bd8 <usb_enumerate+0x1bc>
  200be4:	eaffffab 	b	200a98 <usb_enumerate+0x7c>
  200be8:	e3540d22 	cmp	r4, #2176	; 0x880
  200bec:	0a000072 	beq	200dbc <usb_enumerate+0x3a0>
  200bf0:	ca000031 	bgt	200cbc <usb_enumerate+0x2a0>
  200bf4:	e3540c05 	cmp	r4, #1280	; 0x500
  200bf8:	0a0000d3 	beq	200f4c <usb_enumerate+0x530>
  200bfc:	ca000145 	bgt	201118 <usb_enumerate+0x6fc>
  200c00:	e3a03c03 	mov	r3, #768	; 0x300
  200c04:	e2832002 	add	r2, r3, #2	; 0x2
  200c08:	e1540002 	cmp	r4, r2
  200c0c:	1a00005b 	bne	200d80 <usb_enumerate+0x364>
  200c10:	e21c100f 	ands	r1, ip, #15	; 0xf
  200c14:	13a01001 	movne	r1, #1	; 0x1
  200c18:	e35e0000 	cmp	lr, #0	; 0x0
  200c1c:	13a01000 	movne	r1, #0	; 0x0
  200c20:	02011001 	andeq	r1, r1, #1	; 0x1
  200c24:	e3510000 	cmp	r1, #0	; 0x0
  200c28:	e20c200f 	and	r2, ip, #15	; 0xf
  200c2c:	0a000239 	beq	201518 <usb_enumerate+0xafc>
  200c30:	e3520003 	cmp	r2, #3	; 0x3
  200c34:	8a000237 	bhi	201518 <usb_enumerate+0xafc>
  200c38:	e5971000 	ldr	r1, [r7]
  200c3c:	e0813102 	add	r3, r1, r2, lsl #2
  200c40:	e3a02000 	mov	r2, #0	; 0x0
  200c44:	e5832030 	str	r2, [r3, #48]
  200c48:	e591c030 	ldr	ip, [r1, #48]
  200c4c:	e38c0010 	orr	r0, ip, #16	; 0x10
  200c50:	e5810030 	str	r0, [r1, #48]
  200c54:	e5910030 	ldr	r0, [r1, #48]
  200c58:	e3100001 	tst	r0, #1	; 0x1
  200c5c:	0afffffc 	beq	200c54 <usb_enumerate+0x238>
  200c60:	e5913030 	ldr	r3, [r1, #48]
  200c64:	e3c3c001 	bic	ip, r3, #1	; 0x1
  200c68:	e581c030 	str	ip, [r1, #48]
  200c6c:	e5971000 	ldr	r1, [r7]
  200c70:	e5912030 	ldr	r2, [r1, #48]
  200c74:	e3120001 	tst	r2, #1	; 0x1
  200c78:	1afffffc 	bne	200c70 <usb_enumerate+0x254>
  200c7c:	eaffffcf 	b	200bc0 <usb_enumerate+0x1a4>
  200c80:	e5972000 	ldr	r2, [r7]
  200c84:	e5921030 	ldr	r1, [r2, #48]
  200c88:	e3813010 	orr	r3, r1, #16	; 0x10
  200c8c:	e5823030 	str	r3, [r2, #48]
  200c90:	e5920030 	ldr	r0, [r2, #48]
  200c94:	e3100001 	tst	r0, #1	; 0x1
  200c98:	0afffffc 	beq	200c90 <usb_enumerate+0x274>
  200c9c:	e5923030 	ldr	r3, [r2, #48]
  200ca0:	e3c3c001 	bic	ip, r3, #1	; 0x1
  200ca4:	e582c030 	str	ip, [r2, #48]
  200ca8:	e5971000 	ldr	r1, [r7]
  200cac:	e5912030 	ldr	r2, [r1, #48]
  200cb0:	e3120001 	tst	r2, #1	; 0x1
  200cb4:	1afffffc 	bne	200cac <usb_enumerate+0x290>
  200cb8:	eaffffc0 	b	200bc0 <usb_enumerate+0x1a4>
  200cbc:	e3a01a02 	mov	r1, #8192	; 0x2000
  200cc0:	e281c021 	add	ip, r1, #33	; 0x21
  200cc4:	e154000c 	cmp	r4, ip
  200cc8:	0a000088 	beq	200ef0 <usb_enumerate+0x4d4>
  200ccc:	ca000126 	bgt	20116c <usb_enumerate+0x750>
  200cd0:	e3540c09 	cmp	r4, #2304	; 0x900
  200cd4:	1a000029 	bne	200d80 <usb_enumerate+0x364>
  200cd8:	e59f1a5c 	ldr	r1, [pc, #2652]	; 20173c <.text+0x173c>
  200cdc:	e5972000 	ldr	r2, [r7]
  200ce0:	e5c1e000 	strb	lr, [r1]
  200ce4:	e5923030 	ldr	r3, [r2, #48]
  200ce8:	e3834010 	orr	r4, r3, #16	; 0x10
  200cec:	e5824030 	str	r4, [r2, #48]
  200cf0:	e592c030 	ldr	ip, [r2, #48]
  200cf4:	e31c0001 	tst	ip, #1	; 0x1
  200cf8:	0afffffc 	beq	200cf0 <usb_enumerate+0x2d4>
  200cfc:	e5924030 	ldr	r4, [r2, #48]
  200d00:	e3c40001 	bic	r0, r4, #1	; 0x1
  200d04:	e5820030 	str	r0, [r2, #48]
  200d08:	e5974000 	ldr	r4, [r7]
  200d0c:	e5942030 	ldr	r2, [r4, #48]
  200d10:	e3120001 	tst	r2, #1	; 0x1
  200d14:	1afffffc 	bne	200d0c <usb_enumerate+0x2f0>
  200d18:	e35e0000 	cmp	lr, #0	; 0x0
  200d1c:	e5973000 	ldr	r3, [r7]
  200d20:	01a0c00e 	moveq	ip, lr
  200d24:	13a0cc85 	movne	ip, #34048	; 0x8500
  200d28:	03a02001 	moveq	r2, #1	; 0x1
  200d2c:	13a02002 	movne	r2, #2	; 0x2
  200d30:	01a0100e 	moveq	r1, lr
  200d34:	13a01c82 	movne	r1, #33280	; 0x8200
  200d38:	01a0000e 	moveq	r0, lr
  200d3c:	13a00c86 	movne	r0, #34304	; 0x8600
  200d40:	e5842004 	str	r2, [r4, #4]
  200d44:	e5831034 	str	r1, [r3, #52]
  200d48:	e5830038 	str	r0, [r3, #56]
  200d4c:	e583c03c 	str	ip, [r3, #60]
  200d50:	eaffff9a 	b	200bc0 <usb_enumerate+0x1a4>
  200d54:	e3a01c01 	mov	r1, #256	; 0x100
  200d58:	e2810002 	add	r0, r1, #2	; 0x2
  200d5c:	e1540000 	cmp	r4, r0
  200d60:	0a0000c1 	beq	20106c <usb_enumerate+0x650>
  200d64:	b5972000 	ldrlt	r2, [r7]
  200d68:	b5923030 	ldrlt	r3, [r2, #48]
  200d6c:	b3833010 	orrlt	r3, r3, #16	; 0x10
  200d70:	b5823030 	strlt	r3, [r2, #48]
  200d74:	ba000052 	blt	200ec4 <usb_enumerate+0x4a8>
  200d78:	e3540c03 	cmp	r4, #768	; 0x300
  200d7c:	0a000164 	beq	201314 <usb_enumerate+0x8f8>
  200d80:	e5972000 	ldr	r2, [r7]
  200d84:	e5920030 	ldr	r0, [r2, #48]
  200d88:	e3801020 	orr	r1, r0, #32	; 0x20
  200d8c:	e5821030 	str	r1, [r2, #48]
  200d90:	e592c030 	ldr	ip, [r2, #48]
  200d94:	e31c0008 	tst	ip, #8	; 0x8
  200d98:	0afffffc 	beq	200d90 <usb_enumerate+0x374>
  200d9c:	e5921030 	ldr	r1, [r2, #48]
  200da0:	e3c13028 	bic	r3, r1, #40	; 0x28
  200da4:	e5823030 	str	r3, [r2, #48]
  200da8:	e5971000 	ldr	r1, [r7]
  200dac:	e5912030 	ldr	r2, [r1, #48]
  200db0:	e3120028 	tst	r2, #40	; 0x28
  200db4:	1afffffc 	bne	200dac <usb_enumerate+0x390>
  200db8:	eaffff80 	b	200bc0 <usb_enumerate+0x1a4>
  200dbc:	e59f0978 	ldr	r0, [pc, #2424]	; 20173c <.text+0x173c>
  200dc0:	e3a0c001 	mov	ip, #1	; 0x1
  200dc4:	e35c0008 	cmp	ip, #8	; 0x8
  200dc8:	31a0300c 	movcc	r3, ip
  200dcc:	23a03008 	movcs	r3, #8	; 0x8
  200dd0:	e2432001 	sub	r2, r3, #1	; 0x1
  200dd4:	e3720001 	cmn	r2, #1	; 0x1
  200dd8:	e063c00c 	rsb	ip, r3, ip
  200ddc:	0a000005 	beq	200df8 <usb_enumerate+0x3dc>
  200de0:	e5971000 	ldr	r1, [r7]
  200de4:	e2422001 	sub	r2, r2, #1	; 0x1
  200de8:	e4d03001 	ldrb	r3, [r0], #1
  200dec:	e3720001 	cmn	r2, #1	; 0x1
  200df0:	e5813050 	str	r3, [r1, #80]
  200df4:	1afffffa 	bne	200de4 <usb_enumerate+0x3c8>
  200df8:	e5972000 	ldr	r2, [r7]
  200dfc:	e5921030 	ldr	r1, [r2, #48]
  200e00:	e3110001 	tst	r1, #1	; 0x1
  200e04:	0a000005 	beq	200e20 <usb_enumerate+0x404>
  200e08:	e5921030 	ldr	r1, [r2, #48]
  200e0c:	e3c13001 	bic	r3, r1, #1	; 0x1
  200e10:	e5823030 	str	r3, [r2, #48]
  200e14:	e5923030 	ldr	r3, [r2, #48]
  200e18:	e3130001 	tst	r3, #1	; 0x1
  200e1c:	1afffffc 	bne	200e14 <usb_enumerate+0x3f8>
  200e20:	e5972000 	ldr	r2, [r7]
  200e24:	e5923030 	ldr	r3, [r2, #48]
  200e28:	e3831010 	orr	r1, r3, #16	; 0x10
  200e2c:	e5821030 	str	r1, [r2, #48]
  200e30:	e1a01002 	mov	r1, r2
  200e34:	e5913030 	ldr	r3, [r1, #48]
  200e38:	e58d3000 	str	r3, [sp]
  200e3c:	e59d2000 	ldr	r2, [sp]
  200e40:	e3120002 	tst	r2, #2	; 0x2
  200e44:	1a0000af 	bne	201108 <usb_enumerate+0x6ec>
  200e48:	e59d2000 	ldr	r2, [sp]
  200e4c:	e3120001 	tst	r2, #1	; 0x1
  200e50:	0afffff7 	beq	200e34 <usb_enumerate+0x418>
  200e54:	e35c0000 	cmp	ip, #0	; 0x0
  200e58:	1affffd9 	bne	200dc4 <usb_enumerate+0x3a8>
  200e5c:	e5971000 	ldr	r1, [r7]
  200e60:	e591c030 	ldr	ip, [r1, #48]
  200e64:	e31c0001 	tst	ip, #1	; 0x1
  200e68:	0affff54 	beq	200bc0 <usb_enumerate+0x1a4>
  200e6c:	e5913030 	ldr	r3, [r1, #48]
  200e70:	e3c30001 	bic	r0, r3, #1	; 0x1
  200e74:	e5810030 	str	r0, [r1, #48]
  200e78:	e5912030 	ldr	r2, [r1, #48]
  200e7c:	e3120001 	tst	r2, #1	; 0x1
  200e80:	1afffffc 	bne	200e78 <usb_enumerate+0x45c>
  200e84:	eaffff4d 	b	200bc0 <usb_enumerate+0x1a4>
  200e88:	e5972000 	ldr	r2, [r7]
  200e8c:	e592c030 	ldr	ip, [r2, #48]
  200e90:	e38c0020 	orr	r0, ip, #32	; 0x20
  200e94:	e5820030 	str	r0, [r2, #48]
  200e98:	e5923030 	ldr	r3, [r2, #48]
  200e9c:	e3130008 	tst	r3, #8	; 0x8
  200ea0:	0afffffc 	beq	200e98 <usb_enumerate+0x47c>
  200ea4:	e5920030 	ldr	r0, [r2, #48]
  200ea8:	e3c01028 	bic	r1, r0, #40	; 0x28
  200eac:	e5821030 	str	r1, [r2, #48]
  200eb0:	e5971000 	ldr	r1, [r7]
  200eb4:	e5912030 	ldr	r2, [r1, #48]
  200eb8:	e3120028 	tst	r2, #40	; 0x28
  200ebc:	1afffffc 	bne	200eb4 <usb_enumerate+0x498>
  200ec0:	eaffff3e 	b	200bc0 <usb_enumerate+0x1a4>
  200ec4:	e592c030 	ldr	ip, [r2, #48]
  200ec8:	e31c0001 	tst	ip, #1	; 0x1
  200ecc:	0afffffc 	beq	200ec4 <usb_enumerate+0x4a8>
  200ed0:	e5921030 	ldr	r1, [r2, #48]
  200ed4:	e3c13001 	bic	r3, r1, #1	; 0x1
  200ed8:	e5823030 	str	r3, [r2, #48]
  200edc:	e5971000 	ldr	r1, [r7]
  200ee0:	e5910030 	ldr	r0, [r1, #48]
  200ee4:	e3100001 	tst	r0, #1	; 0x1
  200ee8:	1afffffc 	bne	200ee0 <usb_enumerate+0x4c4>
  200eec:	eaffff33 	b	200bc0 <usb_enumerate+0x1a4>
  200ef0:	e5970000 	ldr	r0, [r7]
  200ef4:	e1a01000 	mov	r1, r0
  200ef8:	e591c030 	ldr	ip, [r1, #48]
  200efc:	e31c0002 	tst	ip, #2	; 0x2
  200f00:	0afffffc 	beq	200ef8 <usb_enumerate+0x4dc>
  200f04:	e5913030 	ldr	r3, [r1, #48]
  200f08:	e3c3c002 	bic	ip, r3, #2	; 0x2
  200f0c:	e581c030 	str	ip, [r1, #48]
  200f10:	e5912030 	ldr	r2, [r1, #48]
  200f14:	e3823010 	orr	r3, r2, #16	; 0x10
  200f18:	e5813030 	str	r3, [r1, #48]
  200f1c:	e1a02000 	mov	r2, r0
  200f20:	e5921030 	ldr	r1, [r2, #48]
  200f24:	e3110001 	tst	r1, #1	; 0x1
  200f28:	0afffffc 	beq	200f20 <usb_enumerate+0x504>
  200f2c:	e592c030 	ldr	ip, [r2, #48]
  200f30:	e3cc0001 	bic	r0, ip, #1	; 0x1
  200f34:	e5820030 	str	r0, [r2, #48]
  200f38:	e5971000 	ldr	r1, [r7]
  200f3c:	e5912030 	ldr	r2, [r1, #48]
  200f40:	e3120001 	tst	r2, #1	; 0x1
  200f44:	1afffffc 	bne	200f3c <usb_enumerate+0x520>
  200f48:	eaffff1c 	b	200bc0 <usb_enumerate+0x1a4>
  200f4c:	e5972000 	ldr	r2, [r7]
  200f50:	e592c030 	ldr	ip, [r2, #48]
  200f54:	e38c1010 	orr	r1, ip, #16	; 0x10
  200f58:	e5821030 	str	r1, [r2, #48]
  200f5c:	e5920030 	ldr	r0, [r2, #48]
  200f60:	e3100001 	tst	r0, #1	; 0x1
  200f64:	0afffffc 	beq	200f5c <usb_enumerate+0x540>
  200f68:	e5921030 	ldr	r1, [r2, #48]
  200f6c:	e3c13001 	bic	r3, r1, #1	; 0x1
  200f70:	e5823030 	str	r3, [r2, #48]
  200f74:	e5971000 	ldr	r1, [r7]
  200f78:	e5912030 	ldr	r2, [r1, #48]
  200f7c:	e3120001 	tst	r2, #1	; 0x1
  200f80:	1afffffc 	bne	200f78 <usb_enumerate+0x55c>
  200f84:	e25ec000 	subs	ip, lr, #0	; 0x0
  200f88:	13a0c001 	movne	ip, #1	; 0x1
  200f8c:	e38e0c01 	orr	r0, lr, #256	; 0x100
  200f90:	e5810008 	str	r0, [r1, #8]
  200f94:	e581c004 	str	ip, [r1, #4]
  200f98:	eaffff08 	b	200bc0 <usb_enumerate+0x1a4>
  200f9c:	e28d0008 	add	r0, sp, #8	; 0x8
  200fa0:	e16010b2 	strh	r1, [r0, #-2]!
  200fa4:	e3a0c002 	mov	ip, #2	; 0x2
  200fa8:	e35c0008 	cmp	ip, #8	; 0x8
  200fac:	31a0100c 	movcc	r1, ip
  200fb0:	23a01008 	movcs	r1, #8	; 0x8
  200fb4:	e2412001 	sub	r2, r1, #1	; 0x1
  200fb8:	e3720001 	cmn	r2, #1	; 0x1
  200fbc:	e061c00c 	rsb	ip, r1, ip
  200fc0:	0a000005 	beq	200fdc <usb_enumerate+0x5c0>
  200fc4:	e5971000 	ldr	r1, [r7]
  200fc8:	e2422001 	sub	r2, r2, #1	; 0x1
  200fcc:	e4d03001 	ldrb	r3, [r0], #1
  200fd0:	e3720001 	cmn	r2, #1	; 0x1
  200fd4:	e5813050 	str	r3, [r1, #80]
  200fd8:	1afffffa 	bne	200fc8 <usb_enumerate+0x5ac>
  200fdc:	e5972000 	ldr	r2, [r7]
  200fe0:	e5921030 	ldr	r1, [r2, #48]
  200fe4:	e3110001 	tst	r1, #1	; 0x1
  200fe8:	0a000005 	beq	201004 <usb_enumerate+0x5e8>
  200fec:	e5921030 	ldr	r1, [r2, #48]
  200ff0:	e3c13001 	bic	r3, r1, #1	; 0x1
  200ff4:	e5823030 	str	r3, [r2, #48]
  200ff8:	e5923030 	ldr	r3, [r2, #48]
  200ffc:	e3130001 	tst	r3, #1	; 0x1
  201000:	1afffffc 	bne	200ff8 <usb_enumerate+0x5dc>
  201004:	e5972000 	ldr	r2, [r7]
  201008:	e5923030 	ldr	r3, [r2, #48]
  20100c:	e3831010 	orr	r1, r3, #16	; 0x10
  201010:	e5821030 	str	r1, [r2, #48]
  201014:	e1a01002 	mov	r1, r2
  201018:	e5913030 	ldr	r3, [r1, #48]
  20101c:	e58d3000 	str	r3, [sp]
  201020:	e59d2000 	ldr	r2, [sp]
  201024:	e3120002 	tst	r2, #2	; 0x2
  201028:	1a000036 	bne	201108 <usb_enumerate+0x6ec>
  20102c:	e59d2000 	ldr	r2, [sp]
  201030:	e3120001 	tst	r2, #1	; 0x1
  201034:	0afffff7 	beq	201018 <usb_enumerate+0x5fc>
  201038:	e35c0000 	cmp	ip, #0	; 0x0
  20103c:	1affffd9 	bne	200fa8 <usb_enumerate+0x58c>
  201040:	e5971000 	ldr	r1, [r7]
  201044:	e591c030 	ldr	ip, [r1, #48]
  201048:	e31c0001 	tst	ip, #1	; 0x1
  20104c:	0afffedb 	beq	200bc0 <usb_enumerate+0x1a4>
  201050:	e5913030 	ldr	r3, [r1, #48]
  201054:	e3c30001 	bic	r0, r3, #1	; 0x1
  201058:	e5810030 	str	r0, [r1, #48]
  20105c:	e5912030 	ldr	r2, [r1, #48]
  201060:	e3120001 	tst	r2, #1	; 0x1
  201064:	1afffffc 	bne	20105c <usb_enumerate+0x640>
  201068:	eafffed4 	b	200bc0 <usb_enumerate+0x1a4>
  20106c:	e21c200f 	ands	r2, ip, #15	; 0xf
  201070:	13a02001 	movne	r2, #1	; 0x1
  201074:	e35e0000 	cmp	lr, #0	; 0x0
  201078:	13a02000 	movne	r2, #0	; 0x0
  20107c:	02022001 	andeq	r2, r2, #1	; 0x1
  201080:	e3520000 	cmp	r2, #0	; 0x0
  201084:	e20c200f 	and	r2, ip, #15	; 0xf
  201088:	0a000092 	beq	2012d8 <usb_enumerate+0x8bc>
  20108c:	e3520003 	cmp	r2, #3	; 0x3
  201090:	8a000090 	bhi	2012d8 <usb_enumerate+0x8bc>
  201094:	e3520001 	cmp	r2, #1	; 0x1
  201098:	05972000 	ldreq	r2, [r7]
  20109c:	03a03c82 	moveq	r3, #33280	; 0x8200
  2010a0:	05823034 	streq	r3, [r2, #52]
  2010a4:	0a000008 	beq	2010cc <usb_enumerate+0x6b0>
  2010a8:	e3520002 	cmp	r2, #2	; 0x2
  2010ac:	05972000 	ldreq	r2, [r7]
  2010b0:	03a03c86 	moveq	r3, #34304	; 0x8600
  2010b4:	05823038 	streq	r3, [r2, #56]
  2010b8:	0a000003 	beq	2010cc <usb_enumerate+0x6b0>
  2010bc:	e3520003 	cmp	r2, #3	; 0x3
  2010c0:	05972000 	ldreq	r2, [r7]
  2010c4:	03a03c85 	moveq	r3, #34048	; 0x8500
  2010c8:	0582303c 	streq	r3, [r2, #60]
  2010cc:	e5972000 	ldr	r2, [r7]
  2010d0:	e5923030 	ldr	r3, [r2, #48]
  2010d4:	e383c010 	orr	ip, r3, #16	; 0x10
  2010d8:	e582c030 	str	ip, [r2, #48]
  2010dc:	e5921030 	ldr	r1, [r2, #48]
  2010e0:	e3110001 	tst	r1, #1	; 0x1
  2010e4:	0afffffc 	beq	2010dc <usb_enumerate+0x6c0>
  2010e8:	e592c030 	ldr	ip, [r2, #48]
  2010ec:	e3cc0001 	bic	r0, ip, #1	; 0x1
  2010f0:	e5820030 	str	r0, [r2, #48]
  2010f4:	e5971000 	ldr	r1, [r7]
  2010f8:	e5912030 	ldr	r2, [r1, #48]
  2010fc:	e3120001 	tst	r2, #1	; 0x1
  201100:	1afffffc 	bne	2010f8 <usb_enumerate+0x6dc>
  201104:	eafffead 	b	200bc0 <usb_enumerate+0x1a4>
  201108:	e5913030 	ldr	r3, [r1, #48]
  20110c:	e3c3c002 	bic	ip, r3, #2	; 0x2
  201110:	e581c030 	str	ip, [r1, #48]
  201114:	eafffea9 	b	200bc0 <usb_enumerate+0x1a4>
  201118:	e3540d1a 	cmp	r4, #1664	; 0x680
  20111c:	1affff17 	bne	200d80 <usb_enumerate+0x364>
  201120:	e35e0c01 	cmp	lr, #256	; 0x100
  201124:	0a00011b 	beq	201598 <usb_enumerate+0xb7c>
  201128:	e35e0c02 	cmp	lr, #512	; 0x200
  20112c:	15972000 	ldrne	r2, [r7]
  201130:	15923030 	ldrne	r3, [r2, #48]
  201134:	13833020 	orrne	r3, r3, #32	; 0x20
  201138:	15823030 	strne	r3, [r2, #48]
  20113c:	0a000149 	beq	201668 <usb_enumerate+0xc4c>
  201140:	e5921030 	ldr	r1, [r2, #48]
  201144:	e3110008 	tst	r1, #8	; 0x8
  201148:	0afffffc 	beq	201140 <usb_enumerate+0x724>
  20114c:	e5920030 	ldr	r0, [r2, #48]
  201150:	e3c0c028 	bic	ip, r0, #40	; 0x28
  201154:	e582c030 	str	ip, [r2, #48]
  201158:	e5971000 	ldr	r1, [r7]
  20115c:	e5913030 	ldr	r3, [r1, #48]
  201160:	e3130028 	tst	r3, #40	; 0x28
  201164:	1afffffc 	bne	20115c <usb_enumerate+0x740>
  201168:	eafffe94 	b	200bc0 <usb_enumerate+0x1a4>
  20116c:	e3a02d86 	mov	r2, #8576	; 0x2180
  201170:	e2823021 	add	r3, r2, #33	; 0x21
  201174:	e1540003 	cmp	r4, r3
  201178:	0a000074 	beq	201350 <usb_enumerate+0x934>
  20117c:	e283305f 	add	r3, r3, #95	; 0x5f
  201180:	e2830021 	add	r0, r3, #33	; 0x21
  201184:	e1540000 	cmp	r4, r0
  201188:	1afffefc 	bne	200d80 <usb_enumerate+0x364>
  20118c:	e59fc5ac 	ldr	ip, [pc, #1452]	; 201740 <.text+0x1740>
  201190:	e5972000 	ldr	r2, [r7]
  201194:	e5cce000 	strb	lr, [ip]
  201198:	e5920030 	ldr	r0, [r2, #48]
  20119c:	e3801010 	orr	r1, r0, #16	; 0x10
  2011a0:	e5821030 	str	r1, [r2, #48]
  2011a4:	e5923030 	ldr	r3, [r2, #48]
  2011a8:	e3130001 	tst	r3, #1	; 0x1
  2011ac:	0afffffc 	beq	2011a4 <usb_enumerate+0x788>
  2011b0:	e5920030 	ldr	r0, [r2, #48]
  2011b4:	e3c01001 	bic	r1, r0, #1	; 0x1
  2011b8:	e5821030 	str	r1, [r2, #48]
  2011bc:	e5971000 	ldr	r1, [r7]
  2011c0:	e5912030 	ldr	r2, [r1, #48]
  2011c4:	e3120001 	tst	r2, #1	; 0x1
  2011c8:	1afffffc 	bne	2011c0 <usb_enumerate+0x7a4>
  2011cc:	eafffe7b 	b	200bc0 <usb_enumerate+0x1a4>
  2011d0:	e3540082 	cmp	r4, #130	; 0x82
  2011d4:	1afffee9 	bne	200d80 <usb_enumerate+0x364>
  2011d8:	e5971000 	ldr	r1, [r7]
  2011dc:	e5910004 	ldr	r0, [r1, #4]
  2011e0:	e3100002 	tst	r0, #2	; 0x2
  2011e4:	e20c200f 	and	r2, ip, #15	; 0xf
  2011e8:	0a00008c 	beq	201420 <usb_enumerate+0xa04>
  2011ec:	e3520003 	cmp	r2, #3	; 0x3
  2011f0:	8a00008a 	bhi	201420 <usb_enumerate+0xa04>
  2011f4:	e0813102 	add	r3, r1, r2, lsl #2
  2011f8:	e593c030 	ldr	ip, [r3, #48]
  2011fc:	e31c0902 	tst	ip, #32768	; 0x8000
  201200:	13a01000 	movne	r1, #0	; 0x0
  201204:	03a01001 	moveq	r1, #1	; 0x1
  201208:	e28d0008 	add	r0, sp, #8	; 0x8
  20120c:	e16010b2 	strh	r1, [r0, #-2]!
  201210:	e3a0c002 	mov	ip, #2	; 0x2
  201214:	e35c0008 	cmp	ip, #8	; 0x8
  201218:	31a0100c 	movcc	r1, ip
  20121c:	23a01008 	movcs	r1, #8	; 0x8
  201220:	e2412001 	sub	r2, r1, #1	; 0x1
  201224:	e3720001 	cmn	r2, #1	; 0x1
  201228:	e061c00c 	rsb	ip, r1, ip
  20122c:	0a000005 	beq	201248 <usb_enumerate+0x82c>
  201230:	e5971000 	ldr	r1, [r7]
  201234:	e2422001 	sub	r2, r2, #1	; 0x1
  201238:	e4d03001 	ldrb	r3, [r0], #1
  20123c:	e3720001 	cmn	r2, #1	; 0x1
  201240:	e5813050 	str	r3, [r1, #80]
  201244:	1afffffa 	bne	201234 <usb_enumerate+0x818>
  201248:	e5972000 	ldr	r2, [r7]
  20124c:	e5921030 	ldr	r1, [r2, #48]
  201250:	e3110001 	tst	r1, #1	; 0x1
  201254:	0a000005 	beq	201270 <usb_enumerate+0x854>
  201258:	e5921030 	ldr	r1, [r2, #48]
  20125c:	e3c13001 	bic	r3, r1, #1	; 0x1
  201260:	e5823030 	str	r3, [r2, #48]
  201264:	e5923030 	ldr	r3, [r2, #48]
  201268:	e3130001 	tst	r3, #1	; 0x1
  20126c:	1afffffc 	bne	201264 <usb_enumerate+0x848>
  201270:	e5972000 	ldr	r2, [r7]
  201274:	e5923030 	ldr	r3, [r2, #48]
  201278:	e3831010 	orr	r1, r3, #16	; 0x10
  20127c:	e5821030 	str	r1, [r2, #48]
  201280:	e1a01002 	mov	r1, r2
  201284:	e5913030 	ldr	r3, [r1, #48]
  201288:	e58d3000 	str	r3, [sp]
  20128c:	e59d2000 	ldr	r2, [sp]
  201290:	e3120002 	tst	r2, #2	; 0x2
  201294:	1affff9b 	bne	201108 <usb_enumerate+0x6ec>
  201298:	e59d2000 	ldr	r2, [sp]
  20129c:	e3120001 	tst	r2, #1	; 0x1
  2012a0:	0afffff7 	beq	201284 <usb_enumerate+0x868>
  2012a4:	e35c0000 	cmp	ip, #0	; 0x0
  2012a8:	1affffd9 	bne	201214 <usb_enumerate+0x7f8>
  2012ac:	e5971000 	ldr	r1, [r7]
  2012b0:	e5910030 	ldr	r0, [r1, #48]
  2012b4:	e3100001 	tst	r0, #1	; 0x1
  2012b8:	0afffe40 	beq	200bc0 <usb_enumerate+0x1a4>
  2012bc:	e5913030 	ldr	r3, [r1, #48]
  2012c0:	e3c3c001 	bic	ip, r3, #1	; 0x1
  2012c4:	e581c030 	str	ip, [r1, #48]
  2012c8:	e5912030 	ldr	r2, [r1, #48]
  2012cc:	e3120001 	tst	r2, #1	; 0x1
  2012d0:	1afffffc 	bne	2012c8 <usb_enumerate+0x8ac>
  2012d4:	eafffe39 	b	200bc0 <usb_enumerate+0x1a4>
  2012d8:	e5972000 	ldr	r2, [r7]
  2012dc:	e5921030 	ldr	r1, [r2, #48]
  2012e0:	e3813020 	orr	r3, r1, #32	; 0x20
  2012e4:	e5823030 	str	r3, [r2, #48]
  2012e8:	e5920030 	ldr	r0, [r2, #48]
  2012ec:	e3100008 	tst	r0, #8	; 0x8
  2012f0:	0afffffc 	beq	2012e8 <usb_enumerate+0x8cc>
  2012f4:	e5923030 	ldr	r3, [r2, #48]
  2012f8:	e3c3c028 	bic	ip, r3, #40	; 0x28
  2012fc:	e582c030 	str	ip, [r2, #48]
  201300:	e5971000 	ldr	r1, [r7]
  201304:	e5912030 	ldr	r2, [r1, #48]
  201308:	e3120028 	tst	r2, #40	; 0x28
  20130c:	1afffffc 	bne	201304 <usb_enumerate+0x8e8>
  201310:	eafffe2a 	b	200bc0 <usb_enumerate+0x1a4>
  201314:	e5972000 	ldr	r2, [r7]
  201318:	e5923030 	ldr	r3, [r2, #48]
  20131c:	e383c020 	orr	ip, r3, #32	; 0x20
  201320:	e582c030 	str	ip, [r2, #48]
  201324:	e5921030 	ldr	r1, [r2, #48]
  201328:	e3110008 	tst	r1, #8	; 0x8
  20132c:	0afffffc 	beq	201324 <usb_enumerate+0x908>
  201330:	e592c030 	ldr	ip, [r2, #48]
  201334:	e3cc0028 	bic	r0, ip, #40	; 0x28
  201338:	e5820030 	str	r0, [r2, #48]
  20133c:	e5971000 	ldr	r1, [r7]
  201340:	e5912030 	ldr	r2, [r1, #48]
  201344:	e3120028 	tst	r2, #40	; 0x28
  201348:	1afffffc 	bne	201340 <usb_enumerate+0x924>
  20134c:	eafffe1b 	b	200bc0 <usb_enumerate+0x1a4>
  201350:	e59fc3ec 	ldr	ip, [pc, #1004]	; 201744 <.text+0x1744>
  201354:	e3500008 	cmp	r0, #8	; 0x8
  201358:	23a00008 	movcs	r0, #8	; 0x8
  20135c:	e3500008 	cmp	r0, #8	; 0x8
  201360:	31a03000 	movcc	r3, r0
  201364:	23a03008 	movcs	r3, #8	; 0x8
  201368:	e2432001 	sub	r2, r3, #1	; 0x1
  20136c:	e3720001 	cmn	r2, #1	; 0x1
  201370:	e0630000 	rsb	r0, r3, r0
  201374:	0a000005 	beq	201390 <usb_enumerate+0x974>
  201378:	e5971000 	ldr	r1, [r7]
  20137c:	e2422001 	sub	r2, r2, #1	; 0x1
  201380:	e4dc3001 	ldrb	r3, [ip], #1
  201384:	e3720001 	cmn	r2, #1	; 0x1
  201388:	e5813050 	str	r3, [r1, #80]
  20138c:	1afffffa 	bne	20137c <usb_enumerate+0x960>
  201390:	e5972000 	ldr	r2, [r7]
  201394:	e5921030 	ldr	r1, [r2, #48]
  201398:	e3110001 	tst	r1, #1	; 0x1
  20139c:	0a000005 	beq	2013b8 <usb_enumerate+0x99c>
  2013a0:	e5921030 	ldr	r1, [r2, #48]
  2013a4:	e3c13001 	bic	r3, r1, #1	; 0x1
  2013a8:	e5823030 	str	r3, [r2, #48]
  2013ac:	e5923030 	ldr	r3, [r2, #48]
  2013b0:	e3130001 	tst	r3, #1	; 0x1
  2013b4:	1afffffc 	bne	2013ac <usb_enumerate+0x990>
  2013b8:	e5972000 	ldr	r2, [r7]
  2013bc:	e5923030 	ldr	r3, [r2, #48]
  2013c0:	e3831010 	orr	r1, r3, #16	; 0x10
  2013c4:	e5821030 	str	r1, [r2, #48]
  2013c8:	e1a01002 	mov	r1, r2
  2013cc:	e5913030 	ldr	r3, [r1, #48]
  2013d0:	e58d3000 	str	r3, [sp]
  2013d4:	e59d2000 	ldr	r2, [sp]
  2013d8:	e3120002 	tst	r2, #2	; 0x2
  2013dc:	1affff49 	bne	201108 <usb_enumerate+0x6ec>
  2013e0:	e59d2000 	ldr	r2, [sp]
  2013e4:	e3120001 	tst	r2, #1	; 0x1
  2013e8:	0afffff7 	beq	2013cc <usb_enumerate+0x9b0>
  2013ec:	e3500000 	cmp	r0, #0	; 0x0
  2013f0:	1affffd9 	bne	20135c <usb_enumerate+0x940>
  2013f4:	e5971000 	ldr	r1, [r7]
  2013f8:	e5910030 	ldr	r0, [r1, #48]
  2013fc:	e3100001 	tst	r0, #1	; 0x1
  201400:	0afffdee 	beq	200bc0 <usb_enumerate+0x1a4>
  201404:	e5913030 	ldr	r3, [r1, #48]
  201408:	e3c3c001 	bic	ip, r3, #1	; 0x1
  20140c:	e581c030 	str	ip, [r1, #48]
  201410:	e5912030 	ldr	r2, [r1, #48]
  201414:	e3120001 	tst	r2, #1	; 0x1
  201418:	1afffffc 	bne	201410 <usb_enumerate+0x9f4>
  20141c:	eafffde7 	b	200bc0 <usb_enumerate+0x1a4>
  201420:	e5971000 	ldr	r1, [r7]
  201424:	e5910004 	ldr	r0, [r1, #4]
  201428:	e3100001 	tst	r0, #1	; 0x1
  20142c:	0a000048 	beq	201554 <usb_enumerate+0xb38>
  201430:	e3520000 	cmp	r2, #0	; 0x0
  201434:	1a000046 	bne	201554 <usb_enumerate+0xb38>
  201438:	e591c030 	ldr	ip, [r1, #48]
  20143c:	e31c0902 	tst	ip, #32768	; 0x8000
  201440:	13a01000 	movne	r1, #0	; 0x0
  201444:	03a01001 	moveq	r1, #1	; 0x1
  201448:	e28d0008 	add	r0, sp, #8	; 0x8
  20144c:	e16010b2 	strh	r1, [r0, #-2]!
  201450:	e3a0c002 	mov	ip, #2	; 0x2
  201454:	e35c0008 	cmp	ip, #8	; 0x8
  201458:	31a0300c 	movcc	r3, ip
  20145c:	23a03008 	movcs	r3, #8	; 0x8
  201460:	e2432001 	sub	r2, r3, #1	; 0x1
  201464:	e3720001 	cmn	r2, #1	; 0x1
  201468:	e063c00c 	rsb	ip, r3, ip
  20146c:	0a000005 	beq	201488 <usb_enumerate+0xa6c>
  201470:	e5971000 	ldr	r1, [r7]
  201474:	e2422001 	sub	r2, r2, #1	; 0x1
  201478:	e4d03001 	ldrb	r3, [r0], #1
  20147c:	e3720001 	cmn	r2, #1	; 0x1
  201480:	e5813050 	str	r3, [r1, #80]
  201484:	1afffffa 	bne	201474 <usb_enumerate+0xa58>
  201488:	e5972000 	ldr	r2, [r7]
  20148c:	e5921030 	ldr	r1, [r2, #48]
  201490:	e3110001 	tst	r1, #1	; 0x1
  201494:	0a000005 	beq	2014b0 <usb_enumerate+0xa94>
  201498:	e5921030 	ldr	r1, [r2, #48]
  20149c:	e3c13001 	bic	r3, r1, #1	; 0x1
  2014a0:	e5823030 	str	r3, [r2, #48]
  2014a4:	e5923030 	ldr	r3, [r2, #48]
  2014a8:	e3130001 	tst	r3, #1	; 0x1
  2014ac:	1afffffc 	bne	2014a4 <usb_enumerate+0xa88>
  2014b0:	e5972000 	ldr	r2, [r7]
  2014b4:	e5923030 	ldr	r3, [r2, #48]
  2014b8:	e3831010 	orr	r1, r3, #16	; 0x10
  2014bc:	e5821030 	str	r1, [r2, #48]
  2014c0:	e1a01002 	mov	r1, r2
  2014c4:	e5913030 	ldr	r3, [r1, #48]
  2014c8:	e58d3000 	str	r3, [sp]
  2014cc:	e59d2000 	ldr	r2, [sp]
  2014d0:	e3120002 	tst	r2, #2	; 0x2
  2014d4:	1affff0b 	bne	201108 <usb_enumerate+0x6ec>
  2014d8:	e59d2000 	ldr	r2, [sp]
  2014dc:	e3120001 	tst	r2, #1	; 0x1
  2014e0:	0afffff7 	beq	2014c4 <usb_enumerate+0xaa8>
  2014e4:	e35c0000 	cmp	ip, #0	; 0x0
  2014e8:	1affffd9 	bne	201454 <usb_enumerate+0xa38>
  2014ec:	e5971000 	ldr	r1, [r7]
  2014f0:	e5910030 	ldr	r0, [r1, #48]
  2014f4:	e3100001 	tst	r0, #1	; 0x1
  2014f8:	0afffdb0 	beq	200bc0 <usb_enumerate+0x1a4>
  2014fc:	e5913030 	ldr	r3, [r1, #48]
  201500:	e3c3c001 	bic	ip, r3, #1	; 0x1
  201504:	e581c030 	str	ip, [r1, #48]
  201508:	e5912030 	ldr	r2, [r1, #48]
  20150c:	e3120001 	tst	r2, #1	; 0x1
  201510:	1afffffc 	bne	201508 <usb_enumerate+0xaec>
  201514:	eafffda9 	b	200bc0 <usb_enumerate+0x1a4>
  201518:	e5972000 	ldr	r2, [r7]
  20151c:	e5920030 	ldr	r0, [r2, #48]
  201520:	e3801020 	orr	r1, r0, #32	; 0x20
  201524:	e5821030 	str	r1, [r2, #48]
  201528:	e592c030 	ldr	ip, [r2, #48]
  20152c:	e31c0008 	tst	ip, #8	; 0x8
  201530:	0afffffc 	beq	201528 <usb_enumerate+0xb0c>
  201534:	e5921030 	ldr	r1, [r2, #48]
  201538:	e3c13028 	bic	r3, r1, #40	; 0x28
  20153c:	e5823030 	str	r3, [r2, #48]
  201540:	e5971000 	ldr	r1, [r7]
  201544:	e5912030 	ldr	r2, [r1, #48]
  201548:	e3120028 	tst	r2, #40	; 0x28
  20154c:	1afffffc 	bne	201544 <usb_enumerate+0xb28>
  201550:	eafffd9a 	b	200bc0 <usb_enumerate+0x1a4>
  201554:	e5972000 	ldr	r2, [r7]
  201558:	e592c030 	ldr	ip, [r2, #48]
  20155c:	e3a01000 	mov	r1, #0	; 0x0
  201560:	e38c0020 	orr	r0, ip, #32	; 0x20
  201564:	e5820030 	str	r0, [r2, #48]
  201568:	e1cd10b6 	strh	r1, [sp, #6]
  20156c:	e5923030 	ldr	r3, [r2, #48]
  201570:	e3130008 	tst	r3, #8	; 0x8
  201574:	0afffffc 	beq	20156c <usb_enumerate+0xb50>
  201578:	e5920030 	ldr	r0, [r2, #48]
  20157c:	e3c01028 	bic	r1, r0, #40	; 0x28
  201580:	e5821030 	str	r1, [r2, #48]
  201584:	e5971000 	ldr	r1, [r7]
  201588:	e5912030 	ldr	r2, [r1, #48]
  20158c:	e3120028 	tst	r2, #40	; 0x28
  201590:	1afffffc 	bne	201588 <usb_enumerate+0xb6c>
  201594:	eafffd89 	b	200bc0 <usb_enumerate+0x1a4>
  201598:	e59fc1a8 	ldr	ip, [pc, #424]	; 201748 <.text+0x1748>
  20159c:	e3500012 	cmp	r0, #18	; 0x12
  2015a0:	23a00012 	movcs	r0, #18	; 0x12
  2015a4:	e3500008 	cmp	r0, #8	; 0x8
  2015a8:	31a01000 	movcc	r1, r0
  2015ac:	23a01008 	movcs	r1, #8	; 0x8
  2015b0:	e2412001 	sub	r2, r1, #1	; 0x1
  2015b4:	e3720001 	cmn	r2, #1	; 0x1
  2015b8:	e0610000 	rsb	r0, r1, r0
  2015bc:	0a000005 	beq	2015d8 <usb_enumerate+0xbbc>
  2015c0:	e5971000 	ldr	r1, [r7]
  2015c4:	e2422001 	sub	r2, r2, #1	; 0x1
  2015c8:	e4dc3001 	ldrb	r3, [ip], #1
  2015cc:	e3720001 	cmn	r2, #1	; 0x1
  2015d0:	e5813050 	str	r3, [r1, #80]
  2015d4:	1afffffa 	bne	2015c4 <usb_enumerate+0xba8>
  2015d8:	e5972000 	ldr	r2, [r7]
  2015dc:	e5921030 	ldr	r1, [r2, #48]
  2015e0:	e3110001 	tst	r1, #1	; 0x1
  2015e4:	0a000005 	beq	201600 <usb_enumerate+0xbe4>
  2015e8:	e5921030 	ldr	r1, [r2, #48]
  2015ec:	e3c13001 	bic	r3, r1, #1	; 0x1
  2015f0:	e5823030 	str	r3, [r2, #48]
  2015f4:	e5923030 	ldr	r3, [r2, #48]
  2015f8:	e3130001 	tst	r3, #1	; 0x1
  2015fc:	1afffffc 	bne	2015f4 <usb_enumerate+0xbd8>
  201600:	e5972000 	ldr	r2, [r7]
  201604:	e5923030 	ldr	r3, [r2, #48]
  201608:	e3831010 	orr	r1, r3, #16	; 0x10
  20160c:	e5821030 	str	r1, [r2, #48]
  201610:	e1a01002 	mov	r1, r2
  201614:	e5913030 	ldr	r3, [r1, #48]
  201618:	e58d3000 	str	r3, [sp]
  20161c:	e59d2000 	ldr	r2, [sp]
  201620:	e3120002 	tst	r2, #2	; 0x2
  201624:	1afffeb7 	bne	201108 <usb_enumerate+0x6ec>
  201628:	e59d2000 	ldr	r2, [sp]
  20162c:	e3120001 	tst	r2, #1	; 0x1
  201630:	0afffff7 	beq	201614 <usb_enumerate+0xbf8>
  201634:	e3500000 	cmp	r0, #0	; 0x0
  201638:	1affffd9 	bne	2015a4 <usb_enumerate+0xb88>
  20163c:	e5971000 	ldr	r1, [r7]
  201640:	e591c030 	ldr	ip, [r1, #48]
  201644:	e31c0001 	tst	ip, #1	; 0x1
  201648:	0afffd5c 	beq	200bc0 <usb_enumerate+0x1a4>
  20164c:	e5913030 	ldr	r3, [r1, #48]
  201650:	e3c30001 	bic	r0, r3, #1	; 0x1
  201654:	e5810030 	str	r0, [r1, #48]
  201658:	e5912030 	ldr	r2, [r1, #48]
  20165c:	e3120001 	tst	r2, #1	; 0x1
  201660:	1afffffc 	bne	201658 <usb_enumerate+0xc3c>
  201664:	eafffd55 	b	200bc0 <usb_enumerate+0x1a4>
  201668:	e59fc0dc 	ldr	ip, [pc, #220]	; 20174c <.text+0x174c>
  20166c:	e3500043 	cmp	r0, #67	; 0x43
  201670:	23a00043 	movcs	r0, #67	; 0x43
  201674:	e3500008 	cmp	r0, #8	; 0x8
  201678:	31a01000 	movcc	r1, r0
  20167c:	23a01008 	movcs	r1, #8	; 0x8
  201680:	e2412001 	sub	r2, r1, #1	; 0x1
  201684:	e3720001 	cmn	r2, #1	; 0x1
  201688:	e0610000 	rsb	r0, r1, r0
  20168c:	0a000005 	beq	2016a8 <usb_enumerate+0xc8c>
  201690:	e5971000 	ldr	r1, [r7]
  201694:	e2422001 	sub	r2, r2, #1	; 0x1
  201698:	e4dc3001 	ldrb	r3, [ip], #1
  20169c:	e3720001 	cmn	r2, #1	; 0x1
  2016a0:	e5813050 	str	r3, [r1, #80]
  2016a4:	1afffffa 	bne	201694 <usb_enumerate+0xc78>
  2016a8:	e5972000 	ldr	r2, [r7]
  2016ac:	e5921030 	ldr	r1, [r2, #48]
  2016b0:	e3110001 	tst	r1, #1	; 0x1
  2016b4:	0a000005 	beq	2016d0 <usb_enumerate+0xcb4>
  2016b8:	e5921030 	ldr	r1, [r2, #48]
  2016bc:	e3c13001 	bic	r3, r1, #1	; 0x1
  2016c0:	e5823030 	str	r3, [r2, #48]
  2016c4:	e5923030 	ldr	r3, [r2, #48]
  2016c8:	e3130001 	tst	r3, #1	; 0x1
  2016cc:	1afffffc 	bne	2016c4 <usb_enumerate+0xca8>
  2016d0:	e5972000 	ldr	r2, [r7]
  2016d4:	e5923030 	ldr	r3, [r2, #48]
  2016d8:	e3831010 	orr	r1, r3, #16	; 0x10
  2016dc:	e5821030 	str	r1, [r2, #48]
  2016e0:	e1a01002 	mov	r1, r2
  2016e4:	e5913030 	ldr	r3, [r1, #48]
  2016e8:	e58d3000 	str	r3, [sp]
  2016ec:	e59d2000 	ldr	r2, [sp]
  2016f0:	e3120002 	tst	r2, #2	; 0x2
  2016f4:	1afffe83 	bne	201108 <usb_enumerate+0x6ec>
  2016f8:	e59d2000 	ldr	r2, [sp]
  2016fc:	e3120001 	tst	r2, #1	; 0x1
  201700:	0afffff7 	beq	2016e4 <usb_enumerate+0xcc8>
  201704:	e3500000 	cmp	r0, #0	; 0x0
  201708:	1affffd9 	bne	201674 <usb_enumerate+0xc58>
  20170c:	e5971000 	ldr	r1, [r7]
  201710:	e591c030 	ldr	ip, [r1, #48]
  201714:	e31c0001 	tst	ip, #1	; 0x1
  201718:	0afffd28 	beq	200bc0 <usb_enumerate+0x1a4>
  20171c:	e5913030 	ldr	r3, [r1, #48]
  201720:	e3c30001 	bic	r0, r3, #1	; 0x1
  201724:	e5810030 	str	r0, [r1, #48]
  201728:	e5912030 	ldr	r2, [r1, #48]
  20172c:	e3120001 	tst	r2, #1	; 0x1
  201730:	1afffffc 	bne	201728 <usb_enumerate+0xd0c>
  201734:	eafffd21 	b	200bc0 <usb_enumerate+0x1a4>
  201738:	00204698 	mlaeq	r0, r8, r6, r4
  20173c:	0020469c 	mlaeq	r0, ip, r6, r4
  201740:	00204694 	mlaeq	r0, r4, r6, r4
  201744:	00204508 	eoreq	r4, r0, r8, lsl #10
  201748:	00204553 	eoreq	r4, r0, r3, asr r5
  20174c:	00204510 	eoreq	r4, r0, r0, lsl r5

00201750 <usb_isconfigured>:
  201750:	e1a0c00d 	mov	ip, sp
  201754:	e92dd800 	stmdb	sp!, {fp, ip, lr, pc}
  201758:	e59f0080 	ldr	r0, [pc, #128]	; 2017e0 <.text+0x17e0>
  20175c:	e24cb004 	sub	fp, ip, #4	; 0x4
  201760:	e24dd004 	sub	sp, sp, #4	; 0x4
  201764:	e5901000 	ldr	r1, [r0]
  201768:	e591201c 	ldr	r2, [r1, #28]
  20176c:	e50b2010 	str	r2, [fp, #-16]
  201770:	e51b3010 	ldr	r3, [fp, #-16]
  201774:	e3130a01 	tst	r3, #4096	; 0x1000
  201778:	e59fc064 	ldr	ip, [pc, #100]	; 2017e4 <.text+0x17e4>
  20177c:	e3a00000 	mov	r0, #0	; 0x0
  201780:	0a00000b 	beq	2017b4 <usb_isconfigured+0x64>
  201784:	e3a03a01 	mov	r3, #4096	; 0x1000
  201788:	e3e02000 	mvn	r2, #0	; 0x0
  20178c:	e5813020 	str	r3, [r1, #32]
  201790:	e5812028 	str	r2, [r1, #40]
  201794:	e2432c0f 	sub	r2, r3, #3840	; 0xf00
  201798:	e3a03902 	mov	r3, #32768	; 0x8000
  20179c:	e5810028 	str	r0, [r1, #40]
  2017a0:	e5812008 	str	r2, [r1, #8]
  2017a4:	e5813030 	str	r3, [r1, #48]
  2017a8:	e5cc0000 	strb	r0, [ip]
  2017ac:	e5dc0000 	ldrb	r0, [ip]
  2017b0:	e89da808 	ldmia	sp, {r3, fp, sp, pc}
  2017b4:	e51bc010 	ldr	ip, [fp, #-16]
  2017b8:	e31c0001 	tst	ip, #1	; 0x1
  2017bc:	1a000002 	bne	2017cc <usb_isconfigured+0x7c>
  2017c0:	e59fc01c 	ldr	ip, [pc, #28]	; 2017e4 <.text+0x17e4>
  2017c4:	e5dc0000 	ldrb	r0, [ip]
  2017c8:	e89da808 	ldmia	sp, {r3, fp, sp, pc}
  2017cc:	e3a0e001 	mov	lr, #1	; 0x1
  2017d0:	e581e020 	str	lr, [r1, #32]
  2017d4:	ebfffc90 	bl	200a1c <usb_enumerate>
  2017d8:	e59fc004 	ldr	ip, [pc, #4]	; 2017e4 <.text+0x17e4>
  2017dc:	eafffff8 	b	2017c4 <usb_isconfigured+0x74>
  2017e0:	00204698 	mlaeq	r0, r8, r6, r4
  2017e4:	0020469c 	mlaeq	r0, ip, r6, r4

002017e8 <usb_write>:
  2017e8:	e1a0c00d 	mov	ip, sp
  2017ec:	e92dd9f0 	stmdb	sp!, {r4, r5, r6, r7, r8, fp, ip, lr, pc}
  2017f0:	e3510040 	cmp	r1, #64	; 0x40
  2017f4:	31a03001 	movcc	r3, r1
  2017f8:	23a03040 	movcs	r3, #64	; 0x40
  2017fc:	e2432001 	sub	r2, r3, #1	; 0x1
  201800:	e24cb004 	sub	fp, ip, #4	; 0x4
  201804:	e24dd004 	sub	sp, sp, #4	; 0x4
  201808:	e3720001 	cmn	r2, #1	; 0x1
  20180c:	e1a04000 	mov	r4, r0
  201810:	e0636001 	rsb	r6, r3, r1
  201814:	059f81ec 	ldreq	r8, [pc, #492]	; 201a08 <.text+0x1a08>
  201818:	0a000006 	beq	201838 <usb_write+0x50>
  20181c:	e59f81e4 	ldr	r8, [pc, #484]	; 201a08 <.text+0x1a08>
  201820:	e5981000 	ldr	r1, [r8]
  201824:	e2422001 	sub	r2, r2, #1	; 0x1
  201828:	e4d40001 	ldrb	r0, [r4], #1
  20182c:	e3720001 	cmn	r2, #1	; 0x1
  201830:	e5810058 	str	r0, [r1, #88]
  201834:	1afffffa 	bne	201824 <usb_write+0x3c>
  201838:	e5982000 	ldr	r2, [r8]
  20183c:	e592c038 	ldr	ip, [r2, #56]
  201840:	e3560000 	cmp	r6, #0	; 0x0
  201844:	e38c1010 	orr	r1, ip, #16	; 0x10
  201848:	e5821038 	str	r1, [r2, #56]
  20184c:	0a000036 	beq	20192c <usb_write+0x144>
  201850:	e3560040 	cmp	r6, #64	; 0x40
  201854:	31a02006 	movcc	r2, r6
  201858:	23a02040 	movcs	r2, #64	; 0x40
  20185c:	e2421001 	sub	r1, r2, #1	; 0x1
  201860:	e3710001 	cmn	r1, #1	; 0x1
  201864:	e0626006 	rsb	r6, r2, r6
  201868:	0a000005 	beq	201884 <usb_write+0x9c>
  20186c:	e5982000 	ldr	r2, [r8]
  201870:	e2411001 	sub	r1, r1, #1	; 0x1
  201874:	e4d48001 	ldrb	r8, [r4], #1
  201878:	e3710001 	cmn	r1, #1	; 0x1
  20187c:	e5828058 	str	r8, [r2, #88]
  201880:	1afffffa 	bne	201870 <usb_write+0x88>
  201884:	e59f817c 	ldr	r8, [pc, #380]	; 201a08 <.text+0x1a08>
  201888:	e5982000 	ldr	r2, [r8]
  20188c:	e5923038 	ldr	r3, [r2, #56]
  201890:	e2133001 	ands	r3, r3, #1	; 0x1
  201894:	1a00004a 	bne	2019c4 <usb_write+0x1dc>
  201898:	e59f516c 	ldr	r5, [pc, #364]	; 201a0c <.text+0x1a0c>
  20189c:	e1a01002 	mov	r1, r2
  2018a0:	e1a07003 	mov	r7, r3
  2018a4:	ea000010 	b	2018ec <usb_write+0x104>
  2018a8:	e3a00a01 	mov	r0, #4096	; 0x1000
  2018ac:	e3e0c000 	mvn	ip, #0	; 0x0
  2018b0:	e2403c0f 	sub	r3, r0, #3840	; 0xf00
  2018b4:	e3a02902 	mov	r2, #32768	; 0x8000
  2018b8:	e5810020 	str	r0, [r1, #32]
  2018bc:	e581c028 	str	ip, [r1, #40]
  2018c0:	e5817028 	str	r7, [r1, #40]
  2018c4:	e5813008 	str	r3, [r1, #8]
  2018c8:	e5812030 	str	r2, [r1, #48]
  2018cc:	e5c57000 	strb	r7, [r5]
  2018d0:	e5d51000 	ldrb	r1, [r5]
  2018d4:	e3510000 	cmp	r1, #0	; 0x0
  2018d8:	0a000011 	beq	201924 <usb_write+0x13c>
  2018dc:	e5981000 	ldr	r1, [r8]
  2018e0:	e5913038 	ldr	r3, [r1, #56]
  2018e4:	e3130001 	tst	r3, #1	; 0x1
  2018e8:	1a000035 	bne	2019c4 <usb_write+0x1dc>
  2018ec:	e591c01c 	ldr	ip, [r1, #28]
  2018f0:	e50bc024 	str	ip, [fp, #-36]
  2018f4:	e51b0024 	ldr	r0, [fp, #-36]
  2018f8:	e3100a01 	tst	r0, #4096	; 0x1000
  2018fc:	1affffe9 	bne	2018a8 <usb_write+0xc0>
  201900:	e51b2024 	ldr	r2, [fp, #-36]
  201904:	e3120001 	tst	r2, #1	; 0x1
  201908:	0afffff0 	beq	2018d0 <usb_write+0xe8>
  20190c:	e3a0e001 	mov	lr, #1	; 0x1
  201910:	e581e020 	str	lr, [r1, #32]
  201914:	ebfffc40 	bl	200a1c <usb_enumerate>
  201918:	e5d51000 	ldrb	r1, [r5]
  20191c:	e3510000 	cmp	r1, #0	; 0x0
  201920:	1affffed 	bne	2018dc <usb_write+0xf4>
  201924:	e1a00006 	mov	r0, r6
  201928:	e89da9f8 	ldmia	sp, {r3, r4, r5, r6, r7, r8, fp, sp, pc}
  20192c:	e59f40d4 	ldr	r4, [pc, #212]	; 201a08 <.text+0x1a08>
  201930:	e5942000 	ldr	r2, [r4]
  201934:	e5923038 	ldr	r3, [r2, #56]
  201938:	e2133001 	ands	r3, r3, #1	; 0x1
  20193c:	1a000028 	bne	2019e4 <usb_write+0x1fc>
  201940:	e59f50c4 	ldr	r5, [pc, #196]	; 201a0c <.text+0x1a0c>
  201944:	e1a01002 	mov	r1, r2
  201948:	e1a07003 	mov	r7, r3
  20194c:	ea000010 	b	201994 <usb_write+0x1ac>
  201950:	e3a00a01 	mov	r0, #4096	; 0x1000
  201954:	e3e02000 	mvn	r2, #0	; 0x0
  201958:	e2403c0f 	sub	r3, r0, #3840	; 0xf00
  20195c:	e3a0c902 	mov	ip, #32768	; 0x8000
  201960:	e5810020 	str	r0, [r1, #32]
  201964:	e5812028 	str	r2, [r1, #40]
  201968:	e5817028 	str	r7, [r1, #40]
  20196c:	e5813008 	str	r3, [r1, #8]
  201970:	e581c030 	str	ip, [r1, #48]
  201974:	e5c57000 	strb	r7, [r5]
  201978:	e5d51000 	ldrb	r1, [r5]
  20197c:	e3510000 	cmp	r1, #0	; 0x0
  201980:	0affffe7 	beq	201924 <usb_write+0x13c>
  201984:	e5941000 	ldr	r1, [r4]
  201988:	e5913038 	ldr	r3, [r1, #56]
  20198c:	e3130001 	tst	r3, #1	; 0x1
  201990:	1a000013 	bne	2019e4 <usb_write+0x1fc>
  201994:	e591001c 	ldr	r0, [r1, #28]
  201998:	e50b0024 	str	r0, [fp, #-36]
  20199c:	e51b2024 	ldr	r2, [fp, #-36]
  2019a0:	e3120a01 	tst	r2, #4096	; 0x1000
  2019a4:	1affffe9 	bne	201950 <usb_write+0x168>
  2019a8:	e51bc024 	ldr	ip, [fp, #-36]
  2019ac:	e31c0001 	tst	ip, #1	; 0x1
  2019b0:	0afffff0 	beq	201978 <usb_write+0x190>
  2019b4:	e3a0e001 	mov	lr, #1	; 0x1
  2019b8:	e581e020 	str	lr, [r1, #32]
  2019bc:	ebfffc16 	bl	200a1c <usb_enumerate>
  2019c0:	eaffffec 	b	201978 <usb_write+0x190>
  2019c4:	e5982000 	ldr	r2, [r8]
  2019c8:	e592c038 	ldr	ip, [r2, #56]
  2019cc:	e3cc0001 	bic	r0, ip, #1	; 0x1
  2019d0:	e5820038 	str	r0, [r2, #56]
  2019d4:	e5921038 	ldr	r1, [r2, #56]
  2019d8:	e3110001 	tst	r1, #1	; 0x1
  2019dc:	1afffffc 	bne	2019d4 <usb_write+0x1ec>
  2019e0:	eaffff95 	b	20183c <usb_write+0x54>
  2019e4:	e5942000 	ldr	r2, [r4]
  2019e8:	e592c038 	ldr	ip, [r2, #56]
  2019ec:	e3cc0001 	bic	r0, ip, #1	; 0x1
  2019f0:	e5820038 	str	r0, [r2, #56]
  2019f4:	e5921038 	ldr	r1, [r2, #56]
  2019f8:	e3110001 	tst	r1, #1	; 0x1
  2019fc:	1afffffc 	bne	2019f4 <usb_write+0x20c>
  201a00:	e1a00006 	mov	r0, r6
  201a04:	e89da9f8 	ldmia	sp, {r3, r4, r5, r6, r7, r8, fp, sp, pc}
  201a08:	00204698 	mlaeq	r0, r8, r6, r4
  201a0c:	0020469c 	mlaeq	r0, ip, r6, r4

00201a10 <usb_read>:
  201a10:	e1a0c00d 	mov	ip, sp
  201a14:	e92ddff0 	stmdb	sp!, {r4, r5, r6, r7, r8, r9, sl, fp, ip, lr, pc}
  201a18:	e59f3118 	ldr	r3, [pc, #280]	; 201b38 <.text+0x1b38>
  201a1c:	e24cb004 	sub	fp, ip, #4	; 0x4
  201a20:	e24dd004 	sub	sp, sp, #4	; 0x4
  201a24:	e2517000 	subs	r7, r1, #0	; 0x0
  201a28:	e1a08000 	mov	r8, r0
  201a2c:	e3a04000 	mov	r4, #0	; 0x0
  201a30:	e5936000 	ldr	r6, [r3]
  201a34:	0a000034 	beq	201b0c <usb_read+0xfc>
  201a38:	e59f50fc 	ldr	r5, [pc, #252]	; 201b3c <.text+0x1b3c>
  201a3c:	e59fa0fc 	ldr	sl, [pc, #252]	; 201b40 <.text+0x1b40>
  201a40:	e1a09004 	mov	r9, r4
  201a44:	e5951000 	ldr	r1, [r5]
  201a48:	e591001c 	ldr	r0, [r1, #28]
  201a4c:	e50b002c 	str	r0, [fp, #-44]
  201a50:	e51b202c 	ldr	r2, [fp, #-44]
  201a54:	e3120a01 	tst	r2, #4096	; 0x1000
  201a58:	0a00002f 	beq	201b1c <usb_read+0x10c>
  201a5c:	e3a00a01 	mov	r0, #4096	; 0x1000
  201a60:	e3e02000 	mvn	r2, #0	; 0x0
  201a64:	e2403c0f 	sub	r3, r0, #3840	; 0xf00
  201a68:	e3a0c902 	mov	ip, #32768	; 0x8000
  201a6c:	e5810020 	str	r0, [r1, #32]
  201a70:	e5812028 	str	r2, [r1, #40]
  201a74:	e5819028 	str	r9, [r1, #40]
  201a78:	e5813008 	str	r3, [r1, #8]
  201a7c:	e581c030 	str	ip, [r1, #48]
  201a80:	e5ca9000 	strb	r9, [sl]
  201a84:	e5da1000 	ldrb	r1, [sl]
  201a88:	e3510000 	cmp	r1, #0	; 0x0
  201a8c:	0a00001e 	beq	201b0c <usb_read+0xfc>
  201a90:	e5952000 	ldr	r2, [r5]
  201a94:	e5923034 	ldr	r3, [r2, #52]
  201a98:	e1130006 	tst	r3, r6
  201a9c:	0a000018 	beq	201b04 <usb_read+0xf4>
  201aa0:	e5920034 	ldr	r0, [r2, #52]
  201aa4:	e1570820 	cmp	r7, r0, lsr #16
  201aa8:	85923034 	ldrhi	r3, [r2, #52]
  201aac:	91a03007 	movls	r3, r7
  201ab0:	81a03823 	movhi	r3, r3, lsr #16
  201ab4:	e353003f 	cmp	r3, #63	; 0x3f
  201ab8:	e2431001 	sub	r1, r3, #1	; 0x1
  201abc:	80637007 	rsbhi	r7, r3, r7
  201ac0:	93a07000 	movls	r7, #0	; 0x0
  201ac4:	e3710001 	cmn	r1, #1	; 0x1
  201ac8:	0a000006 	beq	201ae8 <usb_read+0xd8>
  201acc:	e595c000 	ldr	ip, [r5]
  201ad0:	e59c2054 	ldr	r2, [ip, #84]
  201ad4:	e2411001 	sub	r1, r1, #1	; 0x1
  201ad8:	e7c42008 	strb	r2, [r4, r8]
  201adc:	e3710001 	cmn	r1, #1	; 0x1
  201ae0:	e2844001 	add	r4, r4, #1	; 0x1
  201ae4:	1afffff8 	bne	201acc <usb_read+0xbc>
  201ae8:	e5951000 	ldr	r1, [r5]
  201aec:	e5910034 	ldr	r0, [r1, #52]
  201af0:	e1c03006 	bic	r3, r0, r6
  201af4:	e3560002 	cmp	r6, #2	; 0x2
  201af8:	e5813034 	str	r3, [r1, #52]
  201afc:	13a06002 	movne	r6, #2	; 0x2
  201b00:	03a06040 	moveq	r6, #64	; 0x40
  201b04:	e3570000 	cmp	r7, #0	; 0x0
  201b08:	1affffcd 	bne	201a44 <usb_read+0x34>
  201b0c:	e59f2024 	ldr	r2, [pc, #36]	; 201b38 <.text+0x1b38>
  201b10:	e1a00004 	mov	r0, r4
  201b14:	e5826000 	str	r6, [r2]
  201b18:	e89daff8 	ldmia	sp, {r3, r4, r5, r6, r7, r8, r9, sl, fp, sp, pc}
  201b1c:	e51bc02c 	ldr	ip, [fp, #-44]
  201b20:	e31c0001 	tst	ip, #1	; 0x1
  201b24:	0affffd6 	beq	201a84 <usb_read+0x74>
  201b28:	e3a0e001 	mov	lr, #1	; 0x1
  201b2c:	e581e020 	str	lr, [r1, #32]
  201b30:	ebfffbb9 	bl	200a1c <usb_enumerate>
  201b34:	eaffffd2 	b	201a84 <usb_read+0x74>
  201b38:	002046a0 	eoreq	r4, r0, r0, lsr #13
  201b3c:	00204698 	mlaeq	r0, r8, r6, r4
  201b40:	0020469c 	mlaeq	r0, ip, r6, r4

00201b44 <usb_print>:
  201b44:	e1a0c00d 	mov	ip, sp
  201b48:	e92dd9f0 	stmdb	sp!, {r4, r5, r6, r7, r8, fp, ip, lr, pc}
  201b4c:	e24cb004 	sub	fp, ip, #4	; 0x4
  201b50:	e24dd004 	sub	sp, sp, #4	; 0x4
  201b54:	e1a04000 	mov	r4, r0
  201b58:	eb000787 	bl	20397c <strlen>
  201b5c:	e3500040 	cmp	r0, #64	; 0x40
  201b60:	31a03000 	movcc	r3, r0
  201b64:	23a03040 	movcs	r3, #64	; 0x40
  201b68:	e2432001 	sub	r2, r3, #1	; 0x1
  201b6c:	e3720001 	cmn	r2, #1	; 0x1
  201b70:	e0635000 	rsb	r5, r3, r0
  201b74:	059f81f0 	ldreq	r8, [pc, #496]	; 201d6c <.text+0x1d6c>
  201b78:	0a000006 	beq	201b98 <usb_print+0x54>
  201b7c:	e59f81e8 	ldr	r8, [pc, #488]	; 201d6c <.text+0x1d6c>
  201b80:	e5981000 	ldr	r1, [r8]
  201b84:	e2422001 	sub	r2, r2, #1	; 0x1
  201b88:	e4d40001 	ldrb	r0, [r4], #1
  201b8c:	e3720001 	cmn	r2, #1	; 0x1
  201b90:	e5810058 	str	r0, [r1, #88]
  201b94:	1afffffa 	bne	201b84 <usb_print+0x40>
  201b98:	e5982000 	ldr	r2, [r8]
  201b9c:	e592c038 	ldr	ip, [r2, #56]
  201ba0:	e3550000 	cmp	r5, #0	; 0x0
  201ba4:	e38c1010 	orr	r1, ip, #16	; 0x10
  201ba8:	e5821038 	str	r1, [r2, #56]
  201bac:	0a000035 	beq	201c88 <usb_print+0x144>
  201bb0:	e3550040 	cmp	r5, #64	; 0x40
  201bb4:	31a02005 	movcc	r2, r5
  201bb8:	23a02040 	movcs	r2, #64	; 0x40
  201bbc:	e2421001 	sub	r1, r2, #1	; 0x1
  201bc0:	e3710001 	cmn	r1, #1	; 0x1
  201bc4:	e0625005 	rsb	r5, r2, r5
  201bc8:	0a000005 	beq	201be4 <usb_print+0xa0>
  201bcc:	e5982000 	ldr	r2, [r8]
  201bd0:	e2411001 	sub	r1, r1, #1	; 0x1
  201bd4:	e4d48001 	ldrb	r8, [r4], #1
  201bd8:	e3710001 	cmn	r1, #1	; 0x1
  201bdc:	e5828058 	str	r8, [r2, #88]
  201be0:	1afffffa 	bne	201bd0 <usb_print+0x8c>
  201be4:	e59f8180 	ldr	r8, [pc, #384]	; 201d6c <.text+0x1d6c>
  201be8:	e5982000 	ldr	r2, [r8]
  201bec:	e5923038 	ldr	r3, [r2, #56]
  201bf0:	e2133001 	ands	r3, r3, #1	; 0x1
  201bf4:	1a00004c 	bne	201d2c <usb_print+0x1e8>
  201bf8:	e59f6170 	ldr	r6, [pc, #368]	; 201d70 <.text+0x1d70>
  201bfc:	e1a01002 	mov	r1, r2
  201c00:	e1a07003 	mov	r7, r3
  201c04:	ea000010 	b	201c4c <usb_print+0x108>
  201c08:	e3a00a01 	mov	r0, #4096	; 0x1000
  201c0c:	e3e0c000 	mvn	ip, #0	; 0x0
  201c10:	e2403c0f 	sub	r3, r0, #3840	; 0xf00
  201c14:	e3a02902 	mov	r2, #32768	; 0x8000
  201c18:	e5810020 	str	r0, [r1, #32]
  201c1c:	e581c028 	str	ip, [r1, #40]
  201c20:	e5817028 	str	r7, [r1, #40]
  201c24:	e5813008 	str	r3, [r1, #8]
  201c28:	e5812030 	str	r2, [r1, #48]
  201c2c:	e5c67000 	strb	r7, [r6]
  201c30:	e5d61000 	ldrb	r1, [r6]
  201c34:	e3510000 	cmp	r1, #0	; 0x0
  201c38:	089da9f8 	ldmeqia	sp, {r3, r4, r5, r6, r7, r8, fp, sp, pc}
  201c3c:	e5981000 	ldr	r1, [r8]
  201c40:	e5913038 	ldr	r3, [r1, #56]
  201c44:	e3130001 	tst	r3, #1	; 0x1
  201c48:	1a000037 	bne	201d2c <usb_print+0x1e8>
  201c4c:	e591c01c 	ldr	ip, [r1, #28]
  201c50:	e50bc024 	str	ip, [fp, #-36]
  201c54:	e51b0024 	ldr	r0, [fp, #-36]
  201c58:	e3100a01 	tst	r0, #4096	; 0x1000
  201c5c:	1affffe9 	bne	201c08 <usb_print+0xc4>
  201c60:	e51b2024 	ldr	r2, [fp, #-36]
  201c64:	e3120001 	tst	r2, #1	; 0x1
  201c68:	0afffff0 	beq	201c30 <usb_print+0xec>
  201c6c:	e3a0e001 	mov	lr, #1	; 0x1
  201c70:	e581e020 	str	lr, [r1, #32]
  201c74:	ebfffb68 	bl	200a1c <usb_enumerate>
  201c78:	e5d61000 	ldrb	r1, [r6]
  201c7c:	e3510000 	cmp	r1, #0	; 0x0
  201c80:	1affffed 	bne	201c3c <usb_print+0xf8>
  201c84:	e89da9f8 	ldmia	sp, {r3, r4, r5, r6, r7, r8, fp, sp, pc}
  201c88:	e59f40dc 	ldr	r4, [pc, #220]	; 201d6c <.text+0x1d6c>
  201c8c:	e5942000 	ldr	r2, [r4]
  201c90:	e5923038 	ldr	r3, [r2, #56]
  201c94:	e2133001 	ands	r3, r3, #1	; 0x1
  201c98:	1a00002b 	bne	201d4c <usb_print+0x208>
  201c9c:	e59f50cc 	ldr	r5, [pc, #204]	; 201d70 <.text+0x1d70>
  201ca0:	e1a01002 	mov	r1, r2
  201ca4:	e1a06003 	mov	r6, r3
  201ca8:	ea000010 	b	201cf0 <usb_print+0x1ac>
  201cac:	e3a00a01 	mov	r0, #4096	; 0x1000
  201cb0:	e3e02000 	mvn	r2, #0	; 0x0
  201cb4:	e2403c0f 	sub	r3, r0, #3840	; 0xf00
  201cb8:	e3a0c902 	mov	ip, #32768	; 0x8000
  201cbc:	e5810020 	str	r0, [r1, #32]
  201cc0:	e5812028 	str	r2, [r1, #40]
  201cc4:	e5816028 	str	r6, [r1, #40]
  201cc8:	e5813008 	str	r3, [r1, #8]
  201ccc:	e581c030 	str	ip, [r1, #48]
  201cd0:	e5c56000 	strb	r6, [r5]
  201cd4:	e5d51000 	ldrb	r1, [r5]
  201cd8:	e3510000 	cmp	r1, #0	; 0x0
  201cdc:	089da9f8 	ldmeqia	sp, {r3, r4, r5, r6, r7, r8, fp, sp, pc}
  201ce0:	e5941000 	ldr	r1, [r4]
  201ce4:	e5913038 	ldr	r3, [r1, #56]
  201ce8:	e3130001 	tst	r3, #1	; 0x1
  201cec:	1a000016 	bne	201d4c <usb_print+0x208>
  201cf0:	e591001c 	ldr	r0, [r1, #28]
  201cf4:	e50b0024 	str	r0, [fp, #-36]
  201cf8:	e51b2024 	ldr	r2, [fp, #-36]
  201cfc:	e3120a01 	tst	r2, #4096	; 0x1000
  201d00:	1affffe9 	bne	201cac <usb_print+0x168>
  201d04:	e51bc024 	ldr	ip, [fp, #-36]
  201d08:	e31c0001 	tst	ip, #1	; 0x1
  201d0c:	0afffff0 	beq	201cd4 <usb_print+0x190>
  201d10:	e3a0e001 	mov	lr, #1	; 0x1
  201d14:	e581e020 	str	lr, [r1, #32]
  201d18:	ebfffb3f 	bl	200a1c <usb_enumerate>
  201d1c:	e5d51000 	ldrb	r1, [r5]
  201d20:	e3510000 	cmp	r1, #0	; 0x0
  201d24:	1affffed 	bne	201ce0 <usb_print+0x19c>
  201d28:	e89da9f8 	ldmia	sp, {r3, r4, r5, r6, r7, r8, fp, sp, pc}
  201d2c:	e5982000 	ldr	r2, [r8]
  201d30:	e592c038 	ldr	ip, [r2, #56]
  201d34:	e3cc0001 	bic	r0, ip, #1	; 0x1
  201d38:	e5820038 	str	r0, [r2, #56]
  201d3c:	e5921038 	ldr	r1, [r2, #56]
  201d40:	e3110001 	tst	r1, #1	; 0x1
  201d44:	1afffffc 	bne	201d3c <usb_print+0x1f8>
  201d48:	eaffff93 	b	201b9c <usb_print+0x58>
  201d4c:	e5942000 	ldr	r2, [r4]
  201d50:	e592c038 	ldr	ip, [r2, #56]
  201d54:	e3cc0001 	bic	r0, ip, #1	; 0x1
  201d58:	e5820038 	str	r0, [r2, #56]
  201d5c:	e5921038 	ldr	r1, [r2, #56]
  201d60:	e3110001 	tst	r1, #1	; 0x1
  201d64:	1afffffc 	bne	201d5c <usb_print+0x218>
  201d68:	e89da9f8 	ldmia	sp, {r3, r4, r5, r6, r7, r8, fp, sp, pc}
  201d6c:	00204698 	mlaeq	r0, r8, r6, r4
  201d70:	0020469c 	mlaeq	r0, ip, r6, r4

00201d74 <usb_poll>:
  201d74:	e1a0c00d 	mov	ip, sp
  201d78:	e92ddff0 	stmdb	sp!, {r4, r5, r6, r7, r8, r9, sl, fp, ip, lr, pc}
  201d7c:	e24cb004 	sub	fp, ip, #4	; 0x4
  201d80:	e24dd004 	sub	sp, sp, #4	; 0x4
  201d84:	e59f4284 	ldr	r4, [pc, #644]	; 202010 <.text+0x2010>
  201d88:	e5940000 	ldr	r0, [r4]
  201d8c:	e3500000 	cmp	r0, #0	; 0x0
  201d90:	159f727c 	ldrne	r7, [pc, #636]	; 202014 <.text+0x2014>
  201d94:	159f927c 	ldrne	r9, [pc, #636]	; 202018 <.text+0x2018>
  201d98:	1a000015 	bne	201df4 <usb_poll+0x80>
  201d9c:	e59f7270 	ldr	r7, [pc, #624]	; 202014 <.text+0x2014>
  201da0:	e5971000 	ldr	r1, [r7]
  201da4:	e591301c 	ldr	r3, [r1, #28]
  201da8:	e50b302c 	str	r3, [fp, #-44]
  201dac:	e51b202c 	ldr	r2, [fp, #-44]
  201db0:	e3120a01 	tst	r2, #4096	; 0x1000
  201db4:	0a000084 	beq	201fcc <usb_poll+0x258>
  201db8:	e3a03a01 	mov	r3, #4096	; 0x1000
  201dbc:	e3e0c000 	mvn	ip, #0	; 0x0
  201dc0:	e59f9250 	ldr	r9, [pc, #592]	; 202018 <.text+0x2018>
  201dc4:	e5813020 	str	r3, [r1, #32]
  201dc8:	e2432c0f 	sub	r2, r3, #3840	; 0xf00
  201dcc:	e581c028 	str	ip, [r1, #40]
  201dd0:	e3a0c902 	mov	ip, #32768	; 0x8000
  201dd4:	e5810028 	str	r0, [r1, #40]
  201dd8:	e5812008 	str	r2, [r1, #8]
  201ddc:	e581c030 	str	ip, [r1, #48]
  201de0:	e5c90000 	strb	r0, [r9]
  201de4:	e5d91000 	ldrb	r1, [r9]
  201de8:	e3510000 	cmp	r1, #0	; 0x0
  201dec:	13a03001 	movne	r3, #1	; 0x1
  201df0:	15843000 	strne	r3, [r4]
  201df4:	e5970000 	ldr	r0, [r7]
  201df8:	e590301c 	ldr	r3, [r0, #28]
  201dfc:	e50b302c 	str	r3, [fp, #-44]
  201e00:	e51b202c 	ldr	r2, [fp, #-44]
  201e04:	e3120a01 	tst	r2, #4096	; 0x1000
  201e08:	0a000065 	beq	201fa4 <usb_poll+0x230>
  201e0c:	e3a03a01 	mov	r3, #4096	; 0x1000
  201e10:	e3e01000 	mvn	r1, #0	; 0x0
  201e14:	e5803020 	str	r3, [r0, #32]
  201e18:	e3a0c000 	mov	ip, #0	; 0x0
  201e1c:	e5801028 	str	r1, [r0, #40]
  201e20:	e2432c0f 	sub	r2, r3, #3840	; 0xf00
  201e24:	e3a01902 	mov	r1, #32768	; 0x8000
  201e28:	e580c028 	str	ip, [r0, #40]
  201e2c:	e5802008 	str	r2, [r0, #8]
  201e30:	e5801030 	str	r1, [r0, #48]
  201e34:	e5c9c000 	strb	ip, [r9]
  201e38:	e5d90000 	ldrb	r0, [r9]
  201e3c:	e3500000 	cmp	r0, #0	; 0x0
  201e40:	089daff8 	ldmeqia	sp, {r3, r4, r5, r6, r7, r8, r9, sl, fp, sp, pc}
  201e44:	e59f61d0 	ldr	r6, [pc, #464]	; 20201c <.text+0x201c>
  201e48:	e3a04000 	mov	r4, #0	; 0x0
  201e4c:	e59f81cc 	ldr	r8, [pc, #460]	; 202020 <.text+0x2020>
  201e50:	e5965000 	ldr	r5, [r6]
  201e54:	e1a0a004 	mov	sl, r4
  201e58:	e3a06c02 	mov	r6, #512	; 0x200
  201e5c:	e5971000 	ldr	r1, [r7]
  201e60:	e591301c 	ldr	r3, [r1, #28]
  201e64:	e50b302c 	str	r3, [fp, #-44]
  201e68:	e51b202c 	ldr	r2, [fp, #-44]
  201e6c:	e3120a01 	tst	r2, #4096	; 0x1000
  201e70:	0a000044 	beq	201f88 <usb_poll+0x214>
  201e74:	e3a03a01 	mov	r3, #4096	; 0x1000
  201e78:	e3e02000 	mvn	r2, #0	; 0x0
  201e7c:	e2430c0f 	sub	r0, r3, #3840	; 0xf00
  201e80:	e3a0c902 	mov	ip, #32768	; 0x8000
  201e84:	e5813020 	str	r3, [r1, #32]
  201e88:	e5812028 	str	r2, [r1, #40]
  201e8c:	e581a028 	str	sl, [r1, #40]
  201e90:	e5810008 	str	r0, [r1, #8]
  201e94:	e581c030 	str	ip, [r1, #48]
  201e98:	e5c9a000 	strb	sl, [r9]
  201e9c:	e5d91000 	ldrb	r1, [r9]
  201ea0:	e3510000 	cmp	r1, #0	; 0x0
  201ea4:	0a00001e 	beq	201f24 <usb_poll+0x1b0>
  201ea8:	e5972000 	ldr	r2, [r7]
  201eac:	e5920034 	ldr	r0, [r2, #52]
  201eb0:	e1100005 	tst	r0, r5
  201eb4:	0a000018 	beq	201f1c <usb_poll+0x1a8>
  201eb8:	e5923034 	ldr	r3, [r2, #52]
  201ebc:	e1560823 	cmp	r6, r3, lsr #16
  201ec0:	85923034 	ldrhi	r3, [r2, #52]
  201ec4:	91a03006 	movls	r3, r6
  201ec8:	81a03823 	movhi	r3, r3, lsr #16
  201ecc:	e353003f 	cmp	r3, #63	; 0x3f
  201ed0:	e2431001 	sub	r1, r3, #1	; 0x1
  201ed4:	80636006 	rsbhi	r6, r3, r6
  201ed8:	93a06000 	movls	r6, #0	; 0x0
  201edc:	e3710001 	cmn	r1, #1	; 0x1
  201ee0:	0a000006 	beq	201f00 <usb_poll+0x18c>
  201ee4:	e597c000 	ldr	ip, [r7]
  201ee8:	e59c2054 	ldr	r2, [ip, #84]
  201eec:	e2411001 	sub	r1, r1, #1	; 0x1
  201ef0:	e7c42008 	strb	r2, [r4, r8]
  201ef4:	e3710001 	cmn	r1, #1	; 0x1
  201ef8:	e2844001 	add	r4, r4, #1	; 0x1
  201efc:	1afffff8 	bne	201ee4 <usb_poll+0x170>
  201f00:	e5971000 	ldr	r1, [r7]
  201f04:	e5913034 	ldr	r3, [r1, #52]
  201f08:	e1c30005 	bic	r0, r3, r5
  201f0c:	e3550002 	cmp	r5, #2	; 0x2
  201f10:	e5810034 	str	r0, [r1, #52]
  201f14:	13a05002 	movne	r5, #2	; 0x2
  201f18:	03a05040 	moveq	r5, #64	; 0x40
  201f1c:	e3560000 	cmp	r6, #0	; 0x0
  201f20:	1affffcd 	bne	201e5c <usb_poll+0xe8>
  201f24:	e5970000 	ldr	r0, [r7]
  201f28:	e590101c 	ldr	r1, [r0, #28]
  201f2c:	e50b102c 	str	r1, [fp, #-44]
  201f30:	e51bc02c 	ldr	ip, [fp, #-44]
  201f34:	e59f20e0 	ldr	r2, [pc, #224]	; 20201c <.text+0x201c>
  201f38:	e31c0a01 	tst	ip, #4096	; 0x1000
  201f3c:	e5825000 	str	r5, [r2]
  201f40:	0a000026 	beq	201fe0 <usb_poll+0x26c>
  201f44:	e3a01a01 	mov	r1, #4096	; 0x1000
  201f48:	e3e03000 	mvn	r3, #0	; 0x0
  201f4c:	e5801020 	str	r1, [r0, #32]
  201f50:	e3a0c000 	mov	ip, #0	; 0x0
  201f54:	e5803028 	str	r3, [r0, #40]
  201f58:	e2412c0f 	sub	r2, r1, #3840	; 0xf00
  201f5c:	e3a03902 	mov	r3, #32768	; 0x8000
  201f60:	e580c028 	str	ip, [r0, #40]
  201f64:	e5802008 	str	r2, [r0, #8]
  201f68:	e5803030 	str	r3, [r0, #48]
  201f6c:	e5c9c000 	strb	ip, [r9]
  201f70:	e5d90000 	ldrb	r0, [r9]
  201f74:	e3500000 	cmp	r0, #0	; 0x0
  201f78:	089daff8 	ldmeqia	sp, {r3, r4, r5, r6, r7, r8, r9, sl, fp, sp, pc}
  201f7c:	e59f009c 	ldr	r0, [pc, #156]	; 202020 <.text+0x2020>
  201f80:	eb00002c 	bl	202038 <samba>
  201f84:	e89daff8 	ldmia	sp, {r3, r4, r5, r6, r7, r8, r9, sl, fp, sp, pc}
  201f88:	e51bc02c 	ldr	ip, [fp, #-44]
  201f8c:	e31c0001 	tst	ip, #1	; 0x1
  201f90:	0affffc1 	beq	201e9c <usb_poll+0x128>
  201f94:	e3a0e001 	mov	lr, #1	; 0x1
  201f98:	e581e020 	str	lr, [r1, #32]
  201f9c:	ebfffa9e 	bl	200a1c <usb_enumerate>
  201fa0:	eaffffbd 	b	201e9c <usb_poll+0x128>
  201fa4:	e51bc02c 	ldr	ip, [fp, #-44]
  201fa8:	e31c0001 	tst	ip, #1	; 0x1
  201fac:	0affffa1 	beq	201e38 <usb_poll+0xc4>
  201fb0:	e3a0e001 	mov	lr, #1	; 0x1
  201fb4:	e580e020 	str	lr, [r0, #32]
  201fb8:	ebfffa97 	bl	200a1c <usb_enumerate>
  201fbc:	e5d90000 	ldrb	r0, [r9]
  201fc0:	e3500000 	cmp	r0, #0	; 0x0
  201fc4:	089daff8 	ldmeqia	sp, {r3, r4, r5, r6, r7, r8, r9, sl, fp, sp, pc}
  201fc8:	eaffff9d 	b	201e44 <usb_poll+0xd0>
  201fcc:	e51b002c 	ldr	r0, [fp, #-44]
  201fd0:	e3100001 	tst	r0, #1	; 0x1
  201fd4:	1a000008 	bne	201ffc <usb_poll+0x288>
  201fd8:	e59f9038 	ldr	r9, [pc, #56]	; 202018 <.text+0x2018>
  201fdc:	eaffff80 	b	201de4 <usb_poll+0x70>
  201fe0:	e51bc02c 	ldr	ip, [fp, #-44]
  201fe4:	e31c0001 	tst	ip, #1	; 0x1
  201fe8:	0affffe0 	beq	201f70 <usb_poll+0x1fc>
  201fec:	e3a0e001 	mov	lr, #1	; 0x1
  201ff0:	e580e020 	str	lr, [r0, #32]
  201ff4:	ebfffa88 	bl	200a1c <usb_enumerate>
  201ff8:	eaffffdc 	b	201f70 <usb_poll+0x1fc>
  201ffc:	e3a09001 	mov	r9, #1	; 0x1
  202000:	e5819020 	str	r9, [r1, #32]
  202004:	ebfffa84 	bl	200a1c <usb_enumerate>
  202008:	e59f9008 	ldr	r9, [pc, #8]	; 202018 <.text+0x2018>
  20200c:	eaffff74 	b	201de4 <usb_poll+0x70>
  202010:	002048a4 	eoreq	r4, r0, r4, lsr #17
  202014:	00204698 	mlaeq	r0, r8, r6, r4
  202018:	0020469c 	mlaeq	r0, ip, r6, r4
  20201c:	002046a0 	eoreq	r4, r0, r0, lsr #13
  202020:	002046a4 	eoreq	r4, r0, r4, lsr #13

00202024 <samba_setup>:
  202024:	e59f3008 	ldr	r3, [pc, #8]	; 202034 <.text+0x2034>
  202028:	e3a02001 	mov	r2, #1	; 0x1
  20202c:	e5832000 	str	r2, [r3]
  202030:	e1a0f00e 	mov	pc, lr
  202034:	00204590 	mlaeq	r0, r0, r5, r4

00202038 <samba>:
  202038:	e1a0c00d 	mov	ip, sp
  20203c:	e92dddf0 	stmdb	sp!, {r4, r5, r6, r7, r8, sl, fp, ip, lr, pc}
  202040:	e24cb004 	sub	fp, ip, #4	; 0x4
  202044:	e24dd020 	sub	sp, sp, #32	; 0x20
  202048:	e1a04000 	mov	r4, r0
  20204c:	e24b1040 	sub	r1, fp, #64	; 0x40
  202050:	e24b2044 	sub	r2, fp, #68	; 0x44
  202054:	e2800001 	add	r0, r0, #1	; 0x1
  202058:	e59fa348 	ldr	sl, [pc, #840]	; 2023a8 <.text+0x23a8>
  20205c:	e59f6348 	ldr	r6, [pc, #840]	; 2023ac <.text+0x23ac>
  202060:	eb000869 	bl	20420c <parse_two_comma_separated_hex>
  202064:	e3a01000 	mov	r1, #0	; 0x0
  202068:	e5861000 	str	r1, [r6]
  20206c:	e5ca1000 	strb	r1, [sl]
  202070:	e59f5338 	ldr	r5, [pc, #824]	; 2023b0 <.text+0x23b0>
  202074:	e5d40000 	ldrb	r0, [r4]
  202078:	e5952000 	ldr	r2, [r5]
  20207c:	e2403047 	sub	r3, r0, #71	; 0x47
  202080:	e2524000 	subs	r4, r2, #0	; 0x0
  202084:	13a04001 	movne	r4, #1	; 0x1
  202088:	e3530030 	cmp	r3, #48	; 0x30
  20208c:	979ff103 	ldrls	pc, [pc, r3, lsl #2]
  202090:	ea000040 	b	202198 <.text+0x2198>
  202094:	00202208 	eoreq	r2, r0, r8, lsl #4
  202098:	00202214 	eoreq	r2, r0, r4, lsl r2
  20209c:	00202198 	mlaeq	r0, r8, r1, r2
  2020a0:	00202198 	mlaeq	r0, r8, r1, r2
  2020a4:	00202198 	mlaeq	r0, r8, r1, r2
  2020a8:	00202198 	mlaeq	r0, r8, r1, r2
  2020ac:	00202198 	mlaeq	r0, r8, r1, r2
  2020b0:	00202224 	eoreq	r2, r0, r4, lsr #4
  2020b4:	00202240 	eoreq	r2, r0, r0, asr #4
  2020b8:	00202198 	mlaeq	r0, r8, r1, r2
  2020bc:	00202198 	mlaeq	r0, r8, r1, r2
  2020c0:	00202250 	eoreq	r2, r0, r0, asr r2
  2020c4:	00202288 	eoreq	r2, r0, r8, lsl #5
  2020c8:	002022a4 	eoreq	r2, r0, r4, lsr #5
  2020cc:	00202198 	mlaeq	r0, r8, r1, r2
  2020d0:	00202300 	eoreq	r2, r0, r0, lsl #6
  2020d4:	0020231c 	eoreq	r2, r0, ip, lsl r3
  2020d8:	00202198 	mlaeq	r0, r8, r1, r2
  2020dc:	00202198 	mlaeq	r0, r8, r1, r2
  2020e0:	00202198 	mlaeq	r0, r8, r1, r2
  2020e4:	00202198 	mlaeq	r0, r8, r1, r2
  2020e8:	00202198 	mlaeq	r0, r8, r1, r2
  2020ec:	00202198 	mlaeq	r0, r8, r1, r2
  2020f0:	00202198 	mlaeq	r0, r8, r1, r2
  2020f4:	00202198 	mlaeq	r0, r8, r1, r2
  2020f8:	00202198 	mlaeq	r0, r8, r1, r2
  2020fc:	00202198 	mlaeq	r0, r8, r1, r2
  202100:	00202198 	mlaeq	r0, r8, r1, r2
  202104:	00202198 	mlaeq	r0, r8, r1, r2
  202108:	00202198 	mlaeq	r0, r8, r1, r2
  20210c:	00202198 	mlaeq	r0, r8, r1, r2
  202110:	00202198 	mlaeq	r0, r8, r1, r2
  202114:	00202198 	mlaeq	r0, r8, r1, r2
  202118:	002022c4 	eoreq	r2, r0, r4, asr #5
  20211c:	00202198 	mlaeq	r0, r8, r1, r2
  202120:	00202198 	mlaeq	r0, r8, r1, r2
  202124:	00202198 	mlaeq	r0, r8, r1, r2
  202128:	00202198 	mlaeq	r0, r8, r1, r2
  20212c:	00202198 	mlaeq	r0, r8, r1, r2
  202130:	00202198 	mlaeq	r0, r8, r1, r2
  202134:	00202158 	eoreq	r2, r0, r8, asr r1
  202138:	00202198 	mlaeq	r0, r8, r1, r2
  20213c:	00202198 	mlaeq	r0, r8, r1, r2
  202140:	00202198 	mlaeq	r0, r8, r1, r2
  202144:	00202198 	mlaeq	r0, r8, r1, r2
  202148:	00202198 	mlaeq	r0, r8, r1, r2
  20214c:	00202198 	mlaeq	r0, r8, r1, r2
  202150:	00202198 	mlaeq	r0, r8, r1, r2
  202154:	002021d8 	ldreqd	r2, [r0], -r8
  202158:	e3a01000 	mov	r1, #0	; 0x0
  20215c:	e51b0040 	ldr	r0, [fp, #-64]
  202160:	e595c000 	ldr	ip, [r5]
  202164:	e54b103c 	strb	r1, [fp, #-60]
  202168:	e15c0001 	cmp	ip, r1
  20216c:	e5d01000 	ldrb	r1, [r0]
  202170:	03a02001 	moveq	r2, #1	; 0x1
  202174:	01a03001 	moveq	r3, r1
  202178:	059f0228 	ldreq	r0, [pc, #552]	; 2023a8 <.text+0x23a8>
  20217c:	05961000 	ldreq	r1, [r6]
  202180:	0a000070 	beq	202348 <.text+0x2348>
  202184:	e24b003c 	sub	r0, fp, #60	; 0x3c
  202188:	eb0006ac 	bl	203c40 <cat_hex>
  20218c:	e24b1036 	sub	r1, fp, #54	; 0x36
  202190:	e59f0210 	ldr	r0, [pc, #528]	; 2023a8 <.text+0x23a8>
  202194:	eb00069b 	bl	203c08 <cat_str>
  202198:	e5950000 	ldr	r0, [r5]
  20219c:	e3500000 	cmp	r0, #0	; 0x0
  2021a0:	0a000006 	beq	2021c0 <.text+0x21c0>
  2021a4:	e3540000 	cmp	r4, #0	; 0x0
  2021a8:	1a000062 	bne	202338 <.text+0x2338>
  2021ac:	e5da2000 	ldrb	r2, [sl]
  2021b0:	e3520000 	cmp	r2, #0	; 0x0
  2021b4:	1a00005c 	bne	20232c <.text+0x232c>
  2021b8:	e24bd024 	sub	sp, fp, #36	; 0x24
  2021bc:	e89dadf0 	ldmia	sp, {r4, r5, r6, r7, r8, sl, fp, sp, pc}
  2021c0:	e5961000 	ldr	r1, [r6]
  2021c4:	e3510000 	cmp	r1, #0	; 0x0
  2021c8:	dafffffa 	ble	2021b8 <.text+0x21b8>
  2021cc:	e59f01d4 	ldr	r0, [pc, #468]	; 2023a8 <.text+0x23a8>
  2021d0:	ebfffd84 	bl	2017e8 <usb_write>
  2021d4:	eafffff7 	b	2021b8 <.text+0x21b8>
  2021d8:	e51bc040 	ldr	ip, [fp, #-64]
  2021dc:	e595e000 	ldr	lr, [r5]
  2021e0:	e59c1000 	ldr	r1, [ip]
  2021e4:	e35e0000 	cmp	lr, #0	; 0x0
  2021e8:	01a03001 	moveq	r3, r1
  2021ec:	059f01b4 	ldreq	r0, [pc, #436]	; 2023a8 <.text+0x23a8>
  2021f0:	05961000 	ldreq	r1, [r6]
  2021f4:	03a02004 	moveq	r2, #4	; 0x4
  2021f8:	0a000052 	beq	202348 <.text+0x2348>
  2021fc:	e59f01a4 	ldr	r0, [pc, #420]	; 2023a8 <.text+0x23a8>
  202200:	eb00068e 	bl	203c40 <cat_hex>
  202204:	eaffffe3 	b	202198 <.text+0x2198>
  202208:	e1a0e00f 	mov	lr, pc
  20220c:	e51bf040 	ldr	pc, [fp, #-64]
  202210:	eaffffe0 	b	202198 <.text+0x2198>
  202214:	e51b3040 	ldr	r3, [fp, #-64]
  202218:	e15b24b4 	ldrh	r2, [fp, #-68]
  20221c:	e1c320b0 	strh	r2, [r3]
  202220:	eaffffdc 	b	202198 <.text+0x2198>
  202224:	e5951000 	ldr	r1, [r5]
  202228:	e3510000 	cmp	r1, #0	; 0x0
  20222c:	1a000056 	bne	20238c <.text+0x238c>
  202230:	e59f3178 	ldr	r3, [pc, #376]	; 2023b0 <.text+0x23b0>
  202234:	e3a02000 	mov	r2, #0	; 0x0
  202238:	e5832000 	str	r2, [r3]
  20223c:	eaffffd5 	b	202198 <.text+0x2198>
  202240:	e24b2044 	sub	r2, fp, #68	; 0x44
  202244:	e892000c 	ldmia	r2, {r2, r3}
  202248:	e5c32000 	strb	r2, [r3]
  20224c:	eaffffd1 	b	202198 <.text+0x2198>
  202250:	e5957000 	ldr	r7, [r5]
  202254:	e3570000 	cmp	r7, #0	; 0x0
  202258:	e51b8044 	ldr	r8, [fp, #-68]
  20225c:	e51b7040 	ldr	r7, [fp, #-64]
  202260:	0a00003b 	beq	202354 <.text+0x2354>
  202264:	e59f0148 	ldr	r0, [pc, #328]	; 2023b4 <.text+0x23b4>
  202268:	ebfffe35 	bl	201b44 <usb_print>
  20226c:	e1a01008 	mov	r1, r8
  202270:	e1a00007 	mov	r0, r7
  202274:	ebfffd5b 	bl	2017e8 <usb_write>
  202278:	e59f0138 	ldr	r0, [pc, #312]	; 2023b8 <.text+0x23b8>
  20227c:	ebfffe30 	bl	201b44 <usb_print>
  202280:	e3a04000 	mov	r4, #0	; 0x0
  202284:	eaffffc3 	b	202198 <.text+0x2198>
  202288:	e51b2040 	ldr	r2, [fp, #-64]
  20228c:	e59f0128 	ldr	r0, [pc, #296]	; 2023bc <.text+0x23bc>
  202290:	e51b3044 	ldr	r3, [fp, #-68]
  202294:	e59fc124 	ldr	ip, [pc, #292]	; 2023c0 <.text+0x23c0>
  202298:	e5802000 	str	r2, [r0]
  20229c:	e58c3000 	str	r3, [ip]
  2022a0:	eaffffbc 	b	202198 <.text+0x2198>
  2022a4:	e5954000 	ldr	r4, [r5]
  2022a8:	e3540000 	cmp	r4, #0	; 0x0
  2022ac:	1a00002f 	bne	202370 <.text+0x2370>
  2022b0:	e3a0c001 	mov	ip, #1	; 0x1
  2022b4:	e59f30f4 	ldr	r3, [pc, #244]	; 2023b0 <.text+0x23b0>
  2022b8:	e1a0400c 	mov	r4, ip
  2022bc:	e583c000 	str	ip, [r3]
  2022c0:	eaffffb4 	b	202198 <.text+0x2198>
  2022c4:	e3a00000 	mov	r0, #0	; 0x0
  2022c8:	e5951000 	ldr	r1, [r5]
  2022cc:	e54b003c 	strb	r0, [fp, #-60]
  2022d0:	e51be040 	ldr	lr, [fp, #-64]
  2022d4:	e1510000 	cmp	r1, r0
  2022d8:	e1de10b0 	ldrh	r1, [lr]
  2022dc:	059f00c4 	ldreq	r0, [pc, #196]	; 2023a8 <.text+0x23a8>
  2022e0:	01a03001 	moveq	r3, r1
  2022e4:	03a02002 	moveq	r2, #2	; 0x2
  2022e8:	05961000 	ldreq	r1, [r6]
  2022ec:	0a000015 	beq	202348 <.text+0x2348>
  2022f0:	e24b003c 	sub	r0, fp, #60	; 0x3c
  2022f4:	eb000651 	bl	203c40 <cat_hex>
  2022f8:	e24b1038 	sub	r1, fp, #56	; 0x38
  2022fc:	eaffffa3 	b	202190 <.text+0x2190>
  202300:	e59f10bc 	ldr	r1, [pc, #188]	; 2023c4 <.text+0x23c4>
  202304:	e59f009c 	ldr	r0, [pc, #156]	; 2023a8 <.text+0x23a8>
  202308:	eb00063e 	bl	203c08 <cat_str>
  20230c:	e59f0094 	ldr	r0, [pc, #148]	; 2023a8 <.text+0x23a8>
  202310:	eb000599 	bl	20397c <strlen>
  202314:	e5860000 	str	r0, [r6]
  202318:	eaffff9e 	b	202198 <.text+0x2198>
  20231c:	e24b2044 	sub	r2, fp, #68	; 0x44
  202320:	e892000c 	ldmia	r2, {r2, r3}
  202324:	e5832000 	str	r2, [r3]
  202328:	eaffff9a 	b	202198 <.text+0x2198>
  20232c:	e59f0074 	ldr	r0, [pc, #116]	; 2023a8 <.text+0x23a8>
  202330:	ebfffe03 	bl	201b44 <usb_print>
  202334:	eaffff9f 	b	2021b8 <.text+0x21b8>
  202338:	e59f1088 	ldr	r1, [pc, #136]	; 2023c8 <.text+0x23c8>
  20233c:	e59f0064 	ldr	r0, [pc, #100]	; 2023a8 <.text+0x23a8>
  202340:	eb000630 	bl	203c08 <cat_str>
  202344:	eaffff98 	b	2021ac <.text+0x21ac>
  202348:	eb000604 	bl	203b60 <out_raw>
  20234c:	e5860000 	str	r0, [r6]
  202350:	eaffff90 	b	202198 <.text+0x2198>
  202354:	e1a02007 	mov	r2, r7
  202358:	e1a03008 	mov	r3, r8
  20235c:	e59f0044 	ldr	r0, [pc, #68]	; 2023a8 <.text+0x23a8>
  202360:	e5961000 	ldr	r1, [r6]
  202364:	eb0005f1 	bl	203b30 <out_raw_ptr>
  202368:	e5860000 	str	r0, [r6]
  20236c:	eaffff89 	b	202198 <.text+0x2198>
  202370:	e59f103c 	ldr	r1, [pc, #60]	; 2023b4 <.text+0x23b4>
  202374:	e59f002c 	ldr	r0, [pc, #44]	; 2023a8 <.text+0x23a8>
  202378:	eb000622 	bl	203c08 <cat_str>
  20237c:	e59f0024 	ldr	r0, [pc, #36]	; 2023a8 <.text+0x23a8>
  202380:	eb00057d 	bl	20397c <strlen>
  202384:	e5860000 	str	r0, [r6]
  202388:	eaffffc8 	b	2022b0 <.text+0x22b0>
  20238c:	e59f1020 	ldr	r1, [pc, #32]	; 2023b4 <.text+0x23b4>
  202390:	e59f0010 	ldr	r0, [pc, #16]	; 2023a8 <.text+0x23a8>
  202394:	eb00061b 	bl	203c08 <cat_str>
  202398:	e59f0008 	ldr	r0, [pc, #8]	; 2023a8 <.text+0x23a8>
  20239c:	eb000576 	bl	20397c <strlen>
  2023a0:	e5860000 	str	r0, [r6]
  2023a4:	eaffffa1 	b	202230 <.text+0x2230>
  2023a8:	002048a8 	eoreq	r4, r0, r8, lsr #17
  2023ac:	00204ab0 	streqh	r4, [r0], -r0
  2023b0:	00204590 	mlaeq	r0, r0, r5, r4
  2023b4:	002044a8 	eoreq	r4, r0, r8, lsr #9
  2023b8:	002044ac 	eoreq	r4, r0, ip, lsr #9
  2023bc:	00204aac 	eoreq	r4, r0, ip, lsr #21
  2023c0:	00204ab4 	streqh	r4, [r0], -r4
  2023c4:	002044b0 	streqh	r4, [r0], -r0
  2023c8:	002044bc 	streqh	r4, [r0], -ip

002023cc <nvm_init>:
  2023cc:	e1a0f00e 	mov	pc, lr

002023d0 <flash_setup>:
  2023d0:	e1a0f00e 	mov	pc, lr

002023d4 <flash_init>:
  2023d4:	e3a00712 	mov	r0, #4718592	; 0x480000
  2023d8:	e2803c01 	add	r3, r0, #256	; 0x100
  2023dc:	e3e020ff 	mvn	r2, #255	; 0xff
  2023e0:	e5823060 	str	r3, [r2, #96]
  2023e4:	e1a0f00e 	mov	pc, lr

002023e8 <flash_ready>:
  2023e8:	e3e030ff 	mvn	r3, #255	; 0xff
  2023ec:	e5930068 	ldr	r0, [r3, #104]
  2023f0:	e3100001 	tst	r0, #1	; 0x1
  2023f4:	0afffffc 	beq	2023ec <flash_ready+0x4>
  2023f8:	e1a0f00e 	mov	pc, lr

002023fc <flash_lock_status>:
  2023fc:	e3e030ff 	mvn	r3, #255	; 0xff
  202400:	e5931068 	ldr	r1, [r3, #104]
  202404:	e1a00821 	mov	r0, r1, lsr #16
  202408:	e1a00800 	mov	r0, r0, lsl #16
  20240c:	e1a0f00e 	mov	pc, lr

00202410 <flash_lock>:
  202410:	e1a0c00d 	mov	ip, sp
  202414:	e92dd810 	stmdb	sp!, {r4, fp, ip, lr, pc}
  202418:	e1a04000 	mov	r4, r0
  20241c:	e24cb004 	sub	fp, ip, #4	; 0x4
  202420:	ebfff779 	bl	20020c <disable_interrupts>
  202424:	e1a0e404 	mov	lr, r4, lsl #8
  202428:	e3cec4ff 	bic	ip, lr, #-16777216	; 0xff000000
  20242c:	e3cc273f 	bic	r2, ip, #16515072	; 0xfc0000
  202430:	e3c210ff 	bic	r1, r2, #255	; 0xff
  202434:	e381045a 	orr	r0, r1, #1509949440	; 0x5a000000
  202438:	e3804002 	orr	r4, r0, #2	; 0x2
  20243c:	e3e030ff 	mvn	r3, #255	; 0xff
  202440:	e5834064 	str	r4, [r3, #100]
  202444:	e1a04003 	mov	r4, r3
  202448:	e5943068 	ldr	r3, [r4, #104]
  20244c:	e3130001 	tst	r3, #1	; 0x1
  202450:	0afffffc 	beq	202448 <flash_lock+0x38>
  202454:	ebfff76d 	bl	200210 <enable_interrupts>
  202458:	e5941068 	ldr	r1, [r4, #104]
  20245c:	e1a00821 	mov	r0, r1, lsr #16
  202460:	e1a00800 	mov	r0, r0, lsl #16
  202464:	e89da810 	ldmia	sp, {r4, fp, sp, pc}

00202468 <flash_unlock>:
  202468:	e1a0c00d 	mov	ip, sp
  20246c:	e92dd810 	stmdb	sp!, {r4, fp, ip, lr, pc}
  202470:	e1a04000 	mov	r4, r0
  202474:	e24cb004 	sub	fp, ip, #4	; 0x4
  202478:	ebfff763 	bl	20020c <disable_interrupts>
  20247c:	e1a0e404 	mov	lr, r4, lsl #8
  202480:	e3cec4ff 	bic	ip, lr, #-16777216	; 0xff000000
  202484:	e3cc273f 	bic	r2, ip, #16515072	; 0xfc0000
  202488:	e3c210ff 	bic	r1, r2, #255	; 0xff
  20248c:	e381045a 	orr	r0, r1, #1509949440	; 0x5a000000
  202490:	e3804004 	orr	r4, r0, #4	; 0x4
  202494:	e3e030ff 	mvn	r3, #255	; 0xff
  202498:	e5834064 	str	r4, [r3, #100]
  20249c:	e1a04003 	mov	r4, r3
  2024a0:	e5943068 	ldr	r3, [r4, #104]
  2024a4:	e3130001 	tst	r3, #1	; 0x1
  2024a8:	0afffffc 	beq	2024a0 <flash_unlock+0x38>
  2024ac:	ebfff757 	bl	200210 <enable_interrupts>
  2024b0:	e5941068 	ldr	r1, [r4, #104]
  2024b4:	e1a00821 	mov	r0, r1, lsr #16
  2024b8:	e1a00800 	mov	r0, r0, lsl #16
  2024bc:	e89da810 	ldmia	sp, {r4, fp, sp, pc}

002024c0 <flash_erase_all>:
  2024c0:	e1a0c00d 	mov	ip, sp
  2024c4:	e3a02712 	mov	r2, #4718592	; 0x480000
  2024c8:	e92dd810 	stmdb	sp!, {r4, fp, ip, lr, pc}
  2024cc:	e2821c01 	add	r1, r2, #256	; 0x100
  2024d0:	e3e040ff 	mvn	r4, #255	; 0xff
  2024d4:	e24cb004 	sub	fp, ip, #4	; 0x4
  2024d8:	e5841060 	str	r1, [r4, #96]
  2024dc:	ebfff74a 	bl	20020c <disable_interrupts>
  2024e0:	e3a0045a 	mov	r0, #1509949440	; 0x5a000000
  2024e4:	e2803008 	add	r3, r0, #8	; 0x8
  2024e8:	e5843064 	str	r3, [r4, #100]
  2024ec:	e1a02004 	mov	r2, r4
  2024f0:	e592c068 	ldr	ip, [r2, #104]
  2024f4:	e31c0001 	tst	ip, #1	; 0x1
  2024f8:	0afffffc 	beq	2024f0 <flash_erase_all+0x30>
  2024fc:	ebfff743 	bl	200210 <enable_interrupts>
  202500:	e5943068 	ldr	r3, [r4, #104]
  202504:	e313000c 	tst	r3, #12	; 0xc
  202508:	13a00000 	movne	r0, #0	; 0x0
  20250c:	03a00001 	moveq	r0, #1	; 0x1
  202510:	e89da810 	ldmia	sp, {r4, fp, sp, pc}

00202514 <flash_write>:
  202514:	e1a0c00d 	mov	ip, sp
  202518:	e92dd830 	stmdb	sp!, {r4, r5, fp, ip, lr, pc}
  20251c:	e3a04712 	mov	r4, #4718592	; 0x480000
  202520:	e2843c01 	add	r3, r4, #256	; 0x100
  202524:	e24cb004 	sub	fp, ip, #4	; 0x4
  202528:	e3510000 	cmp	r1, #0	; 0x0
  20252c:	e1a0c001 	mov	ip, r1
  202530:	e3e050ff 	mvn	r5, #255	; 0xff
  202534:	e2401601 	sub	r1, r0, #1048576	; 0x100000
  202538:	e1a04421 	mov	r4, r1, lsr #8
  20253c:	e5853060 	str	r3, [r5, #96]
  202540:	e1a0e002 	mov	lr, r2
  202544:	e3a01000 	mov	r1, #0	; 0x0
  202548:	da00000a 	ble	202578 <flash_write+0x64>
  20254c:	e24cc004 	sub	ip, ip, #4	; 0x4
  202550:	e2811001 	add	r1, r1, #1	; 0x1
  202554:	e35100ff 	cmp	r1, #255	; 0xff
  202558:	83a03000 	movhi	r3, #0	; 0x0
  20255c:	93a03001 	movls	r3, #1	; 0x1
  202560:	e35c0000 	cmp	ip, #0	; 0x0
  202564:	d3a03000 	movle	r3, #0	; 0x0
  202568:	e49e2004 	ldr	r2, [lr], #4
  20256c:	e3530000 	cmp	r3, #0	; 0x0
  202570:	e4802004 	str	r2, [r0], #4
  202574:	1afffff4 	bne	20254c <flash_write+0x38>
  202578:	ebfff723 	bl	20020c <disable_interrupts>
  20257c:	e1a02404 	mov	r2, r4, lsl #8
  202580:	e3c244ff 	bic	r4, r2, #-16777216	; 0xff000000
  202584:	e3c4173f 	bic	r1, r4, #16515072	; 0xfc0000
  202588:	e3c1e0ff 	bic	lr, r1, #255	; 0xff
  20258c:	e38ec45a 	orr	ip, lr, #1509949440	; 0x5a000000
  202590:	e38c0001 	orr	r0, ip, #1	; 0x1
  202594:	e5850064 	str	r0, [r5, #100]
  202598:	e3e030ff 	mvn	r3, #255	; 0xff
  20259c:	e5934068 	ldr	r4, [r3, #104]
  2025a0:	e3140001 	tst	r4, #1	; 0x1
  2025a4:	0afffffc 	beq	20259c <flash_write+0x88>
  2025a8:	ebfff718 	bl	200210 <enable_interrupts>
  2025ac:	e314000c 	tst	r4, #12	; 0xc
  2025b0:	13a00000 	movne	r0, #0	; 0x0
  2025b4:	03a00001 	moveq	r0, #1	; 0x1
  2025b8:	e89da830 	ldmia	sp, {r4, r5, fp, sp, pc}

002025bc <flash_read>:
  2025bc:	e3510000 	cmp	r1, #0	; 0x0
  2025c0:	91a0f00e 	movls	pc, lr
  2025c4:	e4903004 	ldr	r3, [r0], #4
  2025c8:	e2511001 	subs	r1, r1, #1	; 0x1
  2025cc:	e4823004 	str	r3, [r2], #4
  2025d0:	1afffffb 	bne	2025c4 <flash_read+0x8>
  2025d4:	e1a0f00e 	mov	pc, lr

002025d8 <flash_blank_check>:
  2025d8:	e1a01121 	mov	r1, r1, lsr #2
  2025dc:	e3510000 	cmp	r1, #0	; 0x0
  2025e0:	e3a02000 	mov	r2, #0	; 0x0
  2025e4:	9a000005 	bls	202600 <flash_blank_check+0x28>
  2025e8:	e7903102 	ldr	r3, [r0, r2, lsl #2]
  2025ec:	e3730001 	cmn	r3, #1	; 0x1
  2025f0:	e2822001 	add	r2, r2, #1	; 0x1
  2025f4:	1a000003 	bne	202608 <flash_blank_check+0x30>
  2025f8:	e1510002 	cmp	r1, r2
  2025fc:	8afffff9 	bhi	2025e8 <flash_blank_check+0x10>
  202600:	e3a00001 	mov	r0, #1	; 0x1
  202604:	e1a0f00e 	mov	pc, lr
  202608:	e3a00000 	mov	r0, #0	; 0x0
  20260c:	e1a0f00e 	mov	pc, lr

00202610 <flash_write_all>:
  202610:	e1a0c00d 	mov	ip, sp
  202614:	e3510000 	cmp	r1, #0	; 0x0
  202618:	e92ddff0 	stmdb	sp!, {r4, r5, r6, r7, r8, r9, sl, fp, ip, lr, pc}
  20261c:	e1a08000 	mov	r8, r0
  202620:	e24cb004 	sub	fp, ip, #4	; 0x4
  202624:	e1a07001 	mov	r7, r1
  202628:	e1a09002 	mov	r9, r2
  20262c:	e3a00001 	mov	r0, #1	; 0x1
  202630:	d89daff0 	ldmleia	sp, {r4, r5, r6, r7, r8, r9, sl, fp, sp, pc}
  202634:	e248a601 	sub	sl, r8, #1048576	; 0x100000
  202638:	e1a0442a 	mov	r4, sl, lsr #8
  20263c:	e1a06404 	mov	r6, r4, lsl #8
  202640:	e3c654ff 	bic	r5, r6, #-16777216	; 0xff000000
  202644:	ebfff6f0 	bl	20020c <disable_interrupts>
  202648:	e3c5273f 	bic	r2, r5, #16515072	; 0xfc0000
  20264c:	e3c210ff 	bic	r1, r2, #255	; 0xff
  202650:	e381045a 	orr	r0, r1, #1509949440	; 0x5a000000
  202654:	e3804004 	orr	r4, r0, #4	; 0x4
  202658:	e3e030ff 	mvn	r3, #255	; 0xff
  20265c:	e5834064 	str	r4, [r3, #100]
  202660:	e3570c01 	cmp	r7, #256	; 0x100
  202664:	b1a06007 	movlt	r6, r7
  202668:	a3a06c01 	movge	r6, #256	; 0x100
  20266c:	e1a04003 	mov	r4, r3
  202670:	e594e068 	ldr	lr, [r4, #104]
  202674:	e22ec001 	eor	ip, lr, #1	; 0x1
  202678:	e21c5001 	ands	r5, ip, #1	; 0x1
  20267c:	1afffffb 	bne	202670 <flash_write_all+0x60>
  202680:	ebfff6e2 	bl	200210 <enable_interrupts>
  202684:	e3a00712 	mov	r0, #4718592	; 0x480000
  202688:	e2803c01 	add	r3, r0, #256	; 0x100
  20268c:	e3560000 	cmp	r6, #0	; 0x0
  202690:	e5942068 	ldr	r2, [r4, #104]
  202694:	e1a00005 	mov	r0, r5
  202698:	e5843060 	str	r3, [r4, #96]
  20269c:	e1a01006 	mov	r1, r6
  2026a0:	e1a0442a 	mov	r4, sl, lsr #8
  2026a4:	e1a0e009 	mov	lr, r9
  2026a8:	e1a0c008 	mov	ip, r8
  2026ac:	da00000a 	ble	2026dc <flash_write_all+0xcc>
  2026b0:	e2411004 	sub	r1, r1, #4	; 0x4
  2026b4:	e2800001 	add	r0, r0, #1	; 0x1
  2026b8:	e35000ff 	cmp	r0, #255	; 0xff
  2026bc:	83a03000 	movhi	r3, #0	; 0x0
  2026c0:	93a03001 	movls	r3, #1	; 0x1
  2026c4:	e3510000 	cmp	r1, #0	; 0x0
  2026c8:	d3a03000 	movle	r3, #0	; 0x0
  2026cc:	e49e2004 	ldr	r2, [lr], #4
  2026d0:	e3530000 	cmp	r3, #0	; 0x0
  2026d4:	e48c2004 	str	r2, [ip], #4
  2026d8:	1afffff4 	bne	2026b0 <flash_write_all+0xa0>
  2026dc:	ebfff6ca 	bl	20020c <disable_interrupts>
  2026e0:	e1a03404 	mov	r3, r4, lsl #8
  2026e4:	e3c324ff 	bic	r2, r3, #-16777216	; 0xff000000
  2026e8:	e3c2073f 	bic	r0, r2, #16515072	; 0xfc0000
  2026ec:	e3c0e0ff 	bic	lr, r0, #255	; 0xff
  2026f0:	e38ec45a 	orr	ip, lr, #1509949440	; 0x5a000000
  2026f4:	e3e010ff 	mvn	r1, #255	; 0xff
  2026f8:	e38c4001 	orr	r4, ip, #1	; 0x1
  2026fc:	e5814064 	str	r4, [r1, #100]
  202700:	e1a03001 	mov	r3, r1
  202704:	e5934068 	ldr	r4, [r3, #104]
  202708:	e3140001 	tst	r4, #1	; 0x1
  20270c:	0afffffc 	beq	202704 <flash_write_all+0xf4>
  202710:	ebfff6be 	bl	200210 <enable_interrupts>
  202714:	e314000c 	tst	r4, #12	; 0xc
  202718:	13a00000 	movne	r0, #0	; 0x0
  20271c:	03a00001 	moveq	r0, #1	; 0x1
  202720:	e0667007 	rsb	r7, r6, r7
  202724:	e3570000 	cmp	r7, #0	; 0x0
  202728:	d3a01000 	movle	r1, #0	; 0x0
  20272c:	c2001001 	andgt	r1, r0, #1	; 0x1
  202730:	e3510000 	cmp	r1, #0	; 0x0
  202734:	e2899c01 	add	r9, r9, #256	; 0x100
  202738:	e2888c01 	add	r8, r8, #256	; 0x100
  20273c:	1affffbc 	bne	202634 <flash_write_all+0x24>
  202740:	e89daff0 	ldmia	sp, {r4, r5, r6, r7, r8, r9, sl, fp, sp, pc}

00202744 <delayus>:
  202744:	e24dd004 	sub	sp, sp, #4	; 0x4
  202748:	e3a03000 	mov	r3, #0	; 0x0
  20274c:	ea000001 	b	202758 <delayus+0x14>
  202750:	e59d3000 	ldr	r3, [sp]
  202754:	e2833001 	add	r3, r3, #1	; 0x1
  202758:	e58d3000 	str	r3, [sp]
  20275c:	e59d2000 	ldr	r2, [sp]
  202760:	e3520009 	cmp	r2, #9	; 0x9
  202764:	dafffff9 	ble	202750 <delayus+0xc>
  202768:	e28dd004 	add	sp, sp, #4	; 0x4
  20276c:	e1a0f00e 	mov	pc, lr

00202770 <cpld_reset>:
  202770:	e3a0120a 	mov	r1, #-1610612736	; 0xa0000000
  202774:	e24dd004 	sub	sp, sp, #4	; 0x4
  202778:	e1a019c1 	mov	r1, r1, asr #19
  20277c:	e3a00506 	mov	r0, #25165824	; 0x1800000
  202780:	e3a02000 	mov	r2, #0	; 0x0
  202784:	e5810030 	str	r0, [r1, #48]
  202788:	e58d2000 	str	r2, [sp]
  20278c:	e59d3000 	ldr	r3, [sp]
  202790:	e3530009 	cmp	r3, #9	; 0x9
  202794:	ca000005 	bgt	2027b0 <cpld_reset+0x40>
  202798:	e59d2000 	ldr	r2, [sp]
  20279c:	e2823001 	add	r3, r2, #1	; 0x1
  2027a0:	e58d3000 	str	r3, [sp]
  2027a4:	e59dc000 	ldr	ip, [sp]
  2027a8:	e35c0009 	cmp	ip, #9	; 0x9
  2027ac:	dafffff9 	ble	202798 <cpld_reset+0x28>
  2027b0:	e3a00506 	mov	r0, #25165824	; 0x1800000
  2027b4:	e5810034 	str	r0, [r1, #52]
  2027b8:	e28dd004 	add	sp, sp, #4	; 0x4
  2027bc:	e1a0f00e 	mov	pc, lr

002027c0 <bus_setup>:
  2027c0:	e92d4010 	stmdb	sp!, {r4, lr}
  2027c4:	e3a00102 	mov	r0, #-2147483648	; 0x80000000
  2027c8:	e3a0c489 	mov	ip, #-1996488704	; 0x89000000
  2027cc:	e3a0e20a 	mov	lr, #-1610612736	; 0xa0000000
  2027d0:	e1a0e9ce 	mov	lr, lr, asr #19
  2027d4:	e24dd004 	sub	sp, sp, #4	; 0x4
  2027d8:	e1a01acc 	mov	r1, ip, asr #21
  2027dc:	e3a04007 	mov	r4, #7	; 0x7
  2027e0:	e0803000 	add	r3, r0, r0
  2027e4:	e58e0004 	str	r0, [lr, #4]
  2027e8:	e58e0054 	str	r0, [lr, #84]
  2027ec:	e58e0060 	str	r0, [lr, #96]
  2027f0:	e58e0074 	str	r0, [lr, #116]
  2027f4:	e5814000 	str	r4, [r1]
  2027f8:	e58d3000 	str	r3, [sp]
  2027fc:	e59d2000 	ldr	r2, [sp]
  202800:	e3a0c102 	mov	ip, #-2147483648	; 0x80000000
  202804:	e3520009 	cmp	r2, #9	; 0x9
  202808:	e1a0cacc 	mov	ip, ip, asr #21
  20280c:	ca000005 	bgt	202828 <bus_setup+0x68>
  202810:	e59d0000 	ldr	r0, [sp]
  202814:	e2803001 	add	r3, r0, #1	; 0x1
  202818:	e58d3000 	str	r3, [sp]
  20281c:	e59d2000 	ldr	r2, [sp]
  202820:	e3520009 	cmp	r2, #9	; 0x9
  202824:	dafffff9 	ble	202810 <bus_setup+0x50>
  202828:	e3a00102 	mov	r0, #-2147483648	; 0x80000000
  20282c:	e1a01ac0 	mov	r1, r0, asr #21
  202830:	e3a02b01 	mov	r2, #1024	; 0x400
  202834:	e5812000 	str	r2, [r1]
  202838:	e3a03767 	mov	r3, #27000832	; 0x19c0000
  20283c:	e3a02004 	mov	r2, #4	; 0x4
  202840:	e3a0420a 	mov	r4, #-1610612736	; 0xa0000000
  202844:	e58c2010 	str	r2, [ip, #16]
  202848:	e2830802 	add	r0, r3, #131072	; 0x20000
  20284c:	e1a049c4 	mov	r4, r4, asr #19
  202850:	e3a03506 	mov	r3, #25165824	; 0x1800000
  202854:	e242c004 	sub	ip, r2, #4	; 0x4
  202858:	e58e00a0 	str	r0, [lr, #160]
  20285c:	e5843030 	str	r3, [r4, #48]
  202860:	e58dc000 	str	ip, [sp]
  202864:	e59d1000 	ldr	r1, [sp]
  202868:	e3510009 	cmp	r1, #9	; 0x9
  20286c:	ca000005 	bgt	202888 <bus_setup+0xc8>
  202870:	e59d2000 	ldr	r2, [sp]
  202874:	e2821001 	add	r1, r2, #1	; 0x1
  202878:	e58d1000 	str	r1, [sp]
  20287c:	e59dc000 	ldr	ip, [sp]
  202880:	e35c0009 	cmp	ip, #9	; 0x9
  202884:	dafffff9 	ble	202870 <bus_setup+0xb0>
  202888:	e3e004fe 	mvn	r0, #-33554432	; 0xfe000000
  20288c:	e3a0c767 	mov	ip, #27000832	; 0x19c0000
  202890:	e2401861 	sub	r1, r0, #6356992	; 0x610000
  202894:	e3a02506 	mov	r2, #25165824	; 0x1800000
  202898:	e28c0802 	add	r0, ip, #131072	; 0x20000
  20289c:	e3a0381e 	mov	r3, #1966080	; 0x1e0000
  2028a0:	e3a0c801 	mov	ip, #65536	; 0x10000
  2028a4:	e5842034 	str	r2, [r4, #52]
  2028a8:	e58e2034 	str	r2, [lr, #52]
  2028ac:	e58e3034 	str	r3, [lr, #52]
  2028b0:	e58e1000 	str	r1, [lr]
  2028b4:	e58e0010 	str	r0, [lr, #16]
  2028b8:	e58ec0a0 	str	ip, [lr, #160]
  2028bc:	e58ec000 	str	ip, [lr]
  2028c0:	e58ec010 	str	ip, [lr, #16]
  2028c4:	e28dd004 	add	sp, sp, #4	; 0x4
  2028c8:	e8bd8010 	ldmia	sp!, {r4, pc}

002028cc <led_setup>:
  2028cc:	e92d4030 	stmdb	sp!, {r4, r5, lr}
  2028d0:	e3a00102 	mov	r0, #-2147483648	; 0x80000000
  2028d4:	e3a0e20a 	mov	lr, #-1610612736	; 0xa0000000
  2028d8:	e3a05489 	mov	r5, #-1996488704	; 0x89000000
  2028dc:	e1a0e9ce 	mov	lr, lr, asr #19
  2028e0:	e24dd004 	sub	sp, sp, #4	; 0x4
  2028e4:	e1a01ac5 	mov	r1, r5, asr #21
  2028e8:	e3a04007 	mov	r4, #7	; 0x7
  2028ec:	e0803000 	add	r3, r0, r0
  2028f0:	e58e0004 	str	r0, [lr, #4]
  2028f4:	e58e0054 	str	r0, [lr, #84]
  2028f8:	e58e0060 	str	r0, [lr, #96]
  2028fc:	e58e0074 	str	r0, [lr, #116]
  202900:	e5814000 	str	r4, [r1]
  202904:	e58d3000 	str	r3, [sp]
  202908:	e59d2000 	ldr	r2, [sp]
  20290c:	e3a0c102 	mov	ip, #-2147483648	; 0x80000000
  202910:	e3520009 	cmp	r2, #9	; 0x9
  202914:	e1a0cacc 	mov	ip, ip, asr #21
  202918:	ca000005 	bgt	202934 <led_setup+0x68>
  20291c:	e59d0000 	ldr	r0, [sp]
  202920:	e2803001 	add	r3, r0, #1	; 0x1
  202924:	e58d3000 	str	r3, [sp]
  202928:	e59d2000 	ldr	r2, [sp]
  20292c:	e3520009 	cmp	r2, #9	; 0x9
  202930:	dafffff9 	ble	20291c <led_setup+0x50>
  202934:	e3a02102 	mov	r2, #-2147483648	; 0x80000000
  202938:	e3a04767 	mov	r4, #27000832	; 0x19c0000
  20293c:	e1a01ac2 	mov	r1, r2, asr #21
  202940:	e2840802 	add	r0, r4, #131072	; 0x20000
  202944:	e3a0520a 	mov	r5, #-1610612736	; 0xa0000000
  202948:	e3a04004 	mov	r4, #4	; 0x4
  20294c:	e3a03b01 	mov	r3, #1024	; 0x400
  202950:	e5813000 	str	r3, [r1]
  202954:	e1a059c5 	mov	r5, r5, asr #19
  202958:	e3a02506 	mov	r2, #25165824	; 0x1800000
  20295c:	e2441004 	sub	r1, r4, #4	; 0x4
  202960:	e58c4010 	str	r4, [ip, #16]
  202964:	e58e00a0 	str	r0, [lr, #160]
  202968:	e5852030 	str	r2, [r5, #48]
  20296c:	e58d1000 	str	r1, [sp]
  202970:	e59dc000 	ldr	ip, [sp]
  202974:	e35c0009 	cmp	ip, #9	; 0x9
  202978:	ca000005 	bgt	202994 <led_setup+0xc8>
  20297c:	e59d1000 	ldr	r1, [sp]
  202980:	e2810001 	add	r0, r1, #1	; 0x1
  202984:	e58d0000 	str	r0, [sp]
  202988:	e59dc000 	ldr	ip, [sp]
  20298c:	e35c0009 	cmp	ip, #9	; 0x9
  202990:	dafffff9 	ble	20297c <led_setup+0xb0>
  202994:	e3e014fe 	mvn	r1, #-33554432	; 0xfe000000
  202998:	e3a03767 	mov	r3, #27000832	; 0x19c0000
  20299c:	e2410861 	sub	r0, r1, #6356992	; 0x610000
  2029a0:	e283c802 	add	ip, r3, #131072	; 0x20000
  2029a4:	e3a01506 	mov	r1, #25165824	; 0x1800000
  2029a8:	e3a0381e 	mov	r3, #1966080	; 0x1e0000
  2029ac:	e3a0420a 	mov	r4, #-1610612736	; 0xa0000000
  2029b0:	e5851034 	str	r1, [r5, #52]
  2029b4:	e3a02801 	mov	r2, #65536	; 0x10000
  2029b8:	e58e1034 	str	r1, [lr, #52]
  2029bc:	e1a049c4 	mov	r4, r4, asr #19
  2029c0:	e58e3034 	str	r3, [lr, #52]
  2029c4:	e243381e 	sub	r3, r3, #1966080	; 0x1e0000
  2029c8:	e58e0000 	str	r0, [lr]
  2029cc:	e58ec010 	str	ip, [lr, #16]
  2029d0:	e58e20a0 	str	r2, [lr, #160]
  2029d4:	e58e2000 	str	r2, [lr]
  2029d8:	e58e2010 	str	r2, [lr, #16]
  2029dc:	e5841030 	str	r1, [r4, #48]
  2029e0:	ea000001 	b	2029ec <led_setup+0x120>
  2029e4:	e59dc000 	ldr	ip, [sp]
  2029e8:	e28c3001 	add	r3, ip, #1	; 0x1
  2029ec:	e58d3000 	str	r3, [sp]
  2029f0:	e59d2000 	ldr	r2, [sp]
  2029f4:	e3520009 	cmp	r2, #9	; 0x9
  2029f8:	dafffff9 	ble	2029e4 <led_setup+0x118>
  2029fc:	e3a00506 	mov	r0, #25165824	; 0x1800000
  202a00:	e5840034 	str	r0, [r4, #52]
  202a04:	e28dd004 	add	sp, sp, #4	; 0x4
  202a08:	e8bd8030 	ldmia	sp!, {r4, r5, pc}

00202a0c <led_poll>:
  202a0c:	e59f20c8 	ldr	r2, [pc, #200]	; 202adc <.text+0x2adc>
  202a10:	e5920000 	ldr	r0, [r2]
  202a14:	e2803001 	add	r3, r0, #1	; 0x1
  202a18:	e3a0c20a 	mov	ip, #-1610612736	; 0xa0000000
  202a1c:	e3530000 	cmp	r3, #0	; 0x0
  202a20:	e59f10b8 	ldr	r1, [pc, #184]	; 202ae0 <.text+0x2ae0>
  202a24:	e1a0c9cc 	mov	ip, ip, asr #19
  202a28:	e5823000 	str	r3, [r2]
  202a2c:	11a0f00e 	movne	pc, lr
  202a30:	e5912000 	ldr	r2, [r1]
  202a34:	e1e03002 	mvn	r3, r2
  202a38:	e2530000 	subs	r0, r3, #0	; 0x0
  202a3c:	13a00001 	movne	r0, #1	; 0x1
  202a40:	e5813000 	str	r3, [r1]
  202a44:	e3802c02 	orr	r2, r0, #512	; 0x200
  202a48:	e10f3000 	mrs	r3, CPSR
  202a4c:	e38330c0 	orr	r3, r3, #192	; 0xc0
  202a50:	e121f003 	msr	CPSR_c, r3
  202a54:	e3a004a5 	mov	r0, #-1526726656	; 0xa5000000
  202a58:	e3a01cff 	mov	r1, #65280	; 0xff00
  202a5c:	e382280e 	orr	r2, r2, #917504	; 0xe0000
  202a60:	e28110ff 	add	r1, r1, #255	; 0xff
  202a64:	e1a039c0 	mov	r3, r0, asr #19
  202a68:	e3e00ebe 	mvn	r0, #3040	; 0xbe0
  202a6c:	e58c2030 	str	r2, [ip, #48]
  202a70:	e58c2030 	str	r2, [ip, #48]
  202a74:	e58c2030 	str	r2, [ip, #48]
  202a78:	e58c2030 	str	r2, [ip, #48]
  202a7c:	e500100f 	str	r1, [r0, #-15]
  202a80:	e5831000 	str	r1, [r3]
  202a84:	e58c2030 	str	r2, [ip, #48]
  202a88:	e1a00000 	nop			(mov r0,r0)
  202a8c:	e1a00000 	nop			(mov r0,r0)
  202a90:	e3a02401 	mov	r2, #16777216	; 0x1000000
  202a94:	e58c2030 	str	r2, [ip, #48]
  202a98:	e1a00000 	nop			(mov r0,r0)
  202a9c:	e1a00000 	nop			(mov r0,r0)
  202aa0:	e1a00000 	nop			(mov r0,r0)
  202aa4:	e1a00000 	nop			(mov r0,r0)
  202aa8:	e1a00000 	nop			(mov r0,r0)
  202aac:	e1a00000 	nop			(mov r0,r0)
  202ab0:	e58c2034 	str	r2, [ip, #52]
  202ab4:	e1a00000 	nop			(mov r0,r0)
  202ab8:	e1a00000 	nop			(mov r0,r0)
  202abc:	e2423001 	sub	r3, r2, #1	; 0x1
  202ac0:	e24328e1 	sub	r2, r3, #14745600	; 0xe10000
  202ac4:	e500100b 	str	r1, [r0, #-11]
  202ac8:	e58c2034 	str	r2, [ip, #52]
  202acc:	e10f2000 	mrs	r2, CPSR
  202ad0:	e3c220c0 	bic	r2, r2, #192	; 0xc0
  202ad4:	e121f002 	msr	CPSR_c, r2
  202ad8:	e1a0f00e 	mov	pc, lr
  202adc:	00204abc 	streqh	r4, [r0], -ip
  202ae0:	00204ab8 	streqh	r4, [r0], -r8

00202ae4 <putc>:
  202ae4:	e1a0c00d 	mov	ip, sp
  202ae8:	e350000a 	cmp	r0, #10	; 0xa
  202aec:	e92dd810 	stmdb	sp!, {r4, fp, ip, lr, pc}
  202af0:	e1a04000 	mov	r4, r0
  202af4:	e24cb004 	sub	fp, ip, #4	; 0x4
  202af8:	e3a0000d 	mov	r0, #13	; 0xd
  202afc:	0a000002 	beq	202b0c <putc+0x28>
  202b00:	e1a00004 	mov	r0, r4
  202b04:	e89d6810 	ldmia	sp, {r4, fp, sp, lr}
  202b08:	ea00024d 	b	203444 <usart_putc>
  202b0c:	eb00024c 	bl	203444 <usart_putc>
  202b10:	eafffffa 	b	202b00 <putc+0x1c>

00202b14 <puts>:
  202b14:	e1a0c00d 	mov	ip, sp
  202b18:	e92dd830 	stmdb	sp!, {r4, r5, fp, ip, lr, pc}
  202b1c:	e4d04001 	ldrb	r4, [r0], #1
  202b20:	e3540000 	cmp	r4, #0	; 0x0
  202b24:	e24cb004 	sub	fp, ip, #4	; 0x4
  202b28:	e1a05000 	mov	r5, r0
  202b2c:	0a000007 	beq	202b50 <puts+0x3c>
  202b30:	e354000a 	cmp	r4, #10	; 0xa
  202b34:	e3a0000d 	mov	r0, #13	; 0xd
  202b38:	0a000006 	beq	202b58 <puts+0x44>
  202b3c:	e1a00004 	mov	r0, r4
  202b40:	eb00023f 	bl	203444 <usart_putc>
  202b44:	e4d54001 	ldrb	r4, [r5], #1
  202b48:	e3540000 	cmp	r4, #0	; 0x0
  202b4c:	1afffff7 	bne	202b30 <puts+0x1c>
  202b50:	e3a00000 	mov	r0, #0	; 0x0
  202b54:	e89da830 	ldmia	sp, {r4, r5, fp, sp, pc}
  202b58:	eb000239 	bl	203444 <usart_putc>
  202b5c:	eafffff6 	b	202b3c <puts+0x28>

00202b60 <help>:
  202b60:	e59f0000 	ldr	r0, [pc, #0]	; 202b68 <.text+0x2b68>
  202b64:	ea0002b2 	b	203634 <xprintf>
  202b68:	002044c0 	eoreq	r4, r0, r0, asr #9

00202b6c <toupper>:
  202b6c:	e2403061 	sub	r3, r0, #97	; 0x61
  202b70:	e3530019 	cmp	r3, #25	; 0x19
  202b74:	92400020 	subls	r0, r0, #32	; 0x20
  202b78:	e1a0f00e 	mov	pc, lr

00202b7c <parse_num>:
  202b7c:	e92d4030 	stmdb	sp!, {r4, r5, lr}
  202b80:	e590c000 	ldr	ip, [r0]
  202b84:	e5dc2000 	ldrb	r2, [ip]
  202b88:	e3520020 	cmp	r2, #32	; 0x20
  202b8c:	e1a04000 	mov	r4, r0
  202b90:	e1a05001 	mov	r5, r1
  202b94:	e3a0e000 	mov	lr, #0	; 0x0
  202b98:	1a000002 	bne	202ba8 <parse_num+0x2c>
  202b9c:	e5fc2001 	ldrb	r2, [ip, #1]!
  202ba0:	e3520020 	cmp	r2, #32	; 0x20
  202ba4:	0afffffc 	beq	202b9c <parse_num+0x20>
  202ba8:	e3520030 	cmp	r2, #48	; 0x30
  202bac:	0a00000f 	beq	202bf0 <parse_num+0x74>
  202bb0:	e3520000 	cmp	r2, #0	; 0x0
  202bb4:	0a000009 	beq	202be0 <parse_num+0x64>
  202bb8:	e08e310e 	add	r3, lr, lr, lsl #2
  202bbc:	e0823083 	add	r3, r2, r3, lsl #1
  202bc0:	e2422030 	sub	r2, r2, #48	; 0x30
  202bc4:	e3520009 	cmp	r2, #9	; 0x9
  202bc8:	e28cc001 	add	ip, ip, #1	; 0x1
  202bcc:	8a000003 	bhi	202be0 <parse_num+0x64>
  202bd0:	e5dc2000 	ldrb	r2, [ip]
  202bd4:	e243e030 	sub	lr, r3, #48	; 0x30
  202bd8:	e3520000 	cmp	r2, #0	; 0x0
  202bdc:	1afffff5 	bne	202bb8 <parse_num+0x3c>
  202be0:	e3a00000 	mov	r0, #0	; 0x0
  202be4:	e584c000 	str	ip, [r4]
  202be8:	e585e000 	str	lr, [r5]
  202bec:	e8bd8030 	ldmia	sp!, {r4, r5, pc}
  202bf0:	e5dc3001 	ldrb	r3, [ip, #1]
  202bf4:	e3530058 	cmp	r3, #88	; 0x58
  202bf8:	13530078 	cmpne	r3, #120	; 0x78
  202bfc:	1affffeb 	bne	202bb0 <parse_num+0x34>
  202c00:	e5fc0002 	ldrb	r0, [ip, #2]!
  202c04:	e20030ff 	and	r3, r0, #255	; 0xff
  202c08:	e3530000 	cmp	r3, #0	; 0x0
  202c0c:	0afffff3 	beq	202be0 <parse_num+0x64>
  202c10:	e1a02003 	mov	r2, r3
  202c14:	e2421061 	sub	r1, r2, #97	; 0x61
  202c18:	e3510019 	cmp	r1, #25	; 0x19
  202c1c:	e1a00002 	mov	r0, r2
  202c20:	92420020 	subls	r0, r2, #32	; 0x20
  202c24:	e20030ff 	and	r3, r0, #255	; 0xff
  202c28:	e2431030 	sub	r1, r3, #48	; 0x30
  202c2c:	e20120ff 	and	r2, r1, #255	; 0xff
  202c30:	e3520009 	cmp	r2, #9	; 0x9
  202c34:	e2430041 	sub	r0, r3, #65	; 0x41
  202c38:	e28cc001 	add	ip, ip, #1	; 0x1
  202c3c:	e2433037 	sub	r3, r3, #55	; 0x37
  202c40:	9181e20e 	orrls	lr, r1, lr, lsl #4
  202c44:	9a000002 	bls	202c54 <parse_num+0xd8>
  202c48:	e3500005 	cmp	r0, #5	; 0x5
  202c4c:	8affffe3 	bhi	202be0 <parse_num+0x64>
  202c50:	e183e20e 	orr	lr, r3, lr, lsl #4
  202c54:	e5dc2000 	ldrb	r2, [ip]
  202c58:	e3520000 	cmp	r2, #0	; 0x0
  202c5c:	1affffec 	bne	202c14 <parse_num+0x98>
  202c60:	eaffffde 	b	202be0 <parse_num+0x64>

00202c64 <parse_word>:
  202c64:	e5902000 	ldr	r2, [r0]
  202c68:	e5d23000 	ldrb	r3, [r2]
  202c6c:	e3530020 	cmp	r3, #32	; 0x20
  202c70:	1a000002 	bne	202c80 <parse_word+0x1c>
  202c74:	e5f23001 	ldrb	r3, [r2, #1]!
  202c78:	e3530020 	cmp	r3, #32	; 0x20
  202c7c:	0afffffc 	beq	202c74 <parse_word+0x10>
  202c80:	e5812000 	str	r2, [r1]
  202c84:	e5d21000 	ldrb	r1, [r2]
  202c88:	e20130ff 	and	r3, r1, #255	; 0xff
  202c8c:	e3530000 	cmp	r3, #0	; 0x0
  202c90:	0a000005 	beq	202cac <parse_word+0x48>
  202c94:	e3530020 	cmp	r3, #32	; 0x20
  202c98:	0a000006 	beq	202cb8 <parse_word+0x54>
  202c9c:	e5f21001 	ldrb	r1, [r2, #1]!
  202ca0:	e20130ff 	and	r3, r1, #255	; 0xff
  202ca4:	e3530000 	cmp	r3, #0	; 0x0
  202ca8:	1afffff9 	bne	202c94 <parse_word+0x30>
  202cac:	e5802000 	str	r2, [r0]
  202cb0:	e3a00000 	mov	r0, #0	; 0x0
  202cb4:	e1a0f00e 	mov	pc, lr
  202cb8:	e3510000 	cmp	r1, #0	; 0x0
  202cbc:	13a03000 	movne	r3, #0	; 0x0
  202cc0:	14c23001 	strneb	r3, [r2], #1
  202cc4:	e5802000 	str	r2, [r0]
  202cc8:	e3a00000 	mov	r0, #0	; 0x0
  202ccc:	e1a0f00e 	mov	pc, lr

00202cd0 <cli_parse>:
  202cd0:	e1a0c00d 	mov	ip, sp
  202cd4:	e92dd830 	stmdb	sp!, {r4, r5, fp, ip, lr, pc}
  202cd8:	e59f309c 	ldr	r3, [pc, #156]	; 202d7c <.text+0x2d7c>
  202cdc:	e5932000 	ldr	r2, [r3]
  202ce0:	e3520000 	cmp	r2, #0	; 0x0
  202ce4:	e24cb004 	sub	fp, ip, #4	; 0x4
  202ce8:	089da830 	ldmeqia	sp, {r4, r5, fp, sp, pc}
  202cec:	e59f208c 	ldr	r2, [pc, #140]	; 202d80 <.text+0x2d80>
  202cf0:	e5d21000 	ldrb	r1, [r2]
  202cf4:	e59f0088 	ldr	r0, [pc, #136]	; 202d84 <.text+0x2d84>
  202cf8:	e3a0c000 	mov	ip, #0	; 0x0
  202cfc:	e3510068 	cmp	r1, #104	; 0x68
  202d00:	e580c000 	str	ip, [r0]
  202d04:	0a000019 	beq	202d70 <cli_parse+0xa0>
  202d08:	da000016 	ble	202d68 <cli_parse+0x98>
  202d0c:	e3510075 	cmp	r1, #117	; 0x75
  202d10:	089da830 	ldmeqia	sp, {r4, r5, fp, sp, pc}
  202d14:	e59f106c 	ldr	r1, [pc, #108]	; 202d88 <.text+0x2d88>
  202d18:	e4d14001 	ldrb	r4, [r1], #1
  202d1c:	e3540000 	cmp	r4, #0	; 0x0
  202d20:	e1a05001 	mov	r5, r1
  202d24:	1a000005 	bne	202d40 <cli_parse+0x70>
  202d28:	e89da830 	ldmia	sp, {r4, r5, fp, sp, pc}
  202d2c:	e1a00004 	mov	r0, r4
  202d30:	eb0001c3 	bl	203444 <usart_putc>
  202d34:	e4d54001 	ldrb	r4, [r5], #1
  202d38:	e3540000 	cmp	r4, #0	; 0x0
  202d3c:	0a000008 	beq	202d64 <cli_parse+0x94>
  202d40:	e354000a 	cmp	r4, #10	; 0xa
  202d44:	e3a0000d 	mov	r0, #13	; 0xd
  202d48:	1afffff7 	bne	202d2c <cli_parse+0x5c>
  202d4c:	eb0001bc 	bl	203444 <usart_putc>
  202d50:	e1a00004 	mov	r0, r4
  202d54:	eb0001ba 	bl	203444 <usart_putc>
  202d58:	e4d54001 	ldrb	r4, [r5], #1
  202d5c:	e3540000 	cmp	r4, #0	; 0x0
  202d60:	1afffff6 	bne	202d40 <cli_parse+0x70>
  202d64:	e89da830 	ldmia	sp, {r4, r5, fp, sp, pc}
  202d68:	e351003f 	cmp	r1, #63	; 0x3f
  202d6c:	1affffe8 	bne	202d14 <cli_parse+0x44>
  202d70:	e59f0014 	ldr	r0, [pc, #20]	; 202d8c <.text+0x2d8c>
  202d74:	e89d6830 	ldmia	sp, {r4, r5, fp, sp, lr}
  202d78:	ea00022d 	b	203634 <xprintf>
  202d7c:	00204ad8 	ldreqd	r4, [r0], -r8
  202d80:	00204ae6 	eoreq	r4, r0, r6, ror #21
  202d84:	00204adc 	ldreqd	r4, [r0], -ip
  202d88:	002044cc 	eoreq	r4, r0, ip, asr #9
  202d8c:	002044c0 	eoreq	r4, r0, r0, asr #9

00202d90 <beep>:
  202d90:	e3a00007 	mov	r0, #7	; 0x7
  202d94:	ea0001aa 	b	203444 <usart_putc>

00202d98 <cli_poll_rx_ring>:
  202d98:	e1a0c00d 	mov	ip, sp
  202d9c:	e92dddf0 	stmdb	sp!, {r4, r5, r6, r7, r8, sl, fp, ip, lr, pc}
  202da0:	e59f611c 	ldr	r6, [pc, #284]	; 202ec4 <.text+0x2ec4>
  202da4:	e59f811c 	ldr	r8, [pc, #284]	; 202ec8 <.text+0x2ec8>
  202da8:	e5d62000 	ldrb	r2, [r6]
  202dac:	e5d83000 	ldrb	r3, [r8]
  202db0:	e1520003 	cmp	r2, r3
  202db4:	e24cb004 	sub	fp, ip, #4	; 0x4
  202db8:	e1a00006 	mov	r0, r6
  202dbc:	089dadf0 	ldmeqia	sp, {r4, r5, r6, r7, r8, sl, fp, sp, pc}
  202dc0:	e59fa104 	ldr	sl, [pc, #260]	; 202ecc <.text+0x2ecc>
  202dc4:	e59f7104 	ldr	r7, [pc, #260]	; 202ed0 <.text+0x2ed0>
  202dc8:	e1a01002 	mov	r1, r2
  202dcc:	e7da4001 	ldrb	r4, [sl, r1]
  202dd0:	e5d7c000 	ldrb	ip, [r7]
  202dd4:	e2813001 	add	r3, r1, #1	; 0x1
  202dd8:	e354000d 	cmp	r4, #13	; 0xd
  202ddc:	e24c2001 	sub	r2, ip, #1	; 0x1
  202de0:	e203100f 	and	r1, r3, #15	; 0xf
  202de4:	059f30e8 	ldreq	r3, [pc, #232]	; 202ed4 <.text+0x2ed4>
  202de8:	e5c72000 	strb	r2, [r7]
  202dec:	03a02002 	moveq	r2, #2	; 0x2
  202df0:	e5c01000 	strb	r1, [r0]
  202df4:	05832000 	streq	r2, [r3]
  202df8:	0a00000e 	beq	202e38 <cli_poll_rx_ring+0xa0>
  202dfc:	ca000013 	bgt	202e50 <cli_poll_rx_ring+0xb8>
  202e00:	e3540008 	cmp	r4, #8	; 0x8
  202e04:	0a000013 	beq	202e58 <cli_poll_rx_ring+0xc0>
  202e08:	e59f30c8 	ldr	r3, [pc, #200]	; 202ed8 <.text+0x2ed8>
  202e0c:	e5931000 	ldr	r1, [r3]
  202e10:	e351001f 	cmp	r1, #31	; 0x1f
  202e14:	ca000026 	bgt	202eb4 <cli_poll_rx_ring+0x11c>
  202e18:	e59fe0bc 	ldr	lr, [pc, #188]	; 202edc <.text+0x2edc>
  202e1c:	e2812001 	add	r2, r1, #1	; 0x1
  202e20:	e354000a 	cmp	r4, #10	; 0xa
  202e24:	e5832000 	str	r2, [r3]
  202e28:	e7c1400e 	strb	r4, [r1, lr]
  202e2c:	0a00001c 	beq	202ea4 <cli_poll_rx_ring+0x10c>
  202e30:	e1a00004 	mov	r0, r4
  202e34:	eb000182 	bl	203444 <usart_putc>
  202e38:	e5d61000 	ldrb	r1, [r6]
  202e3c:	e5d8c000 	ldrb	ip, [r8]
  202e40:	e151000c 	cmp	r1, ip
  202e44:	e59f0078 	ldr	r0, [pc, #120]	; 202ec4 <.text+0x2ec4>
  202e48:	1affffdf 	bne	202dcc <cli_poll_rx_ring+0x34>
  202e4c:	e89dadf0 	ldmia	sp, {r4, r5, r6, r7, r8, sl, fp, sp, pc}
  202e50:	e354007f 	cmp	r4, #127	; 0x7f
  202e54:	1affffeb 	bne	202e08 <cli_poll_rx_ring+0x70>
  202e58:	e59f1078 	ldr	r1, [pc, #120]	; 202ed8 <.text+0x2ed8>
  202e5c:	e5912000 	ldr	r2, [r1]
  202e60:	e3520000 	cmp	r2, #0	; 0x0
  202e64:	0a000012 	beq	202eb4 <cli_poll_rx_ring+0x11c>
  202e68:	e59f0070 	ldr	r0, [pc, #112]	; 202ee0 <.text+0x2ee0>
  202e6c:	e4d04001 	ldrb	r4, [r0], #1
  202e70:	e2425001 	sub	r5, r2, #1	; 0x1
  202e74:	e5815000 	str	r5, [r1]
  202e78:	e3540000 	cmp	r4, #0	; 0x0
  202e7c:	e1a05000 	mov	r5, r0
  202e80:	0affffec 	beq	202e38 <cli_poll_rx_ring+0xa0>
  202e84:	e354000a 	cmp	r4, #10	; 0xa
  202e88:	e3a0000d 	mov	r0, #13	; 0xd
  202e8c:	0a00000a 	beq	202ebc <cli_poll_rx_ring+0x124>
  202e90:	e1a00004 	mov	r0, r4
  202e94:	eb00016a 	bl	203444 <usart_putc>
  202e98:	e4d54001 	ldrb	r4, [r5], #1
  202e9c:	e3540000 	cmp	r4, #0	; 0x0
  202ea0:	eafffff6 	b	202e80 <cli_poll_rx_ring+0xe8>
  202ea4:	e3a0000d 	mov	r0, #13	; 0xd
  202ea8:	eb000165 	bl	203444 <usart_putc>
  202eac:	e1a00004 	mov	r0, r4
  202eb0:	eaffffdf 	b	202e34 <cli_poll_rx_ring+0x9c>
  202eb4:	e3a00007 	mov	r0, #7	; 0x7
  202eb8:	eaffffdd 	b	202e34 <cli_poll_rx_ring+0x9c>
  202ebc:	eb000160 	bl	203444 <usart_putc>
  202ec0:	eafffff2 	b	202e90 <cli_poll_rx_ring+0xf8>
  202ec4:	00204ae4 	eoreq	r4, r0, r4, ror #21
  202ec8:	00204ae5 	eoreq	r4, r0, r5, ror #21
  202ecc:	00204ac5 	eoreq	r4, r0, r5, asr #21
  202ed0:	00204ac4 	eoreq	r4, r0, r4, asr #21
  202ed4:	00204ac0 	eoreq	r4, r0, r0, asr #21
  202ed8:	00204ad8 	ldreqd	r4, [r0], -r8
  202edc:	00204ae6 	eoreq	r4, r0, r6, ror #21
  202ee0:	002044d0 	ldreqd	r4, [r0], -r0

00202ee4 <rx_ring_add>:
  202ee4:	e92d4010 	stmdb	sp!, {r4, lr}
  202ee8:	e59fe028 	ldr	lr, [pc, #40]	; 202f18 <.text+0x2f18>
  202eec:	e59f4028 	ldr	r4, [pc, #40]	; 202f1c <.text+0x2f1c>
  202ef0:	e5dec000 	ldrb	ip, [lr]
  202ef4:	e5d41000 	ldrb	r1, [r4]
  202ef8:	e28c2001 	add	r2, ip, #1	; 0x1
  202efc:	e59f301c 	ldr	r3, [pc, #28]	; 202f20 <.text+0x2f20>
  202f00:	e202200f 	and	r2, r2, #15	; 0xf
  202f04:	e2811001 	add	r1, r1, #1	; 0x1
  202f08:	e7c3000c 	strb	r0, [r3, ip]
  202f0c:	e5ce2000 	strb	r2, [lr]
  202f10:	e5c41000 	strb	r1, [r4]
  202f14:	e8bd8010 	ldmia	sp!, {r4, pc}
  202f18:	00204ae5 	eoreq	r4, r0, r5, ror #21
  202f1c:	00204ac4 	eoreq	r4, r0, r4, asr #21
  202f20:	00204ac5 	eoreq	r4, r0, r5, asr #21

00202f24 <rx_ring_space>:
  202f24:	e59f3008 	ldr	r3, [pc, #8]	; 202f34 <.text+0x2f34>
  202f28:	e5d30000 	ldrb	r0, [r3]
  202f2c:	e2600010 	rsb	r0, r0, #16	; 0x10
  202f30:	e1a0f00e 	mov	pc, lr
  202f34:	00204ac4 	eoreq	r4, r0, r4, asr #21

00202f38 <cli_setup>:
  202f38:	e59f3030 	ldr	r3, [pc, #48]	; 202f70 <.text+0x2f70>
  202f3c:	e59f2030 	ldr	r2, [pc, #48]	; 202f74 <.text+0x2f74>
  202f40:	e3a01000 	mov	r1, #0	; 0x0
  202f44:	e5c31000 	strb	r1, [r3]
  202f48:	e5821000 	str	r1, [r2]
  202f4c:	e59fc024 	ldr	ip, [pc, #36]	; 202f78 <.text+0x2f78>
  202f50:	e59f0024 	ldr	r0, [pc, #36]	; 202f7c <.text+0x2f7c>
  202f54:	e59f3024 	ldr	r3, [pc, #36]	; 202f80 <.text+0x2f80>
  202f58:	e59f2024 	ldr	r2, [pc, #36]	; 202f84 <.text+0x2f84>
  202f5c:	e58c1000 	str	r1, [ip]
  202f60:	e5801000 	str	r1, [r0]
  202f64:	e5c31000 	strb	r1, [r3]
  202f68:	e5c21000 	strb	r1, [r2]
  202f6c:	e1a0f00e 	mov	pc, lr
  202f70:	00204ae5 	eoreq	r4, r0, r5, ror #21
  202f74:	00204ac0 	eoreq	r4, r0, r0, asr #21
  202f78:	00204ad8 	ldreqd	r4, [r0], -r8
  202f7c:	00204ae0 	eoreq	r4, r0, r0, ror #21
  202f80:	00204ac4 	eoreq	r4, r0, r4, asr #21
  202f84:	00204ae4 	eoreq	r4, r0, r4, ror #21

00202f88 <cli_poll>:
  202f88:	e1a0c00d 	mov	ip, sp
  202f8c:	e92dd8f0 	stmdb	sp!, {r4, r5, r6, r7, fp, ip, lr, pc}
  202f90:	e24cb004 	sub	fp, ip, #4	; 0x4
  202f94:	eb000142 	bl	2034a4 <usart_getc_rdy>
  202f98:	e3500000 	cmp	r0, #0	; 0x0
  202f9c:	1a000041 	bne	2030a8 <cli_poll+0x120>
  202fa0:	e59f6184 	ldr	r6, [pc, #388]	; 20312c <.text+0x312c>
  202fa4:	e5963000 	ldr	r3, [r6]
  202fa8:	e3530001 	cmp	r3, #1	; 0x1
  202fac:	0a00004d 	beq	2030e8 <cli_poll+0x160>
  202fb0:	ca000011 	bgt	202ffc <cli_poll+0x74>
  202fb4:	e3530000 	cmp	r3, #0	; 0x0
  202fb8:	189da8f0 	ldmneia	sp, {r4, r5, r6, r7, fp, sp, pc}
  202fbc:	e59f016c 	ldr	r0, [pc, #364]	; 203130 <.text+0x3130>
  202fc0:	e4d04001 	ldrb	r4, [r0], #1
  202fc4:	e3540000 	cmp	r4, #0	; 0x0
  202fc8:	e1a05000 	mov	r5, r0
  202fcc:	0a000007 	beq	202ff0 <cli_poll+0x68>
  202fd0:	e354000a 	cmp	r4, #10	; 0xa
  202fd4:	e3a0000d 	mov	r0, #13	; 0xd
  202fd8:	0a000044 	beq	2030f0 <cli_poll+0x168>
  202fdc:	e1a00004 	mov	r0, r4
  202fe0:	eb000117 	bl	203444 <usart_putc>
  202fe4:	e4d54001 	ldrb	r4, [r5], #1
  202fe8:	e3540000 	cmp	r4, #0	; 0x0
  202fec:	1afffff7 	bne	202fd0 <cli_poll+0x48>
  202ff0:	e3a02001 	mov	r2, #1	; 0x1
  202ff4:	e5862000 	str	r2, [r6]
  202ff8:	e89da8f0 	ldmia	sp, {r4, r5, r6, r7, fp, sp, pc}
  202ffc:	e3530002 	cmp	r3, #2	; 0x2
  203000:	189da8f0 	ldmneia	sp, {r4, r5, r6, r7, fp, sp, pc}
  203004:	e59f7128 	ldr	r7, [pc, #296]	; 203134 <.text+0x3134>
  203008:	e4d74001 	ldrb	r4, [r7], #1
  20300c:	e3540000 	cmp	r4, #0	; 0x0
  203010:	e1a05007 	mov	r5, r7
  203014:	0a000007 	beq	203038 <cli_poll+0xb0>
  203018:	e354000a 	cmp	r4, #10	; 0xa
  20301c:	e3a0000d 	mov	r0, #13	; 0xd
  203020:	0a00003a 	beq	203110 <cli_poll+0x188>
  203024:	e1a00004 	mov	r0, r4
  203028:	eb000105 	bl	203444 <usart_putc>
  20302c:	e4d54001 	ldrb	r4, [r5], #1
  203030:	e3540000 	cmp	r4, #0	; 0x0
  203034:	1afffff7 	bne	203018 <cli_poll+0x90>
  203038:	e59f70f8 	ldr	r7, [pc, #248]	; 203138 <.text+0x3138>
  20303c:	e597c000 	ldr	ip, [r7]
  203040:	e59f20f4 	ldr	r2, [pc, #244]	; 20313c <.text+0x313c>
  203044:	e3a01000 	mov	r1, #0	; 0x0
  203048:	e35c0000 	cmp	ip, #0	; 0x0
  20304c:	e7c2100c 	strb	r1, [r2, ip]
  203050:	0a00002a 	beq	203100 <cli_poll+0x178>
  203054:	e5d22000 	ldrb	r2, [r2]
  203058:	e59f30e0 	ldr	r3, [pc, #224]	; 203140 <.text+0x3140>
  20305c:	e3520068 	cmp	r2, #104	; 0x68
  203060:	e5831000 	str	r1, [r3]
  203064:	0a000023 	beq	2030f8 <cli_poll+0x170>
  203068:	ca00002c 	bgt	203120 <cli_poll+0x198>
  20306c:	e352003f 	cmp	r2, #63	; 0x3f
  203070:	0a000020 	beq	2030f8 <cli_poll+0x170>
  203074:	e59f10c8 	ldr	r1, [pc, #200]	; 203144 <.text+0x3144>
  203078:	e4d14001 	ldrb	r4, [r1], #1
  20307c:	e3540000 	cmp	r4, #0	; 0x0
  203080:	e1a05001 	mov	r5, r1
  203084:	0a00001d 	beq	203100 <cli_poll+0x178>
  203088:	e354000a 	cmp	r4, #10	; 0xa
  20308c:	e3a0000d 	mov	r0, #13	; 0xd
  203090:	0a000020 	beq	203118 <cli_poll+0x190>
  203094:	e1a00004 	mov	r0, r4
  203098:	eb0000e9 	bl	203444 <usart_putc>
  20309c:	e4d54001 	ldrb	r4, [r5], #1
  2030a0:	e3540000 	cmp	r4, #0	; 0x0
  2030a4:	eafffff6 	b	203084 <cli_poll+0xfc>
  2030a8:	eb000106 	bl	2034c8 <usart_getc>
  2030ac:	e59f4094 	ldr	r4, [pc, #148]	; 203148 <.text+0x3148>
  2030b0:	e59fe094 	ldr	lr, [pc, #148]	; 20314c <.text+0x314c>
  2030b4:	e5d4c000 	ldrb	ip, [r4]
  2030b8:	e5de6000 	ldrb	r6, [lr]
  2030bc:	e28c1001 	add	r1, ip, #1	; 0x1
  2030c0:	e201200f 	and	r2, r1, #15	; 0xf
  2030c4:	e59f3084 	ldr	r3, [pc, #132]	; 203150 <.text+0x3150>
  2030c8:	e2861001 	add	r1, r6, #1	; 0x1
  2030cc:	e59f6058 	ldr	r6, [pc, #88]	; 20312c <.text+0x312c>
  2030d0:	e7c3000c 	strb	r0, [r3, ip]
  2030d4:	e5963000 	ldr	r3, [r6]
  2030d8:	e3530001 	cmp	r3, #1	; 0x1
  2030dc:	e5c42000 	strb	r2, [r4]
  2030e0:	e5ce1000 	strb	r1, [lr]
  2030e4:	1affffb1 	bne	202fb0 <cli_poll+0x28>
  2030e8:	e89d68f0 	ldmia	sp, {r4, r5, r6, r7, fp, sp, lr}
  2030ec:	eaffff29 	b	202d98 <cli_poll_rx_ring>
  2030f0:	eb0000d3 	bl	203444 <usart_putc>
  2030f4:	eaffffb8 	b	202fdc <cli_poll+0x54>
  2030f8:	e59f0054 	ldr	r0, [pc, #84]	; 203154 <.text+0x3154>
  2030fc:	eb00014c 	bl	203634 <xprintf>
  203100:	e3a00000 	mov	r0, #0	; 0x0
  203104:	e5860000 	str	r0, [r6]
  203108:	e5870000 	str	r0, [r7]
  20310c:	e89da8f0 	ldmia	sp, {r4, r5, r6, r7, fp, sp, pc}
  203110:	eb0000cb 	bl	203444 <usart_putc>
  203114:	eaffffc2 	b	203024 <cli_poll+0x9c>
  203118:	eb0000c9 	bl	203444 <usart_putc>
  20311c:	eaffffdc 	b	203094 <cli_poll+0x10c>
  203120:	e3520075 	cmp	r2, #117	; 0x75
  203124:	1affffd2 	bne	203074 <cli_poll+0xec>
  203128:	eafffff4 	b	203100 <cli_poll+0x178>
  20312c:	00204ac0 	eoreq	r4, r0, r0, asr #21
  203130:	002044d4 	ldreqd	r4, [r0], -r4
  203134:	0020444c 	eoreq	r4, r0, ip, asr #8
  203138:	00204ad8 	ldreqd	r4, [r0], -r8
  20313c:	00204ae6 	eoreq	r4, r0, r6, ror #21
  203140:	00204adc 	ldreqd	r4, [r0], -ip
  203144:	002044cc 	eoreq	r4, r0, ip, asr #9
  203148:	00204ae5 	eoreq	r4, r0, r5, ror #21
  20314c:	00204ac4 	eoreq	r4, r0, r4, asr #21
  203150:	00204ac5 	eoreq	r4, r0, r5, asr #21
  203154:	002044c0 	eoreq	r4, r0, r0, asr #9

00203158 <tohex>:
  203158:	e200000f 	and	r0, r0, #15	; 0xf
  20315c:	e3500009 	cmp	r0, #9	; 0x9
  203160:	e2803030 	add	r3, r0, #48	; 0x30
  203164:	82803057 	addhi	r3, r0, #87	; 0x57
  203168:	e1a00003 	mov	r0, r3
  20316c:	e1a0f00e 	mov	pc, lr

00203170 <dumpmem>:
  203170:	e1a0c00d 	mov	ip, sp
  203174:	e92ddff0 	stmdb	sp!, {r4, r5, r6, r7, r8, r9, sl, fp, ip, lr, pc}
  203178:	e0806001 	add	r6, r0, r1
  20317c:	e24cb004 	sub	fp, ip, #4	; 0x4
  203180:	e24dd0a0 	sub	sp, sp, #160	; 0xa0
  203184:	e1500006 	cmp	r0, r6
  203188:	e1a04000 	mov	r4, r0
  20318c:	e3a0a000 	mov	sl, #0	; 0x0
  203190:	2a000036 	bcs	203270 <dumpmem+0x100>
  203194:	e24b90c8 	sub	r9, fp, #200	; 0xc8
  203198:	e3a08020 	mov	r8, #32	; 0x20
  20319c:	e3a07078 	mov	r7, #120	; 0x78
  2031a0:	e1a0100a 	mov	r1, sl
  2031a4:	e59f00cc 	ldr	r0, [pc, #204]	; 203278 <.text+0x3278>
  2031a8:	eb000121 	bl	203634 <xprintf>
  2031ac:	e1a05009 	mov	r5, r9
  2031b0:	e24b1077 	sub	r1, fp, #119	; 0x77
  2031b4:	e3a0e00f 	mov	lr, #15	; 0xf
  2031b8:	e54b8078 	strb	r8, [fp, #-120]
  2031bc:	ea000017 	b	203220 <dumpmem+0xb0>
  2031c0:	e4d40001 	ldrb	r0, [r4], #1
  2031c4:	e1a02220 	mov	r2, r0, lsr #4
  2031c8:	e3520009 	cmp	r2, #9	; 0x9
  2031cc:	e1a03001 	mov	r3, r1
  2031d0:	e281c001 	add	ip, r1, #1	; 0x1
  2031d4:	92821030 	addls	r1, r2, #48	; 0x30
  2031d8:	82821057 	addhi	r1, r2, #87	; 0x57
  2031dc:	e200200f 	and	r2, r0, #15	; 0xf
  2031e0:	e3520009 	cmp	r2, #9	; 0x9
  2031e4:	e5c31000 	strb	r1, [r3]
  2031e8:	92823030 	addls	r3, r2, #48	; 0x30
  2031ec:	82823057 	addhi	r3, r2, #87	; 0x57
  2031f0:	e5cc3000 	strb	r3, [ip]
  2031f4:	e2403020 	sub	r3, r0, #32	; 0x20
  2031f8:	e353005e 	cmp	r3, #94	; 0x5e
  2031fc:	e1a02005 	mov	r2, r5
  203200:	91a03000 	movls	r3, r0
  203204:	83a0302e 	movhi	r3, #46	; 0x2e
  203208:	e28c1001 	add	r1, ip, #1	; 0x1
  20320c:	e25ee001 	subs	lr, lr, #1	; 0x1
  203210:	e4c18001 	strb	r8, [r1], #1
  203214:	e2855001 	add	r5, r5, #1	; 0x1
  203218:	e5c23000 	strb	r3, [r2]
  20321c:	4a000009 	bmi	203248 <dumpmem+0xd8>
  203220:	e1540006 	cmp	r4, r6
  203224:	3affffe5 	bcc	2031c0 <dumpmem+0x50>
  203228:	e1a00001 	mov	r0, r1
  20322c:	e4c07001 	strb	r7, [r0], #1
  203230:	e25ee001 	subs	lr, lr, #1	; 0x1
  203234:	e5c17001 	strb	r7, [r1, #1]
  203238:	e5c08001 	strb	r8, [r0, #1]
  20323c:	e2801002 	add	r1, r0, #2	; 0x2
  203240:	e4c57001 	strb	r7, [r5], #1
  203244:	5afffff5 	bpl	203220 <dumpmem+0xb0>
  203248:	e3a0e000 	mov	lr, #0	; 0x0
  20324c:	e5c1e000 	strb	lr, [r1]
  203250:	e59f0024 	ldr	r0, [pc, #36]	; 20327c <.text+0x327c>
  203254:	e24b1078 	sub	r1, fp, #120	; 0x78
  203258:	e1a02009 	mov	r2, r9
  20325c:	e5c5e000 	strb	lr, [r5]
  203260:	eb0000f3 	bl	203634 <xprintf>
  203264:	e1540006 	cmp	r4, r6
  203268:	e28aa010 	add	sl, sl, #16	; 0x10
  20326c:	3affffcb 	bcc	2031a0 <dumpmem+0x30>
  203270:	e24bd028 	sub	sp, fp, #40	; 0x28
  203274:	e89daff0 	ldmia	sp, {r4, r5, r6, r7, r8, r9, sl, fp, sp, pc}
  203278:	002044dc 	ldreqd	r4, [r0], -ip
  20327c:	002044e4 	eoreq	r4, r0, r4, ror #9

00203280 <AT91F_PDC_SetNextRx>:
  203280:	e5801010 	str	r1, [r0, #16]
  203284:	e5802014 	str	r2, [r0, #20]
  203288:	e1a0f00e 	mov	pc, lr

0020328c <AT91F_PDC_SetNextTx>:
  20328c:	e5801018 	str	r1, [r0, #24]
  203290:	e580201c 	str	r2, [r0, #28]
  203294:	e1a0f00e 	mov	pc, lr

00203298 <AT91F_PDC_SetRx>:
  203298:	e5801000 	str	r1, [r0]
  20329c:	e5802004 	str	r2, [r0, #4]
  2032a0:	e1a0f00e 	mov	pc, lr

002032a4 <AT91F_PDC_SetTx>:
  2032a4:	e5801008 	str	r1, [r0, #8]
  2032a8:	e580200c 	str	r2, [r0, #12]
  2032ac:	e1a0f00e 	mov	pc, lr

002032b0 <AT91F_PDC_Open>:
  2032b0:	e3a0c000 	mov	ip, #0	; 0x0
  2032b4:	e3a03002 	mov	r3, #2	; 0x2
  2032b8:	e5803020 	str	r3, [r0, #32]
  2032bc:	e28320fe 	add	r2, r3, #254	; 0xfe
  2032c0:	e3a01c02 	mov	r1, #512	; 0x200
  2032c4:	e28c3001 	add	r3, ip, #1	; 0x1
  2032c8:	e5801020 	str	r1, [r0, #32]
  2032cc:	e580c018 	str	ip, [r0, #24]
  2032d0:	e580c01c 	str	ip, [r0, #28]
  2032d4:	e580c010 	str	ip, [r0, #16]
  2032d8:	e580c014 	str	ip, [r0, #20]
  2032dc:	e580c008 	str	ip, [r0, #8]
  2032e0:	e580c00c 	str	ip, [r0, #12]
  2032e4:	e580c000 	str	ip, [r0]
  2032e8:	e580c004 	str	ip, [r0, #4]
  2032ec:	e5802020 	str	r2, [r0, #32]
  2032f0:	e5803020 	str	r3, [r0, #32]
  2032f4:	e1a0f00e 	mov	pc, lr

002032f8 <AT91F_US_Baudrate>:
  2032f8:	e1a0c00d 	mov	ip, sp
  2032fc:	e92dd800 	stmdb	sp!, {fp, ip, lr, pc}
  203300:	e080e100 	add	lr, r0, r0, lsl #2
  203304:	e24cb004 	sub	fp, ip, #4	; 0x4
  203308:	e1a01201 	mov	r1, r1, lsl #4
  20330c:	e1a0008e 	mov	r0, lr, lsl #1
  203310:	eb0001d0 	bl	203a58 <__udivsi3>
  203314:	e59f201c 	ldr	r2, [pc, #28]	; 203338 <.text+0x3338>
  203318:	e08c1092 	umull	r1, ip, r2, r0
  20331c:	e1a021ac 	mov	r2, ip, lsr #3
  203320:	e0823102 	add	r3, r2, r2, lsl #2
  203324:	e0400083 	sub	r0, r0, r3, lsl #1
  203328:	e3500004 	cmp	r0, #4	; 0x4
  20332c:	e2820001 	add	r0, r2, #1	; 0x1
  203330:	91a00002 	movls	r0, r2
  203334:	e89da800 	ldmia	sp, {fp, sp, pc}
  203338:	cccccccd 	stcgtl	12, cr12, [ip], {205}

0020333c <AT91F_US_Configure>:
  20333c:	e1a0c00d 	mov	ip, sp
  203340:	e92dd830 	stmdb	sp!, {r4, r5, fp, ip, lr, pc}
  203344:	e1a04000 	mov	r4, r0
  203348:	e0815101 	add	r5, r1, r1, lsl #2
  20334c:	e3e00000 	mvn	r0, #0	; 0x0
  203350:	e3a0e0ac 	mov	lr, #172	; 0xac
  203354:	e1a01203 	mov	r1, r3, lsl #4
  203358:	e24cb004 	sub	fp, ip, #4	; 0x4
  20335c:	e584000c 	str	r0, [r4, #12]
  203360:	e1a00085 	mov	r0, r5, lsl #1
  203364:	e584e000 	str	lr, [r4]
  203368:	e1a05002 	mov	r5, r2
  20336c:	eb0001b9 	bl	203a58 <__udivsi3>
  203370:	e59f3074 	ldr	r3, [pc, #116]	; 2033ec <.text+0x33ec>
  203374:	e0821093 	umull	r1, r2, r3, r0
  203378:	e1a011a2 	mov	r1, r2, lsr #3
  20337c:	e081c101 	add	ip, r1, r1, lsl #2
  203380:	e040008c 	sub	r0, r0, ip, lsl #1
  203384:	e3500004 	cmp	r0, #4	; 0x4
  203388:	e59bc004 	ldr	ip, [fp, #4]
  20338c:	e2813001 	add	r3, r1, #1	; 0x1
  203390:	91a03001 	movls	r3, r1
  203394:	e5843020 	str	r3, [r4, #32]
  203398:	e2841c01 	add	r1, r4, #256	; 0x100
  20339c:	e584c028 	str	ip, [r4, #40]
  2033a0:	e3a02c02 	mov	r2, #512	; 0x200
  2033a4:	e3a0c002 	mov	ip, #2	; 0x2
  2033a8:	e581c020 	str	ip, [r1, #32]
  2033ac:	e3a00000 	mov	r0, #0	; 0x0
  2033b0:	e5812020 	str	r2, [r1, #32]
  2033b4:	e2423c01 	sub	r3, r2, #256	; 0x100
  2033b8:	e24c2001 	sub	r2, ip, #1	; 0x1
  2033bc:	e5810018 	str	r0, [r1, #24]
  2033c0:	e581001c 	str	r0, [r1, #28]
  2033c4:	e5810010 	str	r0, [r1, #16]
  2033c8:	e5810014 	str	r0, [r1, #20]
  2033cc:	e5810008 	str	r0, [r1, #8]
  2033d0:	e581000c 	str	r0, [r1, #12]
  2033d4:	e5840100 	str	r0, [r4, #256]
  2033d8:	e5810004 	str	r0, [r1, #4]
  2033dc:	e5813020 	str	r3, [r1, #32]
  2033e0:	e5812020 	str	r2, [r1, #32]
  2033e4:	e5845004 	str	r5, [r4, #4]
  2033e8:	e89da830 	ldmia	sp, {r4, r5, fp, sp, pc}
  2033ec:	cccccccd 	stcgtl	12, cr12, [ip], {205}

002033f0 <usart_tx_empty>:
  2033f0:	e3a01322 	mov	r1, #-2013265920	; 0x88000000
  2033f4:	e24dd004 	sub	sp, sp, #4	; 0x4
  2033f8:	e1a006c1 	mov	r0, r1, asr #13
  2033fc:	e58d0000 	str	r0, [sp]
  203400:	e59d2000 	ldr	r2, [sp]
  203404:	e5923014 	ldr	r3, [r2, #20]
  203408:	e3130c02 	tst	r3, #512	; 0x200
  20340c:	03a00000 	moveq	r0, #0	; 0x0
  203410:	13a00001 	movne	r0, #1	; 0x1
  203414:	e28dd004 	add	sp, sp, #4	; 0x4
  203418:	e1a0f00e 	mov	pc, lr

0020341c <usart_tx_flush>:
  20341c:	e3a01322 	mov	r1, #-2013265920	; 0x88000000
  203420:	e24dd004 	sub	sp, sp, #4	; 0x4
  203424:	e1a016c1 	mov	r1, r1, asr #13
  203428:	e58d1000 	str	r1, [sp]
  20342c:	e59d3000 	ldr	r3, [sp]
  203430:	e5932014 	ldr	r2, [r3, #20]
  203434:	e3120c02 	tst	r2, #512	; 0x200
  203438:	0afffffa 	beq	203428 <usart_tx_flush+0xc>
  20343c:	e28dd004 	add	sp, sp, #4	; 0x4
  203440:	e1a0f00e 	mov	pc, lr

00203444 <usart_putc>:
  203444:	e3a03322 	mov	r3, #-2013265920	; 0x88000000
  203448:	e24dd008 	sub	sp, sp, #8	; 0x8
  20344c:	e1a016c3 	mov	r1, r3, asr #13
  203450:	e58d1004 	str	r1, [sp, #4]
  203454:	e59d2004 	ldr	r2, [sp, #4]
  203458:	e592c014 	ldr	ip, [r2, #20]
  20345c:	e31c0002 	tst	ip, #2	; 0x2
  203460:	159d2004 	ldrne	r2, [sp, #4]
  203464:	120030ff 	andne	r3, r0, #255	; 0xff
  203468:	1582301c 	strne	r3, [r2, #28]
  20346c:	e3a03000 	mov	r3, #0	; 0x0
  203470:	e58d3000 	str	r3, [sp]
  203474:	e3a01d4e 	mov	r1, #4992	; 0x1380
  203478:	e59d2000 	ldr	r2, [sp]
  20347c:	e2811007 	add	r1, r1, #7	; 0x7
  203480:	ea000003 	b	203494 <usart_putc+0x50>
  203484:	e59dc000 	ldr	ip, [sp]
  203488:	e28c0001 	add	r0, ip, #1	; 0x1
  20348c:	e58d0000 	str	r0, [sp]
  203490:	e59d2000 	ldr	r2, [sp]
  203494:	e1520001 	cmp	r2, r1
  203498:	dafffff9 	ble	203484 <usart_putc+0x40>
  20349c:	e28dd008 	add	sp, sp, #8	; 0x8
  2034a0:	e1a0f00e 	mov	pc, lr

002034a4 <usart_getc_rdy>:
  2034a4:	e3a01322 	mov	r1, #-2013265920	; 0x88000000
  2034a8:	e24dd004 	sub	sp, sp, #4	; 0x4
  2034ac:	e1a036c1 	mov	r3, r1, asr #13
  2034b0:	e58d3000 	str	r3, [sp]
  2034b4:	e59d2000 	ldr	r2, [sp]
  2034b8:	e5920014 	ldr	r0, [r2, #20]
  2034bc:	e2000001 	and	r0, r0, #1	; 0x1
  2034c0:	e28dd004 	add	sp, sp, #4	; 0x4
  2034c4:	e1a0f00e 	mov	pc, lr

002034c8 <usart_getc>:
  2034c8:	e3a00322 	mov	r0, #-2013265920	; 0x88000000
  2034cc:	e24dd004 	sub	sp, sp, #4	; 0x4
  2034d0:	e1a036c0 	mov	r3, r0, asr #13
  2034d4:	e58d3000 	str	r3, [sp]
  2034d8:	e59d1000 	ldr	r1, [sp]
  2034dc:	e5912014 	ldr	r2, [r1, #20]
  2034e0:	e3120001 	tst	r2, #1	; 0x1
  2034e4:	0afffffb 	beq	2034d8 <usart_getc+0x10>
  2034e8:	e59d3000 	ldr	r3, [sp]
  2034ec:	e593c018 	ldr	ip, [r3, #24]
  2034f0:	e20c00ff 	and	r0, ip, #255	; 0xff
  2034f4:	e28dd004 	add	sp, sp, #4	; 0x4
  2034f8:	e1a0f00e 	mov	pc, lr

002034fc <usart_enable_int>:
  2034fc:	eafff343 	b	200210 <enable_interrupts>

00203500 <usart_disable_int>:
  203500:	eafff341 	b	20020c <disable_interrupts>

00203504 <usart_c_irq_handler>:
  203504:	e1a0c00d 	mov	ip, sp
  203508:	e92dd830 	stmdb	sp!, {r4, r5, fp, ip, lr, pc}
  20350c:	e59f205c 	ldr	r2, [pc, #92]	; 203570 <.text+0x3570>
  203510:	e3a04322 	mov	r4, #-2013265920	; 0x88000000
  203514:	e1a046c4 	mov	r4, r4, asr #13
  203518:	e5920000 	ldr	r0, [r2]
  20351c:	e5945014 	ldr	r5, [r4, #20]
  203520:	e2803001 	add	r3, r0, #1	; 0x1
  203524:	e3150001 	tst	r5, #1	; 0x1
  203528:	e24cb004 	sub	fp, ip, #4	; 0x4
  20352c:	e5823000 	str	r3, [r2]
  203530:	1a000005 	bne	20354c <usart_c_irq_handler+0x48>
  203534:	e3150c01 	tst	r5, #256	; 0x100
  203538:	13a03b02 	movne	r3, #2048	; 0x800
  20353c:	e3a0cc01 	mov	ip, #256	; 0x100
  203540:	15843000 	strne	r3, [r4]
  203544:	e584c000 	str	ip, [r4]
  203548:	e89da830 	ldmia	sp, {r4, r5, fp, sp, pc}
  20354c:	e5941018 	ldr	r1, [r4, #24]
  203550:	e20100ff 	and	r0, r1, #255	; 0xff
  203554:	ebfffe62 	bl	202ee4 <rx_ring_add>
  203558:	e3150c01 	tst	r5, #256	; 0x100
  20355c:	13a03b02 	movne	r3, #2048	; 0x800
  203560:	e3a0cc01 	mov	ip, #256	; 0x100
  203564:	15843000 	strne	r3, [r4]
  203568:	e584c000 	str	ip, [r4]
  20356c:	e89da830 	ldmia	sp, {r4, r5, fp, sp, pc}
  203570:	00204b08 	eoreq	r4, r0, r8, lsl #22

00203574 <usart_setup>:
  203574:	e52de004 	str	lr, [sp, #-4]!
  203578:	e3a00322 	mov	r0, #-2013265920	; 0x88000000
  20357c:	e24dd004 	sub	sp, sp, #4	; 0x4
  203580:	e1a036c0 	mov	r3, r0, asr #13
  203584:	e3a0220a 	mov	r2, #-1610612736	; 0xa0000000
  203588:	e3a0e102 	mov	lr, #-2147483648	; 0x80000000
  20358c:	e58d3000 	str	r3, [sp]
  203590:	e3a00000 	mov	r0, #0	; 0x0
  203594:	e1a0c9c2 	mov	ip, r2, asr #19
  203598:	e3a01606 	mov	r1, #6291456	; 0x600000
  20359c:	e3a03080 	mov	r3, #128	; 0x80
  2035a0:	e1a0eace 	mov	lr, lr, asr #21
  2035a4:	e58c1070 	str	r1, [ip, #112]
  2035a8:	e58c0074 	str	r0, [ip, #116]
  2035ac:	e58c1004 	str	r1, [ip, #4]
  2035b0:	e58e3010 	str	r3, [lr, #16]
  2035b4:	e59dc000 	ldr	ip, [sp]
  2035b8:	e2432081 	sub	r2, r3, #129	; 0x81
  2035bc:	e58c200c 	str	r2, [ip, #12]
  2035c0:	e3a03f4e 	mov	r3, #312	; 0x138
  2035c4:	e3a020ac 	mov	r2, #172	; 0xac
  2035c8:	e58c2000 	str	r2, [ip]
  2035cc:	e28c1c01 	add	r1, ip, #256	; 0x100
  2035d0:	e58c3020 	str	r3, [ip, #32]
  2035d4:	e3a03002 	mov	r3, #2	; 0x2
  2035d8:	e58c0028 	str	r0, [ip, #40]
  2035dc:	e2822f55 	add	r2, r2, #340	; 0x154
  2035e0:	e5813020 	str	r3, [r1, #32]
  2035e4:	e28330fe 	add	r3, r3, #254	; 0xfe
  2035e8:	e5812020 	str	r2, [r1, #32]
  2035ec:	e5810018 	str	r0, [r1, #24]
  2035f0:	e3a02001 	mov	r2, #1	; 0x1
  2035f4:	e581001c 	str	r0, [r1, #28]
  2035f8:	e5810010 	str	r0, [r1, #16]
  2035fc:	e5810014 	str	r0, [r1, #20]
  203600:	e5810008 	str	r0, [r1, #8]
  203604:	e581000c 	str	r0, [r1, #12]
  203608:	e58c0100 	str	r0, [ip, #256]
  20360c:	e5810004 	str	r0, [r1, #4]
  203610:	e2830d1f 	add	r0, r3, #1984	; 0x7c0
  203614:	e5813020 	str	r3, [r1, #32]
  203618:	e5812020 	str	r2, [r1, #32]
  20361c:	e58c0004 	str	r0, [ip, #4]
  203620:	e59d2000 	ldr	r2, [sp]
  203624:	e2403e87 	sub	r3, r0, #2160	; 0x870
  203628:	e5823000 	str	r3, [r2]
  20362c:	e28dd004 	add	sp, sp, #4	; 0x4
  203630:	e8bd8000 	ldmia	sp!, {pc}

00203634 <xprintf>:
  203634:	e1a0c00d 	mov	ip, sp
  203638:	e92d000f 	stmdb	sp!, {r0, r1, r2, r3}
  20363c:	e92dddf0 	stmdb	sp!, {r4, r5, r6, r7, r8, sl, fp, ip, lr, pc}
  203640:	e24cb014 	sub	fp, ip, #20	; 0x14
  203644:	e59b7004 	ldr	r7, [fp, #4]
  203648:	e28ba008 	add	sl, fp, #8	; 0x8
  20364c:	e4d73001 	ldrb	r3, [r7], #1
  203650:	e3530025 	cmp	r3, #37	; 0x25
  203654:	e1a04007 	mov	r4, r7
  203658:	0a000005 	beq	203674 <xprintf+0x40>
  20365c:	e2530000 	subs	r0, r3, #0	; 0x0
  203660:	0a000025 	beq	2036fc <.text+0x36fc>
  203664:	ebfffd1e 	bl	202ae4 <putc>
  203668:	e4d43001 	ldrb	r3, [r4], #1
  20366c:	e3530025 	cmp	r3, #37	; 0x25
  203670:	1afffff9 	bne	20365c <xprintf+0x28>
  203674:	e5d40000 	ldrb	r0, [r4]
  203678:	e2401030 	sub	r1, r0, #48	; 0x30
  20367c:	e3510009 	cmp	r1, #9	; 0x9
  203680:	95f40001 	ldrlsb	r0, [r4, #1]!
  203684:	e20000ff 	and	r0, r0, #255	; 0xff
  203688:	e2403063 	sub	r3, r0, #99	; 0x63
  20368c:	91a06001 	movls	r6, r1
  203690:	83a06000 	movhi	r6, #0	; 0x0
  203694:	e2847001 	add	r7, r4, #1	; 0x1
  203698:	e3530015 	cmp	r3, #21	; 0x15
  20369c:	979ff103 	ldrls	pc, [pc, r3, lsl #2]
  2036a0:	ea000019 	b	20370c <.text+0x370c>
  2036a4:	00203704 	eoreq	r3, r0, r4, lsl #14
  2036a8:	002037b0 	streqh	r3, [r0], -r0
  2036ac:	0020370c 	eoreq	r3, r0, ip, lsl #14
  2036b0:	0020370c 	eoreq	r3, r0, ip, lsl #14
  2036b4:	0020370c 	eoreq	r3, r0, ip, lsl #14
  2036b8:	0020370c 	eoreq	r3, r0, ip, lsl #14
  2036bc:	0020370c 	eoreq	r3, r0, ip, lsl #14
  2036c0:	0020370c 	eoreq	r3, r0, ip, lsl #14
  2036c4:	0020370c 	eoreq	r3, r0, ip, lsl #14
  2036c8:	0020370c 	eoreq	r3, r0, ip, lsl #14
  2036cc:	0020370c 	eoreq	r3, r0, ip, lsl #14
  2036d0:	0020370c 	eoreq	r3, r0, ip, lsl #14
  2036d4:	00203738 	eoreq	r3, r0, r8, lsr r7
  2036d8:	0020370c 	eoreq	r3, r0, ip, lsl #14
  2036dc:	0020370c 	eoreq	r3, r0, ip, lsl #14
  2036e0:	0020370c 	eoreq	r3, r0, ip, lsl #14
  2036e4:	00203714 	eoreq	r3, r0, r4, lsl r7
  2036e8:	0020370c 	eoreq	r3, r0, ip, lsl #14
  2036ec:	0020370c 	eoreq	r3, r0, ip, lsl #14
  2036f0:	0020370c 	eoreq	r3, r0, ip, lsl #14
  2036f4:	0020370c 	eoreq	r3, r0, ip, lsl #14
  2036f8:	00203800 	eoreq	r3, r0, r0, lsl #16
  2036fc:	e3a00000 	mov	r0, #0	; 0x0
  203700:	e89dadf0 	ldmia	sp, {r4, r5, r6, r7, r8, sl, fp, sp, pc}
  203704:	e5da0000 	ldrb	r0, [sl]
  203708:	e28aa004 	add	sl, sl, #4	; 0x4
  20370c:	ebfffcf4 	bl	202ae4 <putc>
  203710:	eaffffcd 	b	20364c <xprintf+0x18>
  203714:	e59a4000 	ldr	r4, [sl]
  203718:	e5d40000 	ldrb	r0, [r4]
  20371c:	e28aa004 	add	sl, sl, #4	; 0x4
  203720:	e3500000 	cmp	r0, #0	; 0x0
  203724:	0affffc8 	beq	20364c <xprintf+0x18>
  203728:	ebfffced 	bl	202ae4 <putc>
  20372c:	e5f40001 	ldrb	r0, [r4, #1]!
  203730:	e3500000 	cmp	r0, #0	; 0x0
  203734:	eafffffa 	b	203724 <.text+0x3724>
  203738:	e3a08008 	mov	r8, #8	; 0x8
  20373c:	e3a05101 	mov	r5, #1073741824	; 0x40000000
  203740:	e3500064 	cmp	r0, #100	; 0x64
  203744:	e49a4004 	ldr	r4, [sl], #4
  203748:	0a000020 	beq	2037d0 <.text+0x37d0>
  20374c:	e3560000 	cmp	r6, #0	; 0x0
  203750:	0a000006 	beq	203770 <.text+0x3770>
  203754:	e358000a 	cmp	r8, #10	; 0xa
  203758:	059f30e4 	ldreq	r3, [pc, #228]	; 203844 <.text+0x3844>
  20375c:	07935106 	ldreq	r5, [r3, r6, lsl #2]
  203760:	0a000002 	beq	203770 <.text+0x3770>
  203764:	8a00002d 	bhi	203820 <.text+0x3820>
  203768:	e3580008 	cmp	r8, #8	; 0x8
  20376c:	0a000026 	beq	20380c <.text+0x380c>
  203770:	e59f60d0 	ldr	r6, [pc, #208]	; 203848 <.text+0x3848>
  203774:	e1a01005 	mov	r1, r5
  203778:	e1a00004 	mov	r0, r4
  20377c:	eb0000b5 	bl	203a58 <__udivsi3>
  203780:	e7d60000 	ldrb	r0, [r6, r0]
  203784:	ebfffcd6 	bl	202ae4 <putc>
  203788:	e1a01005 	mov	r1, r5
  20378c:	e1a00004 	mov	r0, r4
  203790:	eb0000cd 	bl	203acc <__umodsi3>
  203794:	e1a01008 	mov	r1, r8
  203798:	e1a04000 	mov	r4, r0
  20379c:	e1a00005 	mov	r0, r5
  2037a0:	eb0000ac 	bl	203a58 <__udivsi3>
  2037a4:	e2505000 	subs	r5, r0, #0	; 0x0
  2037a8:	1afffff1 	bne	203774 <.text+0x3774>
  2037ac:	eaffffa6 	b	20364c <xprintf+0x18>
  2037b0:	e3a0465f 	mov	r4, #99614720	; 0x5f00000
  2037b4:	e2845a5e 	add	r5, r4, #385024	; 0x5e000
  2037b8:	e3500064 	cmp	r0, #100	; 0x64
  2037bc:	e59a4000 	ldr	r4, [sl]
  2037c0:	e2855c01 	add	r5, r5, #256	; 0x100
  2037c4:	e3a0800a 	mov	r8, #10	; 0xa
  2037c8:	e28aa004 	add	sl, sl, #4	; 0x4
  2037cc:	1affffde 	bne	20374c <.text+0x374c>
  2037d0:	e3540000 	cmp	r4, #0	; 0x0
  2037d4:	ba000016 	blt	203834 <.text+0x3834>
  2037d8:	e3550001 	cmp	r5, #1	; 0x1
  2037dc:	81550004 	cmphi	r5, r4
  2037e0:	9affffd9 	bls	20374c <.text+0x374c>
  2037e4:	e59f2060 	ldr	r2, [pc, #96]	; 20384c <.text+0x384c>
  2037e8:	e0831592 	umull	r1, r3, r2, r5
  2037ec:	e1a051a3 	mov	r5, r3, lsr #3
  2037f0:	e3550001 	cmp	r5, #1	; 0x1
  2037f4:	81550004 	cmphi	r5, r4
  2037f8:	8afffffa 	bhi	2037e8 <.text+0x37e8>
  2037fc:	eaffffd2 	b	20374c <.text+0x374c>
  203800:	e3a08010 	mov	r8, #16	; 0x10
  203804:	e3a05201 	mov	r5, #268435456	; 0x10000000
  203808:	eaffffcc 	b	203740 <.text+0x3740>
  20380c:	e0860086 	add	r0, r6, r6, lsl #1
  203810:	e2403003 	sub	r3, r0, #3	; 0x3
  203814:	e3a06001 	mov	r6, #1	; 0x1
  203818:	e1a05316 	mov	r5, r6, lsl r3
  20381c:	eaffffd3 	b	203770 <.text+0x3770>
  203820:	e3580010 	cmp	r8, #16	; 0x10
  203824:	1affffd1 	bne	203770 <.text+0x3770>
  203828:	e1a01106 	mov	r1, r6, lsl #2
  20382c:	e2413004 	sub	r3, r1, #4	; 0x4
  203830:	eafffff7 	b	203814 <.text+0x3814>
  203834:	e2400037 	sub	r0, r0, #55	; 0x37
  203838:	e2644000 	rsb	r4, r4, #0	; 0x0
  20383c:	ebfffca8 	bl	202ae4 <putc>
  203840:	eaffffe4 	b	2037d8 <.text+0x37d8>
  203844:	00204568 	eoreq	r4, r0, r8, ror #10
  203848:	002043ac 	eoreq	r4, r0, ip, lsr #7
  20384c:	cccccccd 	stcgtl	12, cr12, [ip], {205}

00203850 <memcpy>:
  203850:	e2522001 	subs	r2, r2, #1	; 0x1
  203854:	31a0f00e 	movcc	pc, lr
  203858:	e2422001 	sub	r2, r2, #1	; 0x1
  20385c:	e4d13001 	ldrb	r3, [r1], #1
  203860:	e3720001 	cmn	r2, #1	; 0x1
  203864:	e4c03001 	strb	r3, [r0], #1
  203868:	1afffffa 	bne	203858 <memcpy+0x8>
  20386c:	e1a0f00e 	mov	pc, lr

00203870 <memset>:
  203870:	e2422001 	sub	r2, r2, #1	; 0x1
  203874:	e3720001 	cmn	r2, #1	; 0x1
  203878:	e1a03000 	mov	r3, r0
  20387c:	01a0f00e 	moveq	pc, lr
  203880:	e2422001 	sub	r2, r2, #1	; 0x1
  203884:	e3720001 	cmn	r2, #1	; 0x1
  203888:	e4c31001 	strb	r1, [r3], #1
  20388c:	1afffffb 	bne	203880 <memset+0x10>
  203890:	e1a0f00e 	mov	pc, lr

00203894 <strncpy>:
  203894:	e2422001 	sub	r2, r2, #1	; 0x1
  203898:	e3720001 	cmn	r2, #1	; 0x1
  20389c:	e1a0c000 	mov	ip, r0
  2038a0:	0a000006 	beq	2038c0 <strncpy+0x2c>
  2038a4:	e4d13001 	ldrb	r3, [r1], #1
  2038a8:	e3530000 	cmp	r3, #0	; 0x0
  2038ac:	e2422001 	sub	r2, r2, #1	; 0x1
  2038b0:	e4c03001 	strb	r3, [r0], #1
  2038b4:	0a000001 	beq	2038c0 <strncpy+0x2c>
  2038b8:	e3720001 	cmn	r2, #1	; 0x1
  2038bc:	1afffff8 	bne	2038a4 <strncpy+0x10>
  2038c0:	e1a0000c 	mov	r0, ip
  2038c4:	e1a0f00e 	mov	pc, lr

002038c8 <strcmp>:
  2038c8:	e52de004 	str	lr, [sp, #-4]!
  2038cc:	e5d0c000 	ldrb	ip, [r0]
  2038d0:	e20c20ff 	and	r2, ip, #255	; 0xff
  2038d4:	e3520000 	cmp	r2, #0	; 0x0
  2038d8:	e1a0e000 	mov	lr, r0
  2038dc:	0a00000a 	beq	20390c <strcmp+0x44>
  2038e0:	e5d13000 	ldrb	r3, [r1]
  2038e4:	e20300ff 	and	r0, r3, #255	; 0xff
  2038e8:	e3500000 	cmp	r0, #0	; 0x0
  2038ec:	0a000007 	beq	203910 <strcmp+0x48>
  2038f0:	e1520000 	cmp	r2, r0
  2038f4:	1a000007 	bne	203918 <strcmp+0x50>
  2038f8:	e5fec001 	ldrb	ip, [lr, #1]!
  2038fc:	e2811001 	add	r1, r1, #1	; 0x1
  203900:	e20c20ff 	and	r2, ip, #255	; 0xff
  203904:	e3520000 	cmp	r2, #0	; 0x0
  203908:	1afffff4 	bne	2038e0 <strcmp+0x18>
  20390c:	e5d13000 	ldrb	r3, [r1]
  203910:	e063000c 	rsb	r0, r3, ip
  203914:	e49df004 	ldr	pc, [sp], #4
  203918:	e0600002 	rsb	r0, r0, r2
  20391c:	e49df004 	ldr	pc, [sp], #4

00203920 <strncmp>:
  203920:	e92d4010 	stmdb	sp!, {r4, lr}
  203924:	e5d03000 	ldrb	r3, [r0]
  203928:	e3530000 	cmp	r3, #0	; 0x0
  20392c:	e1a04000 	mov	r4, r0
  203930:	0a00000c 	beq	203968 <strncmp+0x48>
  203934:	e5d10000 	ldrb	r0, [r1]
  203938:	e3500000 	cmp	r0, #0	; 0x0
  20393c:	0a00000a 	beq	20396c <strncmp+0x4c>
  203940:	e2522001 	subs	r2, r2, #1	; 0x1
  203944:	e203e0ff 	and	lr, r3, #255	; 0xff
  203948:	e200c0ff 	and	ip, r0, #255	; 0xff
  20394c:	0a000006 	beq	20396c <strncmp+0x4c>
  203950:	e15e000c 	cmp	lr, ip
  203954:	1a000006 	bne	203974 <strncmp+0x54>
  203958:	e5f43001 	ldrb	r3, [r4, #1]!
  20395c:	e2811001 	add	r1, r1, #1	; 0x1
  203960:	e3530000 	cmp	r3, #0	; 0x0
  203964:	1afffff2 	bne	203934 <strncmp+0x14>
  203968:	e5d10000 	ldrb	r0, [r1]
  20396c:	e0600003 	rsb	r0, r0, r3
  203970:	e8bd8010 	ldmia	sp!, {r4, pc}
  203974:	e06c000e 	rsb	r0, ip, lr
  203978:	e8bd8010 	ldmia	sp!, {r4, pc}

0020397c <strlen>:
  20397c:	e4d03001 	ldrb	r3, [r0], #1
  203980:	e3530000 	cmp	r3, #0	; 0x0
  203984:	e1a02000 	mov	r2, r0
  203988:	e3a00000 	mov	r0, #0	; 0x0
  20398c:	01a0f00e 	moveq	pc, lr
  203990:	e4d21001 	ldrb	r1, [r2], #1
  203994:	e3510000 	cmp	r1, #0	; 0x0
  203998:	e2800001 	add	r0, r0, #1	; 0x1
  20399c:	1afffffb 	bne	203990 <strlen+0x14>
  2039a0:	e1a0f00e 	mov	pc, lr

002039a4 <strchr>:
  2039a4:	e5d03000 	ldrb	r3, [r0]
  2039a8:	ea000002 	b	2039b8 <strchr+0x14>
  2039ac:	e1530001 	cmp	r3, r1
  2039b0:	01a0f00e 	moveq	pc, lr
  2039b4:	e5f03001 	ldrb	r3, [r0, #1]!
  2039b8:	e3530000 	cmp	r3, #0	; 0x0
  2039bc:	1afffffa 	bne	2039ac <strchr+0x8>
  2039c0:	e3a00000 	mov	r0, #0	; 0x0
  2039c4:	e1a0f00e 	mov	pc, lr

002039c8 <udivmodsi4>:
  2039c8:	e1510000 	cmp	r1, r0
  2039cc:	e52de004 	str	lr, [sp, #-4]!
  2039d0:	e3a0c001 	mov	ip, #1	; 0x1
  2039d4:	e3a0e000 	mov	lr, #0	; 0x0
  2039d8:	2a000011 	bcs	203a24 <udivmodsi4+0x5c>
  2039dc:	e151000e 	cmp	r1, lr
  2039e0:	ba00000f 	blt	203a24 <udivmodsi4+0x5c>
  2039e4:	e1b0c08c 	movs	ip, ip, lsl #1
  2039e8:	03a03000 	moveq	r3, #0	; 0x0
  2039ec:	13a03001 	movne	r3, #1	; 0x1
  2039f0:	e1a01081 	mov	r1, r1, lsl #1
  2039f4:	e1510000 	cmp	r1, r0
  2039f8:	23a03000 	movcs	r3, #0	; 0x0
  2039fc:	32033001 	andcc	r3, r3, #1	; 0x1
  203a00:	e3530000 	cmp	r3, #0	; 0x0
  203a04:	0a000001 	beq	203a10 <udivmodsi4+0x48>
  203a08:	e3510000 	cmp	r1, #0	; 0x0
  203a0c:	aafffff4 	bge	2039e4 <udivmodsi4+0x1c>
  203a10:	e35c0000 	cmp	ip, #0	; 0x0
  203a14:	1a000002 	bne	203a24 <udivmodsi4+0x5c>
  203a18:	e3520000 	cmp	r2, #0	; 0x0
  203a1c:	01a0000e 	moveq	r0, lr
  203a20:	e49df004 	ldr	pc, [sp], #4
  203a24:	e1500001 	cmp	r0, r1
  203a28:	20610000 	rsbcs	r0, r1, r0
  203a2c:	218ee00c 	orrcs	lr, lr, ip
  203a30:	e1b0c0ac 	movs	ip, ip, lsr #1
  203a34:	e1a010a1 	mov	r1, r1, lsr #1
  203a38:	0afffff6 	beq	203a18 <udivmodsi4+0x50>
  203a3c:	e1500001 	cmp	r0, r1
  203a40:	20610000 	rsbcs	r0, r1, r0
  203a44:	218ee00c 	orrcs	lr, lr, ip
  203a48:	e1b0c0ac 	movs	ip, ip, lsr #1
  203a4c:	e1a010a1 	mov	r1, r1, lsr #1
  203a50:	1afffff3 	bne	203a24 <udivmodsi4+0x5c>
  203a54:	eaffffef 	b	203a18 <udivmodsi4+0x50>

00203a58 <__udivsi3>:
  203a58:	e1510000 	cmp	r1, r0
  203a5c:	e52de004 	str	lr, [sp, #-4]!
  203a60:	e1a0c000 	mov	ip, r0
  203a64:	e1a0e000 	mov	lr, r0
  203a68:	e3a02001 	mov	r2, #1	; 0x1
  203a6c:	e3a00000 	mov	r0, #0	; 0x0
  203a70:	2a00000e 	bcs	203ab0 <__udivsi3+0x58>
  203a74:	e1510000 	cmp	r1, r0
  203a78:	ba00000c 	blt	203ab0 <__udivsi3+0x58>
  203a7c:	e1b02082 	movs	r2, r2, lsl #1
  203a80:	03a03000 	moveq	r3, #0	; 0x0
  203a84:	13a03001 	movne	r3, #1	; 0x1
  203a88:	e1a01081 	mov	r1, r1, lsl #1
  203a8c:	e151000e 	cmp	r1, lr
  203a90:	23a03000 	movcs	r3, #0	; 0x0
  203a94:	32033001 	andcc	r3, r3, #1	; 0x1
  203a98:	e3530000 	cmp	r3, #0	; 0x0
  203a9c:	0a000001 	beq	203aa8 <__udivsi3+0x50>
  203aa0:	e3510000 	cmp	r1, #0	; 0x0
  203aa4:	aafffff4 	bge	203a7c <__udivsi3+0x24>
  203aa8:	e3520000 	cmp	r2, #0	; 0x0
  203aac:	049df004 	ldreq	pc, [sp], #4
  203ab0:	e15c0001 	cmp	ip, r1
  203ab4:	2061c00c 	rsbcs	ip, r1, ip
  203ab8:	21800002 	orrcs	r0, r0, r2
  203abc:	e1b020a2 	movs	r2, r2, lsr #1
  203ac0:	e1a010a1 	mov	r1, r1, lsr #1
  203ac4:	1afffff9 	bne	203ab0 <__udivsi3+0x58>
  203ac8:	e49df004 	ldr	pc, [sp], #4

00203acc <__umodsi3>:
  203acc:	e1510000 	cmp	r1, r0
  203ad0:	e1a0c000 	mov	ip, r0
  203ad4:	e3a02001 	mov	r2, #1	; 0x1
  203ad8:	2a00000e 	bcs	203b18 <__umodsi3+0x4c>
  203adc:	e3510000 	cmp	r1, #0	; 0x0
  203ae0:	ba00000c 	blt	203b18 <__umodsi3+0x4c>
  203ae4:	e1b02082 	movs	r2, r2, lsl #1
  203ae8:	03a03000 	moveq	r3, #0	; 0x0
  203aec:	13a03001 	movne	r3, #1	; 0x1
  203af0:	e1a01081 	mov	r1, r1, lsl #1
  203af4:	e151000c 	cmp	r1, ip
  203af8:	23a03000 	movcs	r3, #0	; 0x0
  203afc:	32033001 	andcc	r3, r3, #1	; 0x1
  203b00:	e3530000 	cmp	r3, #0	; 0x0
  203b04:	0a000001 	beq	203b10 <__umodsi3+0x44>
  203b08:	e3510000 	cmp	r1, #0	; 0x0
  203b0c:	aafffff4 	bge	203ae4 <__umodsi3+0x18>
  203b10:	e3520000 	cmp	r2, #0	; 0x0
  203b14:	01a0f00e 	moveq	pc, lr
  203b18:	e1500001 	cmp	r0, r1
  203b1c:	20610000 	rsbcs	r0, r1, r0
  203b20:	e1b020a2 	movs	r2, r2, lsr #1
  203b24:	e1a010a1 	mov	r1, r1, lsr #1
  203b28:	1afffffa 	bne	203b18 <__umodsi3+0x4c>
  203b2c:	e1a0f00e 	mov	pc, lr

00203b30 <out_raw_ptr>:
  203b30:	e243c001 	sub	ip, r3, #1	; 0x1
  203b34:	e37c0001 	cmn	ip, #1	; 0x1
  203b38:	e0800001 	add	r0, r0, r1
  203b3c:	e0811003 	add	r1, r1, r3
  203b40:	0a000004 	beq	203b58 <out_raw_ptr+0x28>
  203b44:	e4d23001 	ldrb	r3, [r2], #1
  203b48:	e24cc001 	sub	ip, ip, #1	; 0x1
  203b4c:	e37c0001 	cmn	ip, #1	; 0x1
  203b50:	e4c03001 	strb	r3, [r0], #1
  203b54:	1afffffa 	bne	203b44 <out_raw_ptr+0x14>
  203b58:	e1a00001 	mov	r0, r1
  203b5c:	e1a0f00e 	mov	pc, lr

00203b60 <out_raw>:
  203b60:	e92d4010 	stmdb	sp!, {r4, lr}
  203b64:	e3520002 	cmp	r2, #2	; 0x2
  203b68:	e1a0c003 	mov	ip, r3
  203b6c:	e0804001 	add	r4, r0, r1
  203b70:	e1a03423 	mov	r3, r3, lsr #8
  203b74:	e1a0e001 	mov	lr, r1
  203b78:	05c43001 	streqb	r3, [r4, #1]
  203b7c:	0281e002 	addeq	lr, r1, #2	; 0x2
  203b80:	07c0c001 	streqb	ip, [r0, r1]
  203b84:	0a000002 	beq	203b94 <out_raw+0x34>
  203b88:	da000003 	ble	203b9c <out_raw+0x3c>
  203b8c:	e3520004 	cmp	r2, #4	; 0x4
  203b90:	0a000007 	beq	203bb4 <out_raw+0x54>
  203b94:	e1a0000e 	mov	r0, lr
  203b98:	e8bd8010 	ldmia	sp!, {r4, pc}
  203b9c:	e3520001 	cmp	r2, #1	; 0x1
  203ba0:	1afffffb 	bne	203b94 <out_raw+0x34>
  203ba4:	e28ee001 	add	lr, lr, #1	; 0x1
  203ba8:	e1a0000e 	mov	r0, lr
  203bac:	e5c4c000 	strb	ip, [r4]
  203bb0:	e8bd8010 	ldmia	sp!, {r4, pc}
  203bb4:	e1a00c2c 	mov	r0, ip, lsr #24
  203bb8:	e28ee004 	add	lr, lr, #4	; 0x4
  203bbc:	e1a0282c 	mov	r2, ip, lsr #16
  203bc0:	e1a0142c 	mov	r1, ip, lsr #8
  203bc4:	e5c40003 	strb	r0, [r4, #3]
  203bc8:	e1a0000e 	mov	r0, lr
  203bcc:	e5c4c000 	strb	ip, [r4]
  203bd0:	e5c42002 	strb	r2, [r4, #2]
  203bd4:	e5c41001 	strb	r1, [r4, #1]
  203bd8:	e8bd8010 	ldmia	sp!, {r4, pc}

00203bdc <cat_chr>:
  203bdc:	e5d03000 	ldrb	r3, [r0]
  203be0:	e3530000 	cmp	r3, #0	; 0x0
  203be4:	e20110ff 	and	r1, r1, #255	; 0xff
  203be8:	0a000002 	beq	203bf8 <cat_chr+0x1c>
  203bec:	e5f02001 	ldrb	r2, [r0, #1]!
  203bf0:	e3520000 	cmp	r2, #0	; 0x0
  203bf4:	1afffffc 	bne	203bec <cat_chr+0x10>
  203bf8:	e3a0c000 	mov	ip, #0	; 0x0
  203bfc:	e5c0c001 	strb	ip, [r0, #1]
  203c00:	e5c01000 	strb	r1, [r0]
  203c04:	e1a0f00e 	mov	pc, lr

00203c08 <cat_str>:
  203c08:	e5d03000 	ldrb	r3, [r0]
  203c0c:	ea000000 	b	203c14 <cat_str+0xc>
  203c10:	e5f03001 	ldrb	r3, [r0, #1]!
  203c14:	e3530000 	cmp	r3, #0	; 0x0
  203c18:	1afffffc 	bne	203c10 <cat_str+0x8>
  203c1c:	e5d13000 	ldrb	r3, [r1]
  203c20:	ea000001 	b	203c2c <cat_str+0x24>
  203c24:	e4c03001 	strb	r3, [r0], #1
  203c28:	e5f13001 	ldrb	r3, [r1, #1]!
  203c2c:	e3530000 	cmp	r3, #0	; 0x0
  203c30:	1afffffb 	bne	203c24 <cat_str+0x1c>
  203c34:	e3a03000 	mov	r3, #0	; 0x0
  203c38:	e5c03000 	strb	r3, [r0]
  203c3c:	e1a0f00e 	mov	pc, lr

00203c40 <cat_hex>:
  203c40:	e5d03000 	ldrb	r3, [r0]
  203c44:	ea000000 	b	203c4c <cat_hex+0xc>
  203c48:	e5f03001 	ldrb	r3, [r0, #1]!
  203c4c:	e3530000 	cmp	r3, #0	; 0x0
  203c50:	1afffffc 	bne	203c48 <cat_hex+0x8>
  203c54:	e3a0c01c 	mov	ip, #28	; 0x1c
  203c58:	e1a02c31 	mov	r2, r1, lsr ip
  203c5c:	e202300f 	and	r3, r2, #15	; 0xf
  203c60:	e3530009 	cmp	r3, #9	; 0x9
  203c64:	e2832030 	add	r2, r3, #48	; 0x30
  203c68:	e2833037 	add	r3, r3, #55	; 0x37
  203c6c:	d5c02000 	strleb	r2, [r0]
  203c70:	c5c03000 	strgtb	r3, [r0]
  203c74:	e25cc004 	subs	ip, ip, #4	; 0x4
  203c78:	e2800001 	add	r0, r0, #1	; 0x1
  203c7c:	5afffff5 	bpl	203c58 <cat_hex+0x18>
  203c80:	e3a01000 	mov	r1, #0	; 0x0
  203c84:	e5c01000 	strb	r1, [r0]
  203c88:	e1a0f00e 	mov	pc, lr

00203c8c <cat_int_radix>:
  203c8c:	e1a0c00d 	mov	ip, sp
  203c90:	e92dddf0 	stmdb	sp!, {r4, r5, r6, r7, r8, sl, fp, ip, lr, pc}
  203c94:	e2526000 	subs	r6, r2, #0	; 0x0
  203c98:	e24cb004 	sub	fp, ip, #4	; 0x4
  203c9c:	059f32dc 	ldreq	r3, [pc, #732]	; 203f80 <.text+0x3f80>
  203ca0:	e24dd024 	sub	sp, sp, #36	; 0x24
  203ca4:	05936000 	ldreq	r6, [r3]
  203ca8:	e3560000 	cmp	r6, #0	; 0x0
  203cac:	e3a0a000 	mov	sl, #0	; 0x0
  203cb0:	b2666000 	rsblt	r6, r6, #0	; 0x0
  203cb4:	e1a08000 	mov	r8, r0
  203cb8:	e1a0000a 	mov	r0, sl
  203cbc:	b3a00001 	movlt	r0, #1	; 0x1
  203cc0:	e3560063 	cmp	r6, #99	; 0x63
  203cc4:	e54ba028 	strb	sl, [fp, #-40]
  203cc8:	c2466064 	subgt	r6, r6, #100	; 0x64
  203ccc:	c3a0a001 	movgt	sl, #1	; 0x1
  203cd0:	e3510000 	cmp	r1, #0	; 0x0
  203cd4:	e1a05001 	mov	r5, r1
  203cd8:	e24b7028 	sub	r7, fp, #40	; 0x28
  203cdc:	ba000053 	blt	203e30 <cat_int_radix+0x1a4>
  203ce0:	e3500000 	cmp	r0, #0	; 0x0
  203ce4:	0a00002b 	beq	203d98 <cat_int_radix+0x10c>
  203ce8:	e356000a 	cmp	r6, #10	; 0xa
  203cec:	0a000061 	beq	203e78 <cat_int_radix+0x1ec>
  203cf0:	e3560002 	cmp	r6, #2	; 0x2
  203cf4:	0a000081 	beq	203f00 <cat_int_radix+0x274>
  203cf8:	e3560008 	cmp	r6, #8	; 0x8
  203cfc:	0a00006e 	beq	203ebc <cat_int_radix+0x230>
  203d00:	e3560010 	cmp	r6, #16	; 0x10
  203d04:	0a00008e 	beq	203f44 <cat_int_radix+0x2b8>
  203d08:	e5d8c000 	ldrb	ip, [r8]
  203d0c:	e35c0000 	cmp	ip, #0	; 0x0
  203d10:	e1a02008 	mov	r2, r8
  203d14:	e59f1268 	ldr	r1, [pc, #616]	; 203f84 <.text+0x3f84>
  203d18:	0a000002 	beq	203d28 <cat_int_radix+0x9c>
  203d1c:	e5f2e001 	ldrb	lr, [r2, #1]!
  203d20:	e35e0000 	cmp	lr, #0	; 0x0
  203d24:	1afffffc 	bne	203d1c <cat_int_radix+0x90>
  203d28:	e5d13000 	ldrb	r3, [r1]
  203d2c:	ea000001 	b	203d38 <cat_int_radix+0xac>
  203d30:	e4c23001 	strb	r3, [r2], #1
  203d34:	e5f13001 	ldrb	r3, [r1, #1]!
  203d38:	e3530000 	cmp	r3, #0	; 0x0
  203d3c:	1afffffb 	bne	203d30 <cat_int_radix+0xa4>
  203d40:	e3a03000 	mov	r3, #0	; 0x0
  203d44:	e5c23000 	strb	r3, [r2]
  203d48:	e1a01006 	mov	r1, r6
  203d4c:	e3a0200a 	mov	r2, #10	; 0xa
  203d50:	e1a00008 	mov	r0, r8
  203d54:	ebffffcc 	bl	203c8c <cat_int_radix>
  203d58:	e5d82000 	ldrb	r2, [r8]
  203d5c:	e3520000 	cmp	r2, #0	; 0x0
  203d60:	e59f1220 	ldr	r1, [pc, #544]	; 203f88 <.text+0x3f88>
  203d64:	e1a02008 	mov	r2, r8
  203d68:	0a000002 	beq	203d78 <cat_int_radix+0xec>
  203d6c:	e5f24001 	ldrb	r4, [r2, #1]!
  203d70:	e3540000 	cmp	r4, #0	; 0x0
  203d74:	1afffffc 	bne	203d6c <cat_int_radix+0xe0>
  203d78:	e5d13000 	ldrb	r3, [r1]
  203d7c:	ea000001 	b	203d88 <cat_int_radix+0xfc>
  203d80:	e4c23001 	strb	r3, [r2], #1
  203d84:	e5f13001 	ldrb	r3, [r1, #1]!
  203d88:	e3530000 	cmp	r3, #0	; 0x0
  203d8c:	1afffffb 	bne	203d80 <cat_int_radix+0xf4>
  203d90:	e3a01000 	mov	r1, #0	; 0x0
  203d94:	e5c21000 	strb	r1, [r2]
  203d98:	e1a01006 	mov	r1, r6
  203d9c:	e1a00005 	mov	r0, r5
  203da0:	ebffff49 	bl	203acc <__umodsi3>
  203da4:	e1a01006 	mov	r1, r6
  203da8:	e1a04000 	mov	r4, r0
  203dac:	e1a00005 	mov	r0, r5
  203db0:	ebffff28 	bl	203a58 <__udivsi3>
  203db4:	e3540009 	cmp	r4, #9	; 0x9
  203db8:	e1a05000 	mov	r5, r0
  203dbc:	e2840030 	add	r0, r4, #48	; 0x30
  203dc0:	e20030ff 	and	r3, r0, #255	; 0xff
  203dc4:	da000004 	ble	203ddc <cat_int_radix+0x150>
  203dc8:	e2842037 	add	r2, r4, #55	; 0x37
  203dcc:	e35a0000 	cmp	sl, #0	; 0x0
  203dd0:	e284c057 	add	ip, r4, #87	; 0x57
  203dd4:	e20230ff 	and	r3, r2, #255	; 0xff
  203dd8:	020c30ff 	andeq	r3, ip, #255	; 0xff
  203ddc:	e3550000 	cmp	r5, #0	; 0x0
  203de0:	e5673001 	strb	r3, [r7, #-1]!
  203de4:	1affffeb 	bne	203d98 <cat_int_radix+0x10c>
  203de8:	e5d83000 	ldrb	r3, [r8]
  203dec:	e3530000 	cmp	r3, #0	; 0x0
  203df0:	e1a00008 	mov	r0, r8
  203df4:	e1a02007 	mov	r2, r7
  203df8:	0a000002 	beq	203e08 <cat_int_radix+0x17c>
  203dfc:	e5f01001 	ldrb	r1, [r0, #1]!
  203e00:	e3510000 	cmp	r1, #0	; 0x0
  203e04:	1afffffc 	bne	203dfc <cat_int_radix+0x170>
  203e08:	e5d73000 	ldrb	r3, [r7]
  203e0c:	ea000001 	b	203e18 <cat_int_radix+0x18c>
  203e10:	e4c03001 	strb	r3, [r0], #1
  203e14:	e5f23001 	ldrb	r3, [r2, #1]!
  203e18:	e3530000 	cmp	r3, #0	; 0x0
  203e1c:	1afffffb 	bne	203e10 <cat_int_radix+0x184>
  203e20:	e3a0c000 	mov	ip, #0	; 0x0
  203e24:	e5c0c000 	strb	ip, [r0]
  203e28:	e24bd024 	sub	sp, fp, #36	; 0x24
  203e2c:	e89dadf0 	ldmia	sp, {r4, r5, r6, r7, r8, sl, fp, sp, pc}
  203e30:	e5d83000 	ldrb	r3, [r8]
  203e34:	e3530000 	cmp	r3, #0	; 0x0
  203e38:	e2615000 	rsb	r5, r1, #0	; 0x0
  203e3c:	e1a02008 	mov	r2, r8
  203e40:	e59f1144 	ldr	r1, [pc, #324]	; 203f8c <.text+0x3f8c>
  203e44:	0a000002 	beq	203e54 <cat_int_radix+0x1c8>
  203e48:	e5f24001 	ldrb	r4, [r2, #1]!
  203e4c:	e3540000 	cmp	r4, #0	; 0x0
  203e50:	1afffffc 	bne	203e48 <cat_int_radix+0x1bc>
  203e54:	e5d13000 	ldrb	r3, [r1]
  203e58:	ea000001 	b	203e64 <cat_int_radix+0x1d8>
  203e5c:	e4c23001 	strb	r3, [r2], #1
  203e60:	e5f13001 	ldrb	r3, [r1, #1]!
  203e64:	e3530000 	cmp	r3, #0	; 0x0
  203e68:	1afffffb 	bne	203e5c <cat_int_radix+0x1d0>
  203e6c:	e3a01000 	mov	r1, #0	; 0x0
  203e70:	e5c21000 	strb	r1, [r2]
  203e74:	eaffff99 	b	203ce0 <cat_int_radix+0x54>
  203e78:	e5d80000 	ldrb	r0, [r8]
  203e7c:	e3500000 	cmp	r0, #0	; 0x0
  203e80:	e1a02008 	mov	r2, r8
  203e84:	e59f1104 	ldr	r1, [pc, #260]	; 203f90 <.text+0x3f90>
  203e88:	0a000002 	beq	203e98 <cat_int_radix+0x20c>
  203e8c:	e5f2c001 	ldrb	ip, [r2, #1]!
  203e90:	e35c0000 	cmp	ip, #0	; 0x0
  203e94:	1afffffc 	bne	203e8c <cat_int_radix+0x200>
  203e98:	e5d13000 	ldrb	r3, [r1]
  203e9c:	ea000001 	b	203ea8 <cat_int_radix+0x21c>
  203ea0:	e4c23001 	strb	r3, [r2], #1
  203ea4:	e5f13001 	ldrb	r3, [r1, #1]!
  203ea8:	e3530000 	cmp	r3, #0	; 0x0
  203eac:	1afffffb 	bne	203ea0 <cat_int_radix+0x214>
  203eb0:	e3a01000 	mov	r1, #0	; 0x0
  203eb4:	e5c21000 	strb	r1, [r2]
  203eb8:	eaffffb6 	b	203d98 <cat_int_radix+0x10c>
  203ebc:	e5d83000 	ldrb	r3, [r8]
  203ec0:	e3530000 	cmp	r3, #0	; 0x0
  203ec4:	e1a02008 	mov	r2, r8
  203ec8:	e59f10c4 	ldr	r1, [pc, #196]	; 203f94 <.text+0x3f94>
  203ecc:	0a000002 	beq	203edc <cat_int_radix+0x250>
  203ed0:	e5f24001 	ldrb	r4, [r2, #1]!
  203ed4:	e3540000 	cmp	r4, #0	; 0x0
  203ed8:	1afffffc 	bne	203ed0 <cat_int_radix+0x244>
  203edc:	e5d13000 	ldrb	r3, [r1]
  203ee0:	ea000001 	b	203eec <cat_int_radix+0x260>
  203ee4:	e4c23001 	strb	r3, [r2], #1
  203ee8:	e5f13001 	ldrb	r3, [r1, #1]!
  203eec:	e3530000 	cmp	r3, #0	; 0x0
  203ef0:	1afffffb 	bne	203ee4 <cat_int_radix+0x258>
  203ef4:	e3a01000 	mov	r1, #0	; 0x0
  203ef8:	e5c21000 	strb	r1, [r2]
  203efc:	eaffffa5 	b	203d98 <cat_int_radix+0x10c>
  203f00:	e5d82000 	ldrb	r2, [r8]
  203f04:	e3520000 	cmp	r2, #0	; 0x0
  203f08:	e59f1088 	ldr	r1, [pc, #136]	; 203f98 <.text+0x3f98>
  203f0c:	e1a02008 	mov	r2, r8
  203f10:	0a000002 	beq	203f20 <cat_int_radix+0x294>
  203f14:	e5f2e001 	ldrb	lr, [r2, #1]!
  203f18:	e35e0000 	cmp	lr, #0	; 0x0
  203f1c:	1afffffc 	bne	203f14 <cat_int_radix+0x288>
  203f20:	e5d13000 	ldrb	r3, [r1]
  203f24:	ea000001 	b	203f30 <cat_int_radix+0x2a4>
  203f28:	e4c23001 	strb	r3, [r2], #1
  203f2c:	e5f13001 	ldrb	r3, [r1, #1]!
  203f30:	e3530000 	cmp	r3, #0	; 0x0
  203f34:	1afffffb 	bne	203f28 <cat_int_radix+0x29c>
  203f38:	e3a01000 	mov	r1, #0	; 0x0
  203f3c:	e5c21000 	strb	r1, [r2]
  203f40:	eaffff94 	b	203d98 <cat_int_radix+0x10c>
  203f44:	e5d81000 	ldrb	r1, [r8]
  203f48:	e3510000 	cmp	r1, #0	; 0x0
  203f4c:	e59f1048 	ldr	r1, [pc, #72]	; 203f9c <.text+0x3f9c>
  203f50:	e1a02008 	mov	r2, r8
  203f54:	0a000002 	beq	203f64 <cat_int_radix+0x2d8>
  203f58:	e5f20001 	ldrb	r0, [r2, #1]!
  203f5c:	e3500000 	cmp	r0, #0	; 0x0
  203f60:	eafffffb 	b	203f54 <cat_int_radix+0x2c8>
  203f64:	e5d13000 	ldrb	r3, [r1]
  203f68:	ea000001 	b	203f74 <cat_int_radix+0x2e8>
  203f6c:	e4c23001 	strb	r3, [r2], #1
  203f70:	e5f13001 	ldrb	r3, [r1, #1]!
  203f74:	e3530000 	cmp	r3, #0	; 0x0
  203f78:	1afffffb 	bne	203f6c <cat_int_radix+0x2e0>
  203f7c:	eaffff83 	b	203d90 <cat_int_radix+0x104>
  203f80:	0020458c 	eoreq	r4, r0, ip, lsl #11
  203f84:	002044f8 	streqd	r4, [r0], -r8
  203f88:	00204500 	eoreq	r4, r0, r0, lsl #10
  203f8c:	00204504 	eoreq	r4, r0, r4, lsl #10
  203f90:	0020448c 	eoreq	r4, r0, ip, lsl #9
  203f94:	002044ec 	eoreq	r4, r0, ip, ror #9
  203f98:	002044f0 	streqd	r4, [r0], -r0
  203f9c:	002044f4 	streqd	r4, [r0], -r4

00203fa0 <cat_int>:
  203fa0:	e3a0200a 	mov	r2, #10	; 0xa
  203fa4:	eaffff38 	b	203c8c <cat_int_radix>

00203fa8 <str_to_int>:
  203fa8:	e1a0c00d 	mov	ip, sp
  203fac:	e92ddff0 	stmdb	sp!, {r4, r5, r6, r7, r8, r9, sl, fp, ip, lr, pc}
  203fb0:	e3510000 	cmp	r1, #0	; 0x0
  203fb4:	e24cb004 	sub	fp, ip, #4	; 0x4
  203fb8:	e3a0a001 	mov	sl, #1	; 0x1
  203fbc:	e3a0c000 	mov	ip, #0	; 0x0
  203fc0:	e24dd018 	sub	sp, sp, #24	; 0x18
  203fc4:	e1a07002 	mov	r7, r2
  203fc8:	e50b002c 	str	r0, [fp, #-44]
  203fcc:	e50bc034 	str	ip, [fp, #-52]
  203fd0:	e50b3030 	str	r3, [fp, #-48]
  203fd4:	e1a08000 	mov	r8, r0
  203fd8:	e50bc038 	str	ip, [fp, #-56]
  203fdc:	e50ba03c 	str	sl, [fp, #-60]
  203fe0:	e50ba040 	str	sl, [fp, #-64]
  203fe4:	a0809001 	addge	r9, r0, r1
  203fe8:	ba000077 	blt	2041cc <str_to_int+0x224>
  203fec:	e51b202c 	ldr	r2, [fp, #-44]
  203ff0:	e1520009 	cmp	r2, r9
  203ff4:	2a000002 	bcs	204004 <str_to_int+0x5c>
  203ff8:	e5d23000 	ldrb	r3, [r2]
  203ffc:	e353002d 	cmp	r3, #45	; 0x2d
  204000:	02828001 	addeq	r8, r2, #1	; 0x1
  204004:	e377000a 	cmn	r7, #10	; 0xa
  204008:	0a000059 	beq	204174 <str_to_int+0x1cc>
  20400c:	e1580009 	cmp	r8, r9
  204010:	23a0a000 	movcs	sl, #0	; 0x0
  204014:	2a000031 	bcs	2040e0 <str_to_int+0x138>
  204018:	e4d81001 	ldrb	r1, [r8], #1
  20401c:	e2412030 	sub	r2, r1, #48	; 0x30
  204020:	e20240ff 	and	r4, r2, #255	; 0xff
  204024:	e3540009 	cmp	r4, #9	; 0x9
  204028:	e2410041 	sub	r0, r1, #65	; 0x41
  20402c:	e1a06002 	mov	r6, r2
  204030:	9a000007 	bls	204054 <str_to_int+0xac>
  204034:	e3500019 	cmp	r0, #25	; 0x19
  204038:	e2413061 	sub	r3, r1, #97	; 0x61
  20403c:	e2416037 	sub	r6, r1, #55	; 0x37
  204040:	9a000003 	bls	204054 <str_to_int+0xac>
  204044:	e3530019 	cmp	r3, #25	; 0x19
  204048:	83a0a000 	movhi	sl, #0	; 0x0
  20404c:	e2416057 	sub	r6, r1, #87	; 0x57
  204050:	81a0600a 	movhi	r6, sl
  204054:	e51b4034 	ldr	r4, [fp, #-52]
  204058:	e0040497 	mul	r4, r7, r4
  20405c:	e1a01007 	mov	r1, r7
  204060:	e1a00004 	mov	r0, r4
  204064:	ebfffe7b 	bl	203a58 <__udivsi3>
  204068:	e51b5038 	ldr	r5, [fp, #-56]
  20406c:	e0050597 	mul	r5, r7, r5
  204070:	e51b1034 	ldr	r1, [fp, #-52]
  204074:	e1a02fa4 	mov	r2, r4, lsr #31
  204078:	e1500001 	cmp	r0, r1
  20407c:	13822001 	orrne	r2, r2, #1	; 0x1
  204080:	e3520000 	cmp	r2, #0	; 0x0
  204084:	e51b003c 	ldr	r0, [fp, #-60]
  204088:	13a00000 	movne	r0, #0	; 0x0
  20408c:	e1560007 	cmp	r6, r7
  204090:	e1a0e000 	mov	lr, r0
  204094:	a3a0a000 	movge	sl, #0	; 0x0
  204098:	e0944006 	adds	r4, r4, r6
  20409c:	43a0e000 	movmi	lr, #0	; 0x0
  2040a0:	e1a01007 	mov	r1, r7
  2040a4:	e1a00005 	mov	r0, r5
  2040a8:	e50b4034 	str	r4, [fp, #-52]
  2040ac:	e50be03c 	str	lr, [fp, #-60]
  2040b0:	ebfffe68 	bl	203a58 <__udivsi3>
  2040b4:	e51b3038 	ldr	r3, [fp, #-56]
  2040b8:	e51bc040 	ldr	ip, [fp, #-64]
  2040bc:	e1500003 	cmp	r0, r3
  2040c0:	13a0c000 	movne	ip, #0	; 0x0
  2040c4:	e1a0100c 	mov	r1, ip
  2040c8:	e0956006 	adds	r6, r5, r6
  2040cc:	23a01000 	movcs	r1, #0	; 0x0
  2040d0:	e1580009 	cmp	r8, r9
  2040d4:	e50b6038 	str	r6, [fp, #-56]
  2040d8:	e50b1040 	str	r1, [fp, #-64]
  2040dc:	3affffcd 	bcc	204018 <str_to_int+0x70>
  2040e0:	e51bc03c 	ldr	ip, [fp, #-60]
  2040e4:	e35a0000 	cmp	sl, #0	; 0x0
  2040e8:	135c0000 	cmpne	ip, #0	; 0x0
  2040ec:	03a02000 	moveq	r2, #0	; 0x0
  2040f0:	13a02001 	movne	r2, #1	; 0x1
  2040f4:	0a00000e 	beq	204134 <str_to_int+0x18c>
  2040f8:	e51b002c 	ldr	r0, [fp, #-44]
  2040fc:	e5d03000 	ldrb	r3, [r0]
  204100:	e353002d 	cmp	r3, #45	; 0x2d
  204104:	051b2034 	ldreq	r2, [fp, #-52]
  204108:	02622000 	rsbeq	r2, r2, #0	; 0x0
  20410c:	050b2034 	streq	r2, [fp, #-52]
  204110:	e35a0000 	cmp	sl, #0	; 0x0
  204114:	1a000000 	bne	20411c <str_to_int+0x174>
  204118:	e50ba034 	str	sl, [fp, #-52]
  20411c:	e24b0034 	sub	r0, fp, #52	; 0x34
  204120:	e8900005 	ldmia	r0, {r0, r2}
  204124:	e3520000 	cmp	r2, #0	; 0x0
  204128:	1582a000 	strne	sl, [r2]
  20412c:	e24bd028 	sub	sp, fp, #40	; 0x28
  204130:	e89daff0 	ldmia	sp, {r4, r5, r6, r7, r8, r9, sl, fp, sp, pc}
  204134:	e51bc040 	ldr	ip, [fp, #-64]
  204138:	e35a0000 	cmp	sl, #0	; 0x0
  20413c:	135c0000 	cmpne	ip, #0	; 0x0
  204140:	03a01000 	moveq	r1, #0	; 0x0
  204144:	13a01001 	movne	r1, #1	; 0x1
  204148:	01a0a001 	moveq	sl, r1
  20414c:	0afffff1 	beq	204118 <str_to_int+0x170>
  204150:	e51b102c 	ldr	r1, [fp, #-44]
  204154:	e5d10000 	ldrb	r0, [r1]
  204158:	e51b3038 	ldr	r3, [fp, #-56]
  20415c:	e350002d 	cmp	r0, #45	; 0x2d
  204160:	e50b3034 	str	r3, [fp, #-52]
  204164:	01a0a002 	moveq	sl, r2
  204168:	1affffe8 	bne	204110 <str_to_int+0x168>
  20416c:	e50ba034 	str	sl, [fp, #-52]
  204170:	eaffffe9 	b	20411c <str_to_int+0x174>
  204174:	e2882002 	add	r2, r8, #2	; 0x2
  204178:	e1520009 	cmp	r2, r9
  20417c:	e2877014 	add	r7, r7, #20	; 0x14
  204180:	8affffa1 	bhi	20400c <str_to_int+0x64>
  204184:	e5d80000 	ldrb	r0, [r8]
  204188:	e3500030 	cmp	r0, #48	; 0x30
  20418c:	0a000018 	beq	2041f4 <str_to_int+0x24c>
  204190:	e1520009 	cmp	r2, r9
  204194:	8affff9c 	bhi	20400c <str_to_int+0x64>
  204198:	e5d81000 	ldrb	r1, [r8]
  20419c:	e3510030 	cmp	r1, #48	; 0x30
  2041a0:	0a00000d 	beq	2041dc <str_to_int+0x234>
  2041a4:	e1520009 	cmp	r2, r9
  2041a8:	8affff97 	bhi	20400c <str_to_int+0x64>
  2041ac:	e5d80000 	ldrb	r0, [r8]
  2041b0:	e3500030 	cmp	r0, #48	; 0x30
  2041b4:	1affff94 	bne	20400c <str_to_int+0x64>
  2041b8:	e5d8c001 	ldrb	ip, [r8, #1]
  2041bc:	e35c0062 	cmp	ip, #98	; 0x62
  2041c0:	01a08002 	moveq	r8, r2
  2041c4:	03a07002 	moveq	r7, #2	; 0x2
  2041c8:	eaffff8f 	b	20400c <str_to_int+0x64>
  2041cc:	ebfffdea 	bl	20397c <strlen>
  2041d0:	e51b102c 	ldr	r1, [fp, #-44]
  2041d4:	e0809001 	add	r9, r0, r1
  2041d8:	eaffff83 	b	203fec <str_to_int+0x44>
  2041dc:	e5d83001 	ldrb	r3, [r8, #1]
  2041e0:	e353006f 	cmp	r3, #111	; 0x6f
  2041e4:	01a08002 	moveq	r8, r2
  2041e8:	03a07008 	moveq	r7, #8	; 0x8
  2041ec:	1affffec 	bne	2041a4 <str_to_int+0x1fc>
  2041f0:	eaffff85 	b	20400c <str_to_int+0x64>
  2041f4:	e5d8c001 	ldrb	ip, [r8, #1]
  2041f8:	e35c0078 	cmp	ip, #120	; 0x78
  2041fc:	01a08002 	moveq	r8, r2
  204200:	02877006 	addeq	r7, r7, #6	; 0x6
  204204:	1affffe1 	bne	204190 <str_to_int+0x1e8>
  204208:	eaffff7f 	b	20400c <str_to_int+0x64>

0020420c <parse_two_comma_separated_hex>:
  20420c:	e1a0c00d 	mov	ip, sp
  204210:	e92dd9f0 	stmdb	sp!, {r4, r5, r6, r7, r8, fp, ip, lr, pc}
  204214:	e24cb004 	sub	fp, ip, #4	; 0x4
  204218:	e1a07001 	mov	r7, r1
  20421c:	e3a0102c 	mov	r1, #44	; 0x2c
  204220:	e1a08002 	mov	r8, r2
  204224:	e1a05000 	mov	r5, r0
  204228:	ebfffddd 	bl	2039a4 <strchr>
  20422c:	e2504000 	subs	r4, r0, #0	; 0x0
  204230:	e3a02010 	mov	r2, #16	; 0x10
  204234:	e3a03000 	mov	r3, #0	; 0x0
  204238:	e3e01000 	mvn	r1, #0	; 0x0
  20423c:	e1a00005 	mov	r0, r5
  204240:	e2846001 	add	r6, r4, #1	; 0x1
  204244:	0a00000f 	beq	204288 <parse_two_comma_separated_hex+0x7c>
  204248:	e0651004 	rsb	r1, r5, r4
  20424c:	ebffff55 	bl	203fa8 <str_to_int>
  204250:	e3a01023 	mov	r1, #35	; 0x23
  204254:	e5870000 	str	r0, [r7]
  204258:	e1a00006 	mov	r0, r6
  20425c:	ebfffdd0 	bl	2039a4 <strchr>
  204260:	e3a03000 	mov	r3, #0	; 0x0
  204264:	e250e000 	subs	lr, r0, #0	; 0x0
  204268:	11a0c003 	movne	ip, r3
  20426c:	e3e01000 	mvn	r1, #0	; 0x0
  204270:	e3a02010 	mov	r2, #16	; 0x10
  204274:	e1a00006 	mov	r0, r6
  204278:	15cec000 	strneb	ip, [lr]
  20427c:	ebffff49 	bl	203fa8 <str_to_int>
  204280:	e5880000 	str	r0, [r8]
  204284:	e89da9f0 	ldmia	sp, {r4, r5, r6, r7, r8, fp, sp, pc}
  204288:	e1a00005 	mov	r0, r5
  20428c:	e3a02010 	mov	r2, #16	; 0x10
  204290:	e1a03004 	mov	r3, r4
  204294:	ebffff43 	bl	203fa8 <str_to_int>
  204298:	e5870000 	str	r0, [r7]
  20429c:	e5884000 	str	r4, [r8]
  2042a0:	e89da9f0 	ldmia	sp, {r4, r5, r6, r7, r8, fp, sp, pc}

002042a4 <parse_comma_separated_ints>:
  2042a4:	e1a0c00d 	mov	ip, sp
  2042a8:	e92ddff0 	stmdb	sp!, {r4, r5, r6, r7, r8, r9, sl, fp, ip, lr, pc}
  2042ac:	e1a07003 	mov	r7, r3
  2042b0:	e24cb004 	sub	fp, ip, #4	; 0x4
  2042b4:	e24dd004 	sub	sp, sp, #4	; 0x4
  2042b8:	e3a03001 	mov	r3, #1	; 0x1
  2042bc:	e5873000 	str	r3, [r7]
  2042c0:	e1a04000 	mov	r4, r0
  2042c4:	e5d00000 	ldrb	r0, [r0]
  2042c8:	e3500020 	cmp	r0, #32	; 0x20
  2042cc:	e1a0a001 	mov	sl, r1
  2042d0:	e1a08002 	mov	r8, r2
  2042d4:	e3a06000 	mov	r6, #0	; 0x0
  2042d8:	1a000002 	bne	2042e8 <parse_comma_separated_ints+0x44>
  2042dc:	e5f40001 	ldrb	r0, [r4, #1]!
  2042e0:	e3500020 	cmp	r0, #32	; 0x20
  2042e4:	0afffffc 	beq	2042dc <parse_comma_separated_ints+0x38>
  2042e8:	e20010ff 	and	r1, r0, #255	; 0xff
  2042ec:	e3510000 	cmp	r1, #0	; 0x0
  2042f0:	01a00001 	moveq	r0, r1
  2042f4:	089daff8 	ldmeqia	sp, {r3, r4, r5, r6, r7, r8, r9, sl, fp, sp, pc}
  2042f8:	e24b902c 	sub	r9, fp, #44	; 0x2c
  2042fc:	e3500020 	cmp	r0, #32	; 0x20
  204300:	1a000002 	bne	204310 <parse_comma_separated_ints+0x6c>
  204304:	e5f40001 	ldrb	r0, [r4, #1]!
  204308:	e3500020 	cmp	r0, #32	; 0x20
  20430c:	0afffffc 	beq	204304 <parse_comma_separated_ints+0x60>
  204310:	e3a0102c 	mov	r1, #44	; 0x2c
  204314:	e1a00004 	mov	r0, r4
  204318:	ebfffda1 	bl	2039a4 <strchr>
  20431c:	e2505000 	subs	r5, r0, #0	; 0x0
  204320:	11a01005 	movne	r1, r5
  204324:	0a00001a 	beq	204394 <parse_comma_separated_ints+0xf0>
  204328:	e1510004 	cmp	r1, r4
  20432c:	9a000005 	bls	204348 <parse_comma_separated_ints+0xa4>
  204330:	e5512001 	ldrb	r2, [r1, #-1]
  204334:	e3520020 	cmp	r2, #32	; 0x20
  204338:	1a000002 	bne	204348 <parse_comma_separated_ints+0xa4>
  20433c:	e2411001 	sub	r1, r1, #1	; 0x1
  204340:	e1510004 	cmp	r1, r4
  204344:	8afffff9 	bhi	204330 <parse_comma_separated_ints+0x8c>
  204348:	e1a03009 	mov	r3, r9
  20434c:	e1a00004 	mov	r0, r4
  204350:	e0641001 	rsb	r1, r4, r1
  204354:	e3e02009 	mvn	r2, #9	; 0x9
  204358:	ebffff12 	bl	203fa8 <str_to_int>
  20435c:	e1560008 	cmp	r6, r8
  204360:	a3a03000 	movge	r3, #0	; 0x0
  204364:	b78a0106 	strlt	r0, [sl, r6, lsl #2]
  204368:	a5873000 	strge	r3, [r7]
  20436c:	e51b402c 	ldr	r4, [fp, #-44]
  204370:	b2866001 	addlt	r6, r6, #1	; 0x1
  204374:	e3540000 	cmp	r4, #0	; 0x0
  204378:	05874000 	streq	r4, [r7]
  20437c:	e3550000 	cmp	r5, #0	; 0x0
  204380:	e2854001 	add	r4, r5, #1	; 0x1
  204384:	0a000006 	beq	2043a4 <parse_comma_separated_ints+0x100>
  204388:	e5d50001 	ldrb	r0, [r5, #1]
  20438c:	e3500020 	cmp	r0, #32	; 0x20
  204390:	eaffffda 	b	204300 <parse_comma_separated_ints+0x5c>
  204394:	e1a00004 	mov	r0, r4
  204398:	ebfffd77 	bl	20397c <strlen>
  20439c:	e0801004 	add	r1, r0, r4
  2043a0:	eaffffe0 	b	204328 <parse_comma_separated_ints+0x84>
  2043a4:	e1a00006 	mov	r0, r6
  2043a8:	e89daff8 	ldmia	sp, {r3, r4, r5, r6, r7, r8, r9, sl, fp, sp, pc}
Disassembly of section .rodata:

002043ac <hex.0>:
  2043ac:	33323130 	teqcc	r2, #12	; 0xc
  2043b0:	37363534 	undefined
  2043b4:	42413938 	submi	r3, r1, #917504	; 0xe0000
  2043b8:	46454443 	strmib	r4, [r5], -r3, asr #8
  2043bc:	00000000 	andeq	r0, r0, r0
  2043c0:	61746164 	cmnvs	r4, r4, ror #2
  2043c4:	6f626120 	swivs	0x00626120
  2043c8:	61207472 	teqvs	r0, r2, ror r4
  2043cc:	78252074 	stmvcda	r5!, {r2, r4, r5, r6, sp}
  2043d0:	0000000a 	andeq	r0, r0, sl
  2043d4:	73676572 	cmnvc	r7, #478150656	; 0x1c800000
  2043d8:	00000a3a 	andeq	r0, r0, sl, lsr sl
  2043dc:	25207825 	strcs	r7, [r0, #-2085]!
  2043e0:	78252078 	stmvcda	r5!, {r3, r4, r5, r6, sp}
  2043e4:	0a782520 	beq	200d86c <_ram_end+0x1e08d60>
  2043e8:	00000000 	andeq	r0, r0, r0
  2043ec:	20323172 	eorcss	r3, r2, r2, ror r1
  2043f0:	72207825 	eorvc	r7, r0, #2424832	; 0x250000
  2043f4:	25203431 	strcs	r3, [r0, #-1073]!
  2043f8:	00000078 	andeq	r0, r0, r8, ror r0
  2043fc:	66657250 	undefined
  204400:	68637465 	stmvsda	r3!, {r0, r2, r5, r6, sl, ip, sp, lr}^
  204404:	6f624120 	swivs	0x00624120
  204408:	61207472 	teqvs	r0, r2, ror r4
  20440c:	78252074 	stmvcda	r5!, {r2, r4, r5, r6, sp}
  204410:	0000000a 	andeq	r0, r0, sl
  204414:	65646e75 	strvsb	r6, [r4, #-3701]!
  204418:	656e6966 	strvsb	r6, [lr, #-2406]!
  20441c:	6e692064 	cdpvs	0, 6, cr2, cr9, cr4, {3}
  204420:	75727473 	ldrvcb	r7, [r2, #-1139]!
  204424:	6f697463 	swivs	0x00697463
  204428:	7461206e 	strvcbt	r2, [r1], #-110
  20442c:	0a782520 	beq	200d8b4 <_ram_end+0x1e08da8>
  204430:	00000000 	andeq	r0, r0, r0
  204434:	74666f73 	strvcbt	r6, [r6], #-3955
  204438:	65726177 	ldrvsb	r6, [r2, #-375]!
  20443c:	746e6920 	strvcbt	r6, [lr], #-2336
  204440:	75727265 	ldrvcb	r7, [r2, #-613]!
  204444:	61207470 	teqvs	r0, r0, ror r4
  204448:	78252074 	stmvcda	r5!, {r2, r4, r5, r6, sp}
  20444c:	0000000a 	andeq	r0, r0, sl
  204450:	72757073 	rsbvcs	r7, r5, #115	; 0x73
  204454:	73756f69 	cmnvc	r5, #420	; 0x1a4
  204458:	746e6920 	strvcbt	r6, [lr], #-2336
  20445c:	75727265 	ldrvcb	r7, [r2, #-613]!
  204460:	61207470 	teqvs	r0, r0, ror r4
  204464:	78252074 	stmvcda	r5!, {r2, r4, r5, r6, sp}
  204468:	0000000a 	andeq	r0, r0, sl
  20446c:	0000002e 	andeq	r0, r0, lr, lsr #32
  204470:	6964750a 	stmvsdb	r4!, {r1, r3, r8, sl, ip, sp, lr}^
  204474:	6c206b73 	stcvs	11, cr6, [r0], #-460
  204478:	6564616f 	strvsb	r6, [r4, #-367]!
  20447c:	30762072 	rsbccs	r2, r6, r2, ror r0
  204480:	000a322e 	andeq	r3, sl, lr, lsr #4
  204484:	746f6f62 	strvcbt	r6, [pc], #3938	; 20448c <hex.0+0xe0>
  204488:	0a676e69 	beq	1bdfe34 <_ram_end+0x19db328>
  20448c:	00000000 	andeq	r0, r0, r0
  204490:	65746e65 	ldrvsb	r6, [r4, #-3685]!
  204494:	676e6972 	undefined
  204498:	62737520 	rsbvss	r7, r3, #134217728	; 0x8000000
  20449c:	616f6c20 	cmnvs	pc, r0, lsr #24
  2044a0:	0a726564 	beq	1e9da38 <_ram_end+0x1c98f2c>
  2044a4:	00000000 	andeq	r0, r0, r0
  2044a8:	00000d0a 	andeq	r0, r0, sl, lsl #26
  2044ac:	0000003e 	andeq	r0, r0, lr, lsr r0
  2044b0:	73696475 	cmnvc	r9, #1962934272	; 0x75000000
  2044b4:	2e30206b 	cdpcs	0, 3, cr2, cr0, cr11, {3}
  2044b8:	00000032 	andeq	r0, r0, r2, lsr r0
  2044bc:	003e0d0a 	eoreqs	r0, lr, sl, lsl #26
  2044c0:	6d6d6f63 	stcvsl	15, cr6, [sp, #-396]!
  2044c4:	73646e61 	cmnvc	r4, #1552	; 0x610
  2044c8:	00000a3a 	andeq	r0, r0, sl, lsr sl
  2044cc:	000a3f3f 	andeq	r3, sl, pc, lsr pc
  2044d0:	00082008 	andeq	r2, r8, r8
  2044d4:	67616964 	strvsb	r6, [r1, -r4, ror #18]!
  2044d8:	0000203e 	andeq	r2, r0, lr, lsr r0
  2044dc:	20783325 	rsbcss	r3, r8, r5, lsr #6
  2044e0:	00000000 	andeq	r0, r0, r0
  2044e4:	25207325 	strcs	r7, [r0, #-805]!
  2044e8:	00000a73 	andeq	r0, r0, r3, ror sl
  2044ec:	00006f30 	andeq	r6, r0, r0, lsr pc
  2044f0:	00006230 	andeq	r6, r0, r0, lsr r2
  2044f4:	00007830 	andeq	r7, r0, r0, lsr r8
  2044f8:	69646172 	stmvsdb	r4!, {r1, r4, r5, r6, r8, sp, lr}^
  2044fc:	00000078 	andeq	r0, r0, r8, ror r0
  204500:	0000005f 	andeq	r0, r0, pc, asr r0
  204504:	Address 0x204504 is out of bounds.

Disassembly of section .data:

00204508 <line>:
  204508:	0001c200 	andeq	ip, r1, r0, lsl #4
  20450c:	00080000 	andeq	r0, r8, r0

00204510 <cfgDescriptor>:
  204510:	00430209 	subeq	r0, r3, r9, lsl #4
  204514:	c0000102 	andgt	r0, r0, r2, lsl #2
  204518:	00040900 	andeq	r0, r4, r0, lsl #18
  20451c:	02020100 	andeq	r0, r2, #0	; 0x0
  204520:	24050000 	strcs	r0, [r5]
  204524:	04011000 	streq	r1, [r1]
  204528:	05000224 	streq	r0, [r0, #-548]
  20452c:	01000624 	tsteq	r0, r4, lsr #12
  204530:	00012405 	andeq	r2, r1, r5, lsl #8
  204534:	83050701 	tsthi	r5, #262144	; 0x40000
  204538:	ff000803 	swinv	0x00000803
  20453c:	00010409 	andeq	r0, r1, r9, lsl #8
  204540:	00000a02 	andeq	r0, r0, r2, lsl #20
  204544:	01050700 	tsteq	r5, r0, lsl #14
  204548:	00004002 	andeq	r4, r0, r2
  20454c:	02820507 	addeq	r0, r2, #29360128	; 0x1c00000
  204550:	12000040 	andne	r0, r0, #64	; 0x40

00204553 <devDescriptor>:
  204553:	01100112 	tsteq	r0, r2, lsl r1
  204557:	08000002 	stmeqda	r0, {r1}
  20455b:	612503eb 	smulwtvs	r5, fp, r3
  20455f:	00000110 	andeq	r0, r0, r0, lsl r1
  204563:	00000100 	andeq	r0, r0, r0, lsl #2
	...

00204568 <pow10.1>:
  204568:	00000000 	andeq	r0, r0, r0
  20456c:	00000001 	andeq	r0, r0, r1
  204570:	0000000a 	andeq	r0, r0, sl
  204574:	00000064 	andeq	r0, r0, r4, rrx
  204578:	000003e8 	andeq	r0, r0, r8, ror #7
  20457c:	00002710 	andeq	r2, r0, r0, lsl r7
  204580:	000186a0 	andeq	r8, r1, r0, lsr #13
  204584:	000f4240 	andeq	r4, pc, r0, asr #4
  204588:	00989680 	addeqs	r9, r8, r0, lsl #13

0020458c <default_radix>:
  20458c:	0000000a 	andeq	r0, r0, sl
Disassembly of section .bss:

00204590 <interactive>:
  204590:	00000000 	andeq	r0, r0, r0

00204594 <buffer>:
	...

00204694 <currentConnection>:
  204694:	00000000 	andeq	r0, r0, r0

00204698 <pUdp>:
  204698:	00000000 	andeq	r0, r0, r0

0020469c <currentConfiguration>:
  20469c:	00000000 	andeq	r0, r0, r0

002046a0 <currentRcvBank>:
  2046a0:	00000000 	andeq	r0, r0, r0

002046a4 <buf>:
	...

002048a4 <notfirsttime>:
  2048a4:	00000000 	andeq	r0, r0, r0

002048a8 <out>:
	...

00204aac <samba_sendfile_addr>:
  204aac:	00000000 	andeq	r0, r0, r0

00204ab0 <out_len>:
  204ab0:	00000000 	andeq	r0, r0, r0

00204ab4 <usb_bulk_read_length>:
  204ab4:	00000000 	andeq	r0, r0, r0

00204ab8 <led_state>:
  204ab8:	00000000 	andeq	r0, r0, r0

00204abc <led_count>:
  204abc:	00000000 	andeq	r0, r0, r0

00204ac0 <cli_state>:
  204ac0:	00000000 	andeq	r0, r0, r0

00204ac4 <rx_ring_cnt>:
	...

00204ac5 <rx_ring>:
	...

00204ad8 <cli_line_len>:
  204ad8:	00000000 	andeq	r0, r0, r0

00204adc <cli_result>:
  204adc:	00000000 	andeq	r0, r0, r0

00204ae0 <cli_disabled>:
  204ae0:	00000000 	andeq	r0, r0, r0

00204ae4 <rx_ring_head>:
	...

00204ae5 <rx_ring_tail>:
	...

00204ae6 <cli_line>:
	...

00204b08 <usart_ints>:
  204b08:	00000000 	andeq	r0, r0, r0
Disassembly of section .debug_abbrev:

00000000 <.debug_abbrev>:
       0:	10011101 	andne	r1, r1, r1, lsl #2
       4:	11011206 	tstne	r1, r6, lsl #4
       8:	130e2501 	tstne	lr, #4194304	; 0x400000
       c:	1b0e030b 	blne	380c40 <_ram_end+0x17c134>
      10:	0200000e 	andeq	r0, r0, #14	; 0xe
      14:	0e030024 	cdpeq	0, 0, cr0, cr3, cr4, {1}
      18:	0b3e0b0b 	bleq	f82c4c <_ram_end+0xd7e140>
      1c:	35030000 	strcc	r0, [r3]
      20:	00134900 	andeqs	r4, r3, r0, lsl #18
      24:	01010400 	tsteq	r1, r0, lsl #8
      28:	13491301 	cmpne	r9, #67108864	; 0x4000000
      2c:	21050000 	tstcs	r5, r0
      30:	2f134900 	swics	0x00134900
      34:	0600000b 	streq	r0, [r0], -fp
      38:	13010113 	tstne	r1, #-1073741820	; 0xc0000004
      3c:	0b0b0e03 	bleq	2c3850 <_ram_end+0xbed44>
      40:	053b0b3a 	ldreq	r0, [fp, #-2874]!
      44:	0d070000 	stceq	0, cr0, [r7]
      48:	3a0e0300 	bcc	380c50 <_ram_end+0x17c144>
      4c:	49053b0b 	stmmidb	r5, {r0, r1, r3, r8, r9, fp, ip, sp}
      50:	000a3813 	andeq	r3, sl, r3, lsl r8
      54:	00160800 	andeqs	r0, r6, r0, lsl #16
      58:	0b3a0e03 	bleq	e8386c <_ram_end+0xc7ed60>
      5c:	1349053b 	cmpne	r9, #247463936	; 0xec00000
      60:	0f090000 	swieq	0x00090000
      64:	490b0b00 	stmmidb	fp, {r8, r9, fp}
      68:	0a000013 	beq	bc <.debug_abbrev+0xbc>
      6c:	1301012e 	tstne	r1, #-2147483637	; 0x8000000b
      70:	0e030c3f 	mcreq	12, 0, r0, cr3, cr15, {1}
      74:	0b3b0b3a 	bleq	ec2d64 <_ram_end+0xcbe258>
      78:	01110c27 	tsteq	r1, r7, lsr #24
      7c:	0a400112 	beq	10004cc <_ram_end+0xdfb9c0>
      80:	340b0000 	strcc	r0, [fp]
      84:	3a0e0300 	bcc	380c8c <_ram_end+0x17c180>
      88:	490b3b0b 	stmmidb	fp, {r0, r1, r3, r8, r9, fp, ip, sp}
      8c:	000a0213 	andeq	r0, sl, r3, lsl r2
      90:	002e0c00 	eoreq	r0, lr, r0, lsl #24
      94:	0e030c3f 	mcreq	12, 0, r0, cr3, cr15, {1}
      98:	0b3b0b3a 	bleq	ec2d88 <_ram_end+0xcbe27c>
      9c:	01110c27 	tsteq	r1, r7, lsr #24
      a0:	0a400112 	beq	10004f0 <_ram_end+0xdfb9e4>
      a4:	2e0d0000 	cdpcs	0, 0, cr0, cr13, cr0, {0}
      a8:	030c3f00 	tsteq	ip, #0	; 0x0
      ac:	3b0b3a0e 	blcc	2ce8ec <_ram_end+0xc9de0>
      b0:	490c270b 	stmmidb	ip, {r0, r1, r3, r8, r9, sl, sp}
      b4:	12011113 	andne	r1, r1, #-1073741820	; 0xc0000004
      b8:	000a4001 	andeq	r4, sl, r1
      bc:	00240e00 	eoreq	r0, r4, r0, lsl #28
      c0:	0b0b0803 	bleq	2c20d4 <_ram_end+0xbd5c8>
      c4:	00000b3e 	andeq	r0, r0, lr, lsr fp
      c8:	01110100 	tsteq	r1, r0, lsl #2
      cc:	01120610 	tsteq	r2, r0, lsl r6
      d0:	0e250111 	mcreq	1, 1, r0, cr5, cr1, {0}
      d4:	0e030b13 	mcreq	11, 0, r0, cr3, cr3, {0}
      d8:	00000e1b 	andeq	r0, r0, fp, lsl lr
      dc:	03002402 	tsteq	r0, #33554432	; 0x2000000
      e0:	3e0b0b0e 	fmacdcc	d0, d11, d14
      e4:	0300000b 	tsteq	r0, #11	; 0xb
      e8:	1301012e 	tstne	r1, #-2147483637	; 0x8000000b
      ec:	0e030c3f 	mcreq	12, 0, r0, cr3, cr15, {1}
      f0:	0b3b0b3a 	bleq	ec2de0 <_ram_end+0xcbe2d4>
      f4:	01110c27 	tsteq	r1, r7, lsr #24
      f8:	0a400112 	beq	1000548 <_ram_end+0xdfba3c>
      fc:	34040000 	strcc	r0, [r4]
     100:	3a080300 	bcc	200d08 <usb_enumerate+0x2ec>
     104:	490b3b0b 	stmmidb	fp, {r0, r1, r3, r8, r9, fp, ip, sp}
     108:	000a0213 	andeq	r0, sl, r3, lsl r2
     10c:	00340500 	eoreqs	r0, r4, r0, lsl #10
     110:	0b3a0803 	bleq	e82124 <_ram_end+0xc7d618>
     114:	13490b3b 	cmpne	r9, #60416	; 0xec00
     118:	0f060000 	swieq	0x00060000
     11c:	490b0b00 	stmmidb	fp, {r8, r9, fp}
     120:	07000013 	smladeq	r0, r3, r0, r0
     124:	08030024 	stmeqda	r3, {r2, r5}
     128:	0b3e0b0b 	bleq	f82d5c <_ram_end+0xd7e250>
     12c:	34080000 	strcc	r0, [r8]
     130:	3a0e0300 	bcc	380d38 <_ram_end+0x17c22c>
     134:	490b3b0b 	stmmidb	fp, {r0, r1, r3, r8, r9, fp, ip, sp}
     138:	000a0213 	andeq	r0, sl, r3, lsl r2
     13c:	012e0900 	teqeq	lr, r0, lsl #18
     140:	0e030c3f 	mcreq	12, 0, r0, cr3, cr15, {1}
     144:	0b3b0b3a 	bleq	ec2e34 <_ram_end+0xcbe328>
     148:	0c3c1349 	ldceq	3, cr1, [ip], #-292
     14c:	180a0000 	stmneda	sl, {}
     150:	0b000000 	bleq	158 <.debug_abbrev+0x158>
     154:	0c3f012e 	ldfeqs	f0, [pc], #-184
     158:	0b3a0e03 	bleq	e8396c <_ram_end+0xc7ee60>
     15c:	0c270b3b 	stceq	11, cr0, [r7], #-236
     160:	01120111 	tsteq	r2, r1, lsl r1
     164:	00000a40 	andeq	r0, r0, r0, asr #20
     168:	3f002e0c 	swicc	0x00002e0c
     16c:	3a0e030c 	bcc	380da4 <_ram_end+0x17c298>
     170:	270b3b0b 	strcs	r3, [fp, -fp, lsl #22]
     174:	000c3c0c 	andeq	r3, ip, ip, lsl #24
     178:	11010000 	tstne	r1, r0
     17c:	12061001 	andne	r1, r6, #1	; 0x1
     180:	25011101 	strcs	r1, [r1, #-257]
     184:	030b130e 	tsteq	fp, #939524096	; 0x38000000
     188:	000e1b0e 	andeq	r1, lr, lr, lsl #22
     18c:	00240200 	eoreq	r0, r4, r0, lsl #4
     190:	0b0b0e03 	bleq	2c39a4 <_ram_end+0xbee98>
     194:	00000b3e 	andeq	r0, r0, lr, lsr fp
     198:	03001603 	tsteq	r0, #3145728	; 0x300000
     19c:	3b0b3a08 	blcc	2ce9c4 <_ram_end+0xc9eb8>
     1a0:	0013490b 	andeqs	r4, r3, fp, lsl #18
     1a4:	00350400 	eoreqs	r0, r5, r0, lsl #8
     1a8:	00001349 	andeq	r1, r0, r9, asr #6
     1ac:	01011305 	tsteq	r1, r5, lsl #6
     1b0:	0b0e0313 	bleq	380e04 <_ram_end+0x17c2f8>
     1b4:	3b0b3a0b 	blcc	2ce9e8 <_ram_end+0xc9edc>
     1b8:	06000005 	streq	r0, [r0], -r5
     1bc:	0e03000d 	cdpeq	0, 0, cr0, cr3, cr13, {0}
     1c0:	053b0b3a 	ldreq	r0, [fp, #-2874]!
     1c4:	0a381349 	beq	e04ef0 <_ram_end+0xc003e4>
     1c8:	16070000 	strne	r0, [r7], -r0
     1cc:	3a0e0300 	bcc	380dd4 <_ram_end+0x17c2c8>
     1d0:	49053b0b 	stmmidb	r5, {r0, r1, r3, r8, r9, fp, ip, sp}
     1d4:	08000013 	stmeqda	r0, {r0, r1, r4}
     1d8:	0b0b000f 	bleq	2c021c <_ram_end+0xbb710>
     1dc:	00001349 	andeq	r1, r0, r9, asr #6
     1e0:	01010109 	tsteq	r1, r9, lsl #2
     1e4:	00134913 	andeqs	r4, r3, r3, lsl r9
     1e8:	00210a00 	eoreq	r0, r1, r0, lsl #20
     1ec:	0b2f1349 	bleq	bc4f18 <_ram_end+0x9c040c>
     1f0:	2e0b0000 	cdpcs	0, 0, cr0, cr11, cr0, {0}
     1f4:	3f130101 	swicc	0x00130101
     1f8:	3a0e030c 	bcc	380e30 <_ram_end+0x17c324>
     1fc:	270b3b0b 	strcs	r3, [fp, -fp, lsl #22]
     200:	1201110c 	andne	r1, r1, #3	; 0x3
     204:	000a4001 	andeq	r4, sl, r1
     208:	00340c00 	eoreqs	r0, r4, r0, lsl #24
     20c:	0b3a0803 	bleq	e82220 <_ram_end+0xc7d714>
     210:	13490b3b 	cmpne	r9, #60416	; 0xec00
     214:	00000a02 	andeq	r0, r0, r2, lsl #20
     218:	0300340d 	tsteq	r0, #218103808	; 0xd000000
     21c:	3b0b3a0e 	blcc	2cea5c <_ram_end+0xc9f50>
     220:	0213490b 	andeqs	r4, r3, #180224	; 0x2c000
     224:	0e00000a 	cdpeq	0, 0, cr0, cr0, cr10, {0}
     228:	1301012e 	tstne	r1, #-2147483637	; 0x8000000b
     22c:	0e030c3f 	mcreq	12, 0, r0, cr3, cr15, {1}
     230:	0b3b0b3a 	bleq	ec2f20 <_ram_end+0xcbe414>
     234:	13490c27 	cmpne	r9, #9984	; 0x2700
     238:	00000b20 	andeq	r0, r0, r0, lsr #22
     23c:	0300050f 	tsteq	r0, #62914560	; 0x3c00000
     240:	3b0b3a0e 	blcc	2cea80 <_ram_end+0xc9f74>
     244:	0013490b 	andeqs	r4, r3, fp, lsl #18
     248:	00341000 	eoreqs	r1, r4, r0
     24c:	0b3a0803 	bleq	e82260 <_ram_end+0xc7d754>
     250:	13490b3b 	cmpne	r9, #60416	; 0xec00
     254:	24110000 	ldrcs	r0, [r1]
     258:	0b080300 	bleq	200e60 <usb_enumerate+0x444>
     25c:	000b3e0b 	andeq	r3, fp, fp, lsl #28
     260:	012e1200 	teqeq	lr, r0, lsl #4
     264:	13311301 	teqne	r1, #67108864	; 0x4000000
     268:	01120111 	tsteq	r2, r1, lsl r1
     26c:	00000a40 	andeq	r0, r0, r0, asr #20
     270:	31000513 	tstcc	r0, r3, lsl r5
     274:	000a0213 	andeq	r0, sl, r3, lsl r2
     278:	00341400 	eoreqs	r1, r4, r0, lsl #8
     27c:	0a021331 	beq	84f48 <.debug_abbrev+0x84f48>
     280:	2e150000 	wxorcs	wr0, wr5, wr0
     284:	3f130101 	swicc	0x00130101
     288:	3a0e030c 	bcc	380ec0 <_ram_end+0x17c3b4>
     28c:	270b3b0b 	strcs	r3, [fp, -fp, lsl #22]
     290:	000b200c 	andeq	r2, fp, ip
     294:	010b1600 	tsteq	fp, r0, lsl #12
     298:	34170000 	ldrcc	r0, [r7]
     29c:	00133100 	andeqs	r3, r3, r0, lsl #2
     2a0:	011d1800 	tsteq	sp, r0, lsl #16
     2a4:	01111331 	tsteq	r1, r1, lsr r3
     2a8:	00000112 	andeq	r0, r0, r2, lsl r1
     2ac:	11010b19 	tstne	r1, r9, lsl fp
     2b0:	00011201 	andeq	r1, r1, r1, lsl #4
     2b4:	012e1a00 	teqeq	lr, r0, lsl #20
     2b8:	0c3f1301 	ldceq	3, cr1, [pc], #-4
     2bc:	0b3a0e03 	bleq	e83ad0 <_ram_end+0xc7efc4>
     2c0:	13490b3b 	cmpne	r9, #60416	; 0xec00
     2c4:	00000c3c 	andeq	r0, r0, ip, lsr ip
     2c8:	0000181b 	andeq	r1, r0, fp, lsl r8
     2cc:	010b1c00 	tsteq	fp, r0, lsl #24
     2d0:	00000655 	andeq	r0, r0, r5, asr r6
     2d4:	01012e1d 	tsteq	r1, sp, lsl lr
     2d8:	3c133113 	ldfccs	f3, [r3], {19}
     2dc:	1e00000c 	cdpne	0, 0, cr0, cr0, cr12, {0}
     2e0:	0e030034 	mcreq	0, 0, r0, cr3, cr4, {1}
     2e4:	0b3b0b3a 	bleq	ec2fd4 <_ram_end+0xcbe4c8>
     2e8:	00001349 	andeq	r1, r0, r9, asr #6
     2ec:	0101151f 	tsteq	r1, pc, lsl r5
     2f0:	20000013 	andcs	r0, r0, r3, lsl r0
     2f4:	1301012e 	tstne	r1, #-2147483637	; 0x8000000b
     2f8:	0e030c3f 	mcreq	12, 0, r0, cr3, cr15, {1}
     2fc:	0b3b0b3a 	bleq	ec2fec <_ram_end+0xcbe4e0>
     300:	01111349 	tsteq	r1, r9, asr #6
     304:	0a400112 	beq	1000754 <_ram_end+0xdfbc48>
     308:	2e210000 	cdpcs	0, 2, cr0, cr1, cr0, {0}
     30c:	3f130101 	swicc	0x00130101
     310:	3a0e030c 	bcc	380f48 <_ram_end+0x17c43c>
     314:	270b3b0b 	strcs	r3, [fp, -fp, lsl #22]
     318:	3c13490c 	ldccc	9, cr4, [r3], {12}
     31c:	2200000c 	andcs	r0, r0, #12	; 0xc
     320:	13490005 	cmpne	r9, #5	; 0x5
     324:	1d230000 	stcne	0, cr0, [r3]
     328:	31130101 	tstcc	r3, r1, lsl #2
     32c:	12011113 	andne	r1, r1, #-1073741820	; 0xc0000004
     330:	24000001 	strcs	r0, [r0], #-1
     334:	1301010b 	tstne	r1, #-1073741822	; 0xc0000002
     338:	00000655 	andeq	r0, r0, r5, asr r6
     33c:	31000525 	tstcc	r0, r5, lsr #10
     340:	26000013 	undefined
     344:	0c3f012e 	ldfeqs	f0, [pc], #-184
     348:	0b3a0e03 	bleq	e83b5c <_ram_end+0xc7f050>
     34c:	13490b3b 	cmpne	r9, #60416	; 0xec00
     350:	00000c3c 	andeq	r0, r0, ip, lsr ip
     354:	49002627 	stmmidb	r0, {r0, r1, r2, r5, r9, sl, sp}
     358:	00000013 	andeq	r0, r0, r3, lsl r0
     35c:	10011101 	andne	r1, r1, r1, lsl #2
     360:	11011206 	tstne	r1, r6, lsl #4
     364:	130e2501 	tstne	lr, #4194304	; 0x400000
     368:	1b0e030b 	blne	380f9c <_ram_end+0x17c490>
     36c:	0200000e 	andeq	r0, r0, #14	; 0xe
     370:	0e030024 	cdpeq	0, 0, cr0, cr3, cr4, {1}
     374:	0b3e0b0b 	bleq	f82fa8 <_ram_end+0xd7e49c>
     378:	35030000 	strcc	r0, [r3]
     37c:	00134900 	andeqs	r4, r3, r0, lsl #18
     380:	01010400 	tsteq	r1, r0, lsl #8
     384:	13491301 	cmpne	r9, #67108864	; 0x4000000
     388:	21050000 	tstcs	r5, r0
     38c:	2f134900 	swics	0x00134900
     390:	0600000b 	streq	r0, [r0], -fp
     394:	13010113 	tstne	r1, #-1073741820	; 0xc0000004
     398:	0b0b0e03 	bleq	2c3bac <_ram_end+0xbf0a0>
     39c:	053b0b3a 	ldreq	r0, [fp, #-2874]!
     3a0:	0d070000 	stceq	0, cr0, [r7]
     3a4:	3a0e0300 	bcc	380fac <_ram_end+0x17c4a0>
     3a8:	49053b0b 	stmmidb	r5, {r0, r1, r3, r8, r9, fp, ip, sp}
     3ac:	000a3813 	andeq	r3, sl, r3, lsl r8
     3b0:	00160800 	andeqs	r0, r6, r0, lsl #16
     3b4:	0b3a0e03 	bleq	e83bc8 <_ram_end+0xc7f0bc>
     3b8:	1349053b 	cmpne	r9, #247463936	; 0xec00000
     3bc:	0f090000 	swieq	0x00090000
     3c0:	490b0b00 	stmmidb	fp, {r8, r9, fp}
     3c4:	0a000013 	beq	418 <.debug_abbrev+0x418>
     3c8:	13010113 	tstne	r1, #-1073741820	; 0xc0000004
     3cc:	0b3a0b0b 	bleq	e83000 <_ram_end+0xc7e4f4>
     3d0:	00000b3b 	andeq	r0, r0, fp, lsr fp
     3d4:	03000d0b 	tsteq	r0, #704	; 0x2c0
     3d8:	3b0b3a0e 	blcc	2cec18 <_ram_end+0xca10c>
     3dc:	3813490b 	ldmccda	r3, {r0, r1, r3, r8, fp, lr}
     3e0:	0c00000a 	stceq	0, cr0, [r0], {10}
     3e4:	0e030016 	mcreq	0, 0, r0, cr3, cr6, {0}
     3e8:	0b3b0b3a 	bleq	ec30d8 <_ram_end+0xcbe5cc>
     3ec:	00001349 	andeq	r1, r0, r9, asr #6
     3f0:	01012e0d 	tsteq	r1, sp, lsl #28
     3f4:	030c3f13 	tsteq	ip, #76	; 0x4c
     3f8:	3b0b3a0e 	blcc	2cec38 <_ram_end+0xca12c>
     3fc:	110c270b 	tstne	ip, fp, lsl #14
     400:	40011201 	andmi	r1, r1, r1, lsl #4
     404:	0e00000a 	cdpeq	0, 0, cr0, cr0, cr10, {0}
     408:	0e030034 	mcreq	0, 0, r0, cr3, cr4, {1}
     40c:	0b3b0b3a 	bleq	ec30fc <_ram_end+0xcbe5f0>
     410:	0a021349 	beq	8513c <.debug_abbrev+0x8513c>
     414:	2e0f0000 	cdpcs	0, 0, cr0, cr15, cr0, {0}
     418:	030c3f00 	tsteq	ip, #0	; 0x0
     41c:	3b0b3a0e 	blcc	2cec5c <_ram_end+0xca150>
     420:	1113490b 	tstne	r3, fp, lsl #18
     424:	40011201 	andmi	r1, r1, r1, lsl #4
     428:	1000000a 	andne	r0, r0, sl
     42c:	08030024 	stmeqda	r3, {r2, r5}
     430:	0b3e0b0b 	bleq	f83064 <_ram_end+0xd7e558>
     434:	2e110000 	wxorcs	wr0, wr1, wr0
     438:	3f130101 	swicc	0x00130101
     43c:	3a0e030c 	bcc	381074 <_ram_end+0x17c568>
     440:	27053b0b 	strcs	r3, [r5, -fp, lsl #22]
     444:	000b200c 	andeq	r2, fp, ip
     448:	00051200 	andeq	r1, r5, r0, lsl #4
     44c:	0b3a0e03 	bleq	e83c60 <_ram_end+0xc7f154>
     450:	1349053b 	cmpne	r9, #247463936	; 0xec00000
     454:	34130000 	ldrcc	r0, [r3]
     458:	3a080300 	bcc	201060 <usb_enumerate+0x644>
     45c:	49053b0b 	stmmidb	r5, {r0, r1, r3, r8, r9, fp, ip, sp}
     460:	14000013 	strne	r0, [r0], #-19
     464:	1301012e 	tstne	r1, #-2147483637	; 0x8000000b
     468:	01111331 	tsteq	r1, r1, lsr r3
     46c:	0a400112 	beq	10008bc <_ram_end+0xdfbdb0>
     470:	05150000 	ldreq	r0, [r5]
     474:	02133100 	andeqs	r3, r3, #0	; 0x0
     478:	1600000a 	strne	r0, [r0], -sl
     47c:	13310034 	teqne	r1, #52	; 0x34
     480:	00000a02 	andeq	r0, r0, r2, lsl #20
     484:	3f002e17 	swicc	0x00002e17
     488:	3a0e030c 	bcc	3810c0 <_ram_end+0x17c5b4>
     48c:	20053b0b 	andcs	r3, r5, fp, lsl #22
     490:	1800000b 	stmneda	r0, {r0, r1, r3}
     494:	1331002e 	teqne	r1, #46	; 0x2e
     498:	01120111 	tsteq	r2, r1, lsl r1
     49c:	00000a40 	andeq	r0, r0, r0, asr #20
     4a0:	01012e19 	tsteq	r1, r9, lsl lr
     4a4:	030c3f13 	tsteq	ip, #76	; 0x4c
     4a8:	3b0b3a0e 	blcc	2cece8 <_ram_end+0xca1dc>
     4ac:	110c2705 	tstne	ip, r5, lsl #14
     4b0:	40011201 	andmi	r1, r1, r1, lsl #4
     4b4:	1a00000a 	bne	4e4 <.debug_abbrev+0x4e4>
     4b8:	0e030034 	mcreq	0, 0, r0, cr3, cr4, {1}
     4bc:	053b0b3a 	ldreq	r0, [fp, #-2874]!
     4c0:	0a021349 	beq	851ec <.debug_abbrev+0x851ec>
     4c4:	2e1b0000 	wxorcs	wr0, wr11, wr0
     4c8:	3f130101 	swicc	0x00130101
     4cc:	3a0e030c 	bcc	381104 <_ram_end+0x17c5f8>
     4d0:	49053b0b 	stmmidb	r5, {r0, r1, r3, r8, r9, fp, ip, sp}
     4d4:	000c3c13 	andeq	r3, ip, r3, lsl ip
     4d8:	00181c00 	andeqs	r1, r8, r0, lsl #24
     4dc:	1d1d0000 	ldcne	0, cr0, [sp]
     4e0:	31130101 	tstcc	r3, r1, lsl #2
     4e4:	12011113 	andne	r1, r1, #-1073741820	; 0xc0000004
     4e8:	1e000001 	cdpne	0, 0, cr0, cr0, cr1, {0}
     4ec:	0111010b 	tsteq	r1, fp, lsl #2
     4f0:	00000112 	andeq	r0, r0, r2, lsl r1
     4f4:	31001d1f 	tstcc	r0, pc, lsl sp
     4f8:	12011113 	andne	r1, r1, #-1073741820	; 0xc0000004
     4fc:	20000001 	andcs	r0, r0, r1
     500:	0655010b 	ldreqb	r0, [r5], -fp, lsl #2
     504:	1d210000 	stcne	0, cr0, [r1]
     508:	11133101 	tstne	r3, r1, lsl #2
     50c:	00011201 	andeq	r1, r1, r1, lsl #4
     510:	012e2200 	teqeq	lr, r0, lsl #4
     514:	0c3f1301 	ldceq	3, cr1, [pc], #-4
     518:	0b3a0e03 	bleq	e83d2c <_ram_end+0xc7f220>
     51c:	13490b3b 	cmpne	r9, #60416	; 0xec00
     520:	00000b20 	andeq	r0, r0, r0, lsr #22
     524:	03003423 	tsteq	r0, #587202560	; 0x23000000
     528:	3b0b3a08 	blcc	2ced50 <_ram_end+0xca244>
     52c:	0013490b 	andeqs	r4, r3, fp, lsl #18
     530:	012e2400 	teqeq	lr, r0, lsl #8
     534:	0c3f1301 	ldceq	3, cr1, [pc], #-4
     538:	0b3a0e03 	bleq	e83d4c <_ram_end+0xc7f240>
     53c:	0c270b3b 	stceq	11, cr0, [r7], #-236
     540:	0b201349 	bleq	80526c <_ram_end+0x600760>
     544:	05250000 	streq	r0, [r5]!
     548:	3a0e0300 	bcc	381150 <_ram_end+0x17c644>
     54c:	490b3b0b 	stmmidb	fp, {r0, r1, r3, r8, r9, fp, ip, sp}
     550:	26000013 	undefined
     554:	1301010b 	tstne	r1, #-1073741822	; 0xc0000002
     558:	34270000 	strcct	r0, [r7]
     55c:	00133100 	andeqs	r3, r3, r0, lsl #2
     560:	010b2800 	tsteq	fp, r0, lsl #16
     564:	34290000 	strcct	r0, [r9]
     568:	3a0e0300 	bcc	381170 <_ram_end+0x17c664>
     56c:	490b3b0b 	stmmidb	fp, {r0, r1, r3, r8, r9, fp, ip, sp}
     570:	2a000013 	bcs	5c4 <.debug_abbrev+0x5c4>
     574:	08030005 	stmeqda	r3, {r0, r2}
     578:	053b0b3a 	ldreq	r0, [fp, #-2874]!
     57c:	0a021349 	beq	852a8 <.debug_abbrev+0x852a8>
     580:	2e2b0000 	cdpcs	0, 2, cr0, cr11, cr0, {0}
     584:	3f130101 	swicc	0x00130101
     588:	3a0e030c 	bcc	3811c0 <_ram_end+0x17c6b4>
     58c:	270b3b0b 	strcs	r3, [fp, -fp, lsl #22]
     590:	3c13490c 	ldccc	9, cr4, [r3], {12}
     594:	2c00000c 	stccs	0, cr0, [r0], {12}
     598:	13490005 	cmpne	r9, #5	; 0x5
     59c:	052d0000 	streq	r0, [sp]!
     5a0:	00133100 	andeqs	r3, r3, r0, lsl #2
     5a4:	00262e00 	eoreq	r2, r6, r0, lsl #28
     5a8:	00001349 	andeq	r1, r0, r9, asr #6
     5ac:	0300342f 	tsteq	r0, #788529152	; 0x2f000000
     5b0:	3b0b3a0e 	blcc	2cedf0 <_ram_end+0xca2e4>
     5b4:	00134905 	andeqs	r4, r3, r5, lsl #18
     5b8:	010b3000 	tsteq	fp, r0
     5bc:	06551301 	ldreqb	r1, [r5], -r1, lsl #6
     5c0:	34310000 	ldrcct	r0, [r1]
     5c4:	3a0e0300 	bcc	3811cc <_ram_end+0x17c6c0>
     5c8:	490b3b0b 	stmmidb	fp, {r0, r1, r3, r8, r9, fp, ip, sp}
     5cc:	020c3f13 	andeq	r3, ip, #76	; 0x4c
     5d0:	3200000a 	andcc	r0, r0, #10	; 0xa
     5d4:	13490021 	cmpne	r9, #33	; 0x21
     5d8:	0000052f 	andeq	r0, r0, pc, lsr #10
     5dc:	03003433 	tsteq	r0, #855638016	; 0x33000000
     5e0:	3b0b3a08 	blcc	2cee08 <_ram_end+0xca2fc>
     5e4:	3f134905 	swicc	0x00134905
     5e8:	000a020c 	andeq	r0, sl, ip, lsl #4
     5ec:	00343400 	eoreqs	r3, r4, r0, lsl #8
     5f0:	0b3a0e03 	bleq	e83e04 <_ram_end+0xc7f2f8>
     5f4:	1349053b 	cmpne	r9, #247463936	; 0xec00000
     5f8:	0a020c3f 	beq	836fc <.debug_abbrev+0x836fc>
     5fc:	01000000 	tsteq	r0, r0
     600:	06100111 	undefined
     604:	01110112 	tsteq	r1, r2, lsl r1
     608:	0b130e25 	bleq	4c3ea4 <_ram_end+0x2bf398>
     60c:	0e1b0e03 	cdpeq	14, 1, cr0, cr11, cr3, {0}
     610:	24020000 	strcs	r0, [r2]
     614:	0b0e0300 	bleq	38121c <_ram_end+0x17c710>
     618:	000b3e0b 	andeq	r3, fp, fp, lsl #28
     61c:	00160300 	andeqs	r0, r6, r0, lsl #6
     620:	0b3a0803 	bleq	e82634 <_ram_end+0xc7db28>
     624:	13490b3b 	cmpne	r9, #60416	; 0xec00
     628:	2e040000 	cdpcs	0, 0, cr0, cr4, cr0, {0}
     62c:	030c3f00 	tsteq	ip, #0	; 0x0
     630:	3b0b3a0e 	blcc	2cee70 <_ram_end+0xca364>
     634:	110c270b 	tstne	ip, fp, lsl #14
     638:	40011201 	andmi	r1, r1, r1, lsl #4
     63c:	0500000a 	streq	r0, [r0, #-10]
     640:	1301012e 	tstne	r1, #-2147483637	; 0x8000000b
     644:	0e030c3f 	mcreq	12, 0, r0, cr3, cr15, {1}
     648:	0b3b0b3a 	bleq	ec3338 <_ram_end+0xcbe82c>
     64c:	01110c27 	tsteq	r1, r7, lsr #24
     650:	0a400112 	beq	1000aa0 <_ram_end+0xdfbf94>
     654:	05060000 	streq	r0, [r6]
     658:	3a080300 	bcc	201260 <usb_enumerate+0x844>
     65c:	490b3b0b 	stmmidb	fp, {r0, r1, r3, r8, r9, fp, ip, sp}
     660:	000a0213 	andeq	r0, sl, r3, lsl r2
     664:	00340700 	eoreqs	r0, r4, r0, lsl #14
     668:	0b3a0e03 	bleq	e83e7c <_ram_end+0xc7f370>
     66c:	13490b3b 	cmpne	r9, #60416	; 0xec00
     670:	00000a02 	andeq	r0, r0, r2, lsl #20
     674:	03003408 	tsteq	r0, #134217728	; 0x8000000
     678:	3b0b3a08 	blcc	2ceea0 <_ram_end+0xca394>
     67c:	0213490b 	andeqs	r4, r3, #180224	; 0x2c000
     680:	0900000a 	stmeqdb	r0, {r1, r3}
     684:	1301012e 	tstne	r1, #-2147483637	; 0x8000000b
     688:	0e030c3f 	mcreq	12, 0, r0, cr3, cr15, {1}
     68c:	0b3b0b3a 	bleq	ec337c <_ram_end+0xcbe870>
     690:	0c3c1349 	ldceq	3, cr1, [ip], #-292
     694:	180a0000 	stmneda	sl, {}
     698:	0b000000 	bleq	6a0 <.debug_abbrev+0x6a0>
     69c:	1301010b 	tstne	r1, #-1073741822	; 0xc0000002
     6a0:	00000655 	andeq	r0, r0, r5, asr r6
     6a4:	01012e0c 	tsteq	r1, ip, lsl #28
     6a8:	030c3f13 	tsteq	ip, #76	; 0x4c
     6ac:	3b0b3a0e 	blcc	2ceeec <_ram_end+0xca3e0>
     6b0:	490c270b 	stmmidb	ip, {r0, r1, r3, r8, r9, sl, sp}
     6b4:	000c3c13 	andeq	r3, ip, r3, lsl ip
     6b8:	00050d00 	andeq	r0, r5, r0, lsl #26
     6bc:	00001349 	andeq	r1, r0, r9, asr #6
     6c0:	3f012e0e 	swicc	0x00012e0e
     6c4:	3a0e030c 	bcc	3812fc <_ram_end+0x17c7f0>
     6c8:	490b3b0b 	stmmidb	fp, {r0, r1, r3, r8, r9, fp, ip, sp}
     6cc:	000c3c13 	andeq	r3, ip, r3, lsl ip
     6d0:	010b0f00 	tsteq	fp, r0, lsl #30
     6d4:	01111301 	tsteq	r1, r1, lsl #6
     6d8:	00000112 	andeq	r0, r0, r2, lsl r1
     6dc:	11010b10 	tstne	r1, r0, lsl fp
     6e0:	00011201 	andeq	r1, r1, r1, lsl #4
     6e4:	000f1100 	andeq	r1, pc, r0, lsl #2
     6e8:	13490b0b 	cmpne	r9, #11264	; 0x2c00
     6ec:	24120000 	ldrcs	r0, [r2]
     6f0:	0b080300 	bleq	2012f8 <usb_enumerate+0x8dc>
     6f4:	000b3e0b 	andeq	r3, fp, fp, lsl #28
     6f8:	01011300 	tsteq	r1, r0, lsl #6
     6fc:	13491301 	cmpne	r9, #67108864	; 0x4000000
     700:	21140000 	tstcs	r4, r0
     704:	2f134900 	swics	0x00134900
     708:	1500000b 	strne	r0, [r0, #-11]
     70c:	13490026 	cmpne	r9, #38	; 0x26
     710:	21160000 	tstcs	r6, r0
     714:	2f134900 	swics	0x00134900
     718:	17000005 	strne	r0, [r0, -r5]
     71c:	08030034 	stmeqda	r3, {r2, r4, r5}
     720:	0b3b0b3a 	bleq	ec3410 <_ram_end+0xcbe904>
     724:	0c3f1349 	ldceq	3, cr1, [pc], #-292
     728:	00000a02 	andeq	r0, r0, r2, lsl #20
     72c:	03003418 	tsteq	r0, #402653184	; 0x18000000
     730:	3b0b3a0e 	blcc	2cef70 <_ram_end+0xca464>
     734:	3f13490b 	swicc	0x0013490b
     738:	000a020c 	andeq	r0, sl, ip, lsl #4
     73c:	11010000 	tstne	r1, r0
     740:	12061001 	andne	r1, r6, #1	; 0x1
     744:	25011101 	strcs	r1, [r1, #-257]
     748:	030b130e 	tsteq	fp, #939524096	; 0x38000000
     74c:	000e1b0e 	andeq	r1, lr, lr, lsl #22
     750:	00240200 	eoreq	r0, r4, r0, lsl #4
     754:	0b0b0e03 	bleq	2c3f68 <_ram_end+0xbf45c>
     758:	00000b3e 	andeq	r0, r0, lr, lsr fp
     75c:	03001603 	tsteq	r0, #3145728	; 0x300000
     760:	3b0b3a08 	blcc	2cef88 <_ram_end+0xca47c>
     764:	0013490b 	andeqs	r4, r3, fp, lsl #18
     768:	00350400 	eoreqs	r0, r5, r0, lsl #8
     76c:	00001349 	andeq	r1, r0, r9, asr #6
     770:	01011305 	tsteq	r1, r5, lsl #6
     774:	0b0e0313 	bleq	3813c8 <_ram_end+0x17c8bc>
     778:	3b0b3a0b 	blcc	2cefac <_ram_end+0xca4a0>
     77c:	06000005 	streq	r0, [r0], -r5
     780:	0e03000d 	cdpeq	0, 0, cr0, cr3, cr13, {0}
     784:	053b0b3a 	ldreq	r0, [fp, #-2874]!
     788:	0a381349 	beq	e054b4 <_ram_end+0xc009a8>
     78c:	01070000 	tsteq	r7, r0
     790:	49130101 	ldmmidb	r3, {r0, r8}
     794:	08000013 	stmeqda	r0, {r0, r1, r4}
     798:	13490021 	cmpne	r9, #33	; 0x21
     79c:	00000b2f 	andeq	r0, r0, pc, lsr #22
     7a0:	03001609 	tsteq	r0, #9437184	; 0x900000
     7a4:	3b0b3a0e 	blcc	2cefe4 <_ram_end+0xca4d8>
     7a8:	00134905 	andeqs	r4, r3, r5, lsl #18
     7ac:	000f0a00 	andeq	r0, pc, r0, lsl #20
     7b0:	13490b0b 	cmpne	r9, #11264	; 0x2c00
     7b4:	2e0b0000 	cdpcs	0, 0, cr0, cr11, cr0, {0}
     7b8:	030c3f00 	tsteq	ip, #0	; 0x0
     7bc:	3b0b3a0e 	blcc	2ceffc <_ram_end+0xca4f0>
     7c0:	200c270b 	andcs	r2, ip, fp, lsl #14
     7c4:	0c00000b 	stceq	0, cr0, [r0], {11}
     7c8:	1331002e 	teqne	r1, #46	; 0x2e
     7cc:	01120111 	tsteq	r2, r1, lsl r1
     7d0:	00000a40 	andeq	r0, r0, r0, asr #20
     7d4:	3f002e0d 	swicc	0x00002e0d
     7d8:	3a0e030c 	bcc	381410 <_ram_end+0x17c904>
     7dc:	270b3b0b 	strcs	r3, [fp, -fp, lsl #22]
     7e0:	1201110c 	andne	r1, r1, #3	; 0x3
     7e4:	000a4001 	andeq	r4, sl, r1
     7e8:	012e0e00 	teqeq	lr, r0, lsl #28
     7ec:	0c3f1301 	ldceq	3, cr1, [pc], #-4
     7f0:	0b3a0e03 	bleq	e84004 <_ram_end+0xc7f4f8>
     7f4:	0c270b3b 	stceq	11, cr0, [r7], #-236
     7f8:	0b201349 	bleq	805524 <_ram_end+0x600a18>
     7fc:	340f0000 	strcc	r0, [pc], #0	; 804 <.debug_abbrev+0x804>
     800:	3a0e0300 	bcc	381408 <_ram_end+0x17c8fc>
     804:	490b3b0b 	stmmidb	fp, {r0, r1, r3, r8, r9, fp, ip, sp}
     808:	10000013 	andne	r0, r0, r3, lsl r0
     80c:	08030024 	stmeqda	r3, {r2, r5}
     810:	0b3e0b0b 	bleq	f83444 <_ram_end+0xd7e938>
     814:	2e110000 	wxorcs	wr0, wr1, wr0
     818:	31130101 	tstcc	r3, r1, lsl #2
     81c:	12011113 	andne	r1, r1, #-1073741820	; 0xc0000004
     820:	000a4001 	andeq	r4, sl, r1
     824:	00341200 	eoreqs	r1, r4, r0, lsl #4
     828:	0a021331 	beq	854f4 <.debug_abbrev+0x854f4>
     82c:	2e130000 	wxorcs	wr0, wr3, wr0
     830:	030c3f00 	tsteq	ip, #0	; 0x0
     834:	3b0b3a0e 	blcc	2cf074 <_ram_end+0xca568>
     838:	490c270b 	stmmidb	ip, {r0, r1, r3, r8, r9, sl, sp}
     83c:	000b2013 	andeq	r2, fp, r3, lsl r0
     840:	012e1400 	teqeq	lr, r0, lsl #8
     844:	0c3f1301 	ldceq	3, cr1, [pc], #-4
     848:	0b3a0e03 	bleq	e8405c <_ram_end+0xc7f550>
     84c:	0c270b3b 	stceq	11, cr0, [r7], #-236
     850:	01111349 	tsteq	r1, r9, asr #6
     854:	0a400112 	beq	1000ca4 <_ram_end+0xdfc198>
     858:	05150000 	ldreq	r0, [r5]
     85c:	3a0e0300 	bcc	381464 <_ram_end+0x17c958>
     860:	490b3b0b 	stmmidb	fp, {r0, r1, r3, r8, r9, fp, ip, sp}
     864:	000a0213 	andeq	r0, sl, r3, lsl r2
     868:	00341600 	eoreqs	r1, r4, r0, lsl #12
     86c:	0b3a0e03 	bleq	e84080 <_ram_end+0xc7f574>
     870:	13490b3b 	cmpne	r9, #60416	; 0xec00
     874:	00000a02 	andeq	r0, r0, r2, lsl #20
     878:	01012e17 	tsteq	r1, r7, lsl lr
     87c:	030c3f13 	tsteq	ip, #76	; 0x4c
     880:	3b0b3a0e 	blcc	2cf0c0 <_ram_end+0xca5b4>
     884:	3c13490b 	ldccc	9, cr4, [r3], {11}
     888:	1800000c 	stmneda	r0, {r2, r3}
     88c:	00000018 	andeq	r0, r0, r8, lsl r0
     890:	01011d19 	tsteq	r1, r9, lsl sp
     894:	11133113 	tstne	r3, r3, lsl r1
     898:	00011201 	andeq	r1, r1, r1, lsl #4
     89c:	010b1a00 	tsteq	fp, r0, lsl #20
     8a0:	01120111 	tsteq	r2, r1, lsl r1
     8a4:	1d1b0000 	ldcne	0, cr0, [fp]
     8a8:	11133100 	tstne	r3, r0, lsl #2
     8ac:	00011201 	andeq	r1, r1, r1, lsl #4
     8b0:	00051c00 	andeq	r1, r5, r0, lsl #24
     8b4:	0b3a0e03 	bleq	e840c8 <_ram_end+0xc7f5bc>
     8b8:	13490b3b 	cmpne	r9, #60416	; 0xec00
     8bc:	0b1d0000 	bleq	7408c4 <_ram_end+0x53bdb8>
     8c0:	1e000000 	cdpne	0, 0, cr0, cr0, cr0, {0}
     8c4:	1301010b 	tstne	r1, #-1073741822	; 0xc0000002
     8c8:	341f0000 	ldrcc	r0, [pc], #0	; 8d0 <.debug_abbrev+0x8d0>
     8cc:	00133100 	andeqs	r3, r3, r0, lsl #2
     8d0:	010b2000 	tsteq	fp, r0
     8d4:	05210000 	streq	r0, [r1]!
     8d8:	02133100 	andeqs	r3, r3, #0	; 0x0
     8dc:	2200000a 	andcs	r0, r0, #10	; 0xa
     8e0:	1301012e 	tstne	r1, #-2147483637	; 0x8000000b
     8e4:	0c3c1331 	ldceq	3, cr1, [ip], #-196
     8e8:	1d230000 	stcne	0, cr0, [r3]
     8ec:	11133101 	tstne	r3, r1, lsl #2
     8f0:	00011201 	andeq	r1, r1, r1, lsl #4
     8f4:	00342400 	eoreqs	r2, r4, r0, lsl #8
     8f8:	0b3a0803 	bleq	e8290c <_ram_end+0xc7de00>
     8fc:	13490b3b 	cmpne	r9, #60416	; 0xec00
     900:	2e250000 	cdpcs	0, 2, cr0, cr5, cr0, {0}
     904:	3f130101 	swicc	0x00130101
     908:	3a0e030c 	bcc	381540 <_ram_end+0x17ca34>
     90c:	270b3b0b 	strcs	r3, [fp, -fp, lsl #22]
     910:	1201110c 	andne	r1, r1, #3	; 0x3
     914:	000a4001 	andeq	r4, sl, r1
     918:	00342600 	eoreqs	r2, r4, r0, lsl #12
     91c:	0b3a0803 	bleq	e82930 <_ram_end+0xc7de24>
     920:	13490b3b 	cmpne	r9, #60416	; 0xec00
     924:	00000a02 	andeq	r0, r0, r2, lsl #20
     928:	3f012e27 	swicc	0x00012e27
     92c:	3a0e030c 	bcc	381564 <_ram_end+0x17ca58>
     930:	270b3b0b 	strcs	r3, [fp, -fp, lsl #22]
     934:	1113490c 	tstne	r3, ip, lsl #18
     938:	40011201 	andmi	r1, r1, r1, lsl #4
     93c:	2800000a 	stmcsda	r0, {r1, r3}
     940:	13310005 	teqne	r1, #5	; 0x5
     944:	0b290000 	bleq	a4094c <_ram_end+0x83be40>
     948:	00065501 	andeq	r5, r6, r1, lsl #10
     94c:	11010000 	tstne	r1, r0
     950:	12061001 	andne	r1, r6, #1	; 0x1
     954:	25011101 	strcs	r1, [r1, #-257]
     958:	030b130e 	tsteq	fp, #939524096	; 0x38000000
     95c:	000e1b0e 	andeq	r1, lr, lr, lsl #22
     960:	00240200 	eoreq	r0, r4, r0, lsl #4
     964:	0b0b0e03 	bleq	2c4178 <_ram_end+0xbf66c>
     968:	00000b3e 	andeq	r0, r0, lr, lsr fp
     96c:	03001603 	tsteq	r0, #3145728	; 0x300000
     970:	3b0b3a0e 	blcc	2cf1b0 <_ram_end+0xca6a4>
     974:	0013490b 	andeqs	r4, r3, fp, lsl #18
     978:	00160400 	andeqs	r0, r6, r0, lsl #8
     97c:	0b3a0803 	bleq	e82990 <_ram_end+0xc7de84>
     980:	13490b3b 	cmpne	r9, #60416	; 0xec00
     984:	35050000 	strcc	r0, [r5]
     988:	00134900 	andeqs	r4, r3, r0, lsl #18
     98c:	01010600 	tsteq	r1, r0, lsl #12
     990:	13491301 	cmpne	r9, #67108864	; 0x4000000
     994:	21070000 	tstcs	r7, r0
     998:	2f134900 	swics	0x00134900
     99c:	0800000b 	stmeqda	r0, {r0, r1, r3}
     9a0:	13010113 	tstne	r1, #-1073741820	; 0xc0000004
     9a4:	0b0b0e03 	bleq	2c41b8 <_ram_end+0xbf6ac>
     9a8:	053b0b3a 	ldreq	r0, [fp, #-2874]!
     9ac:	0d090000 	stceq	0, cr0, [r9]
     9b0:	3a0e0300 	bcc	3815b8 <_ram_end+0x17caac>
     9b4:	49053b0b 	stmmidb	r5, {r0, r1, r3, r8, r9, fp, ip, sp}
     9b8:	000a3813 	andeq	r3, sl, r3, lsl r8
     9bc:	00160a00 	andeqs	r0, r6, r0, lsl #20
     9c0:	0b3a0e03 	bleq	e841d4 <_ram_end+0xc7f6c8>
     9c4:	1349053b 	cmpne	r9, #247463936	; 0xec00000
     9c8:	0f0b0000 	swieq	0x000b0000
     9cc:	490b0b00 	stmmidb	fp, {r8, r9, fp}
     9d0:	0c000013 	stceq	0, cr0, [r0], {19}
     9d4:	1301012e 	tstne	r1, #-2147483637	; 0x8000000b
     9d8:	0e030c3f 	mcreq	12, 0, r0, cr3, cr15, {1}
     9dc:	0b3b0b3a 	bleq	ec36cc <_ram_end+0xcbebc0>
     9e0:	0b200c27 	bleq	803a84 <_ram_end+0x5fef78>
     9e4:	340d0000 	strcc	r0, [sp]
     9e8:	3a080300 	bcc	2015f0 <usb_enumerate+0xbd4>
     9ec:	490b3b0b 	stmmidb	fp, {r0, r1, r3, r8, r9, fp, ip, sp}
     9f0:	0e000013 	mcreq	0, 0, r0, cr0, cr3, {0}
     9f4:	08030024 	stmeqda	r3, {r2, r5}
     9f8:	0b3e0b0b 	bleq	f8362c <_ram_end+0xd7eb20>
     9fc:	2e0f0000 	cdpcs	0, 0, cr0, cr15, cr0, {0}
     a00:	31130101 	tstcc	r3, r1, lsl #2
     a04:	12011113 	andne	r1, r1, #-1073741820	; 0xc0000004
     a08:	000a4001 	andeq	r4, sl, r1
     a0c:	00341000 	eoreqs	r1, r4, r0
     a10:	0a021331 	beq	856dc <.debug_abbrev+0x856dc>
     a14:	34110000 	ldrcc	r0, [r1]
     a18:	3a0e0300 	bcc	381620 <_ram_end+0x17cb14>
     a1c:	490b3b0b 	stmmidb	fp, {r0, r1, r3, r8, r9, fp, ip, sp}
     a20:	12000013 	andne	r0, r0, #19	; 0x13
     a24:	0000010b 	andeq	r0, r0, fp, lsl #2
     a28:	31003413 	tstcc	r0, r3, lsl r4
     a2c:	14000013 	strne	r0, [r0], #-19
     a30:	1331011d 	teqne	r1, #1073741831	; 0x40000007
     a34:	01120111 	tsteq	r2, r1, lsl r1
     a38:	0b150000 	bleq	540a40 <_ram_end+0x33bf34>
     a3c:	00065501 	andeq	r5, r6, r1, lsl #10
     a40:	010b1600 	tsteq	fp, r0, lsl #12
     a44:	00001301 	andeq	r1, r0, r1, lsl #6
     a48:	01011d17 	tsteq	r1, r7, lsl sp
     a4c:	11133113 	tstne	r3, r3, lsl r1
     a50:	00011201 	andeq	r1, r1, r1, lsl #4
     a54:	012e1800 	teqeq	lr, r0, lsl #16
     a58:	0c3f1301 	ldceq	3, cr1, [pc], #-4
     a5c:	0b3a0e03 	bleq	e84270 <_ram_end+0xc7f764>
     a60:	0c270b3b 	stceq	11, cr0, [r7], #-236
     a64:	01120111 	tsteq	r2, r1, lsl r1
     a68:	00000a40 	andeq	r0, r0, r0, asr #20
     a6c:	31000519 	tstcc	r0, r9, lsl r5
     a70:	1a000013 	bne	ac4 <.debug_abbrev+0xac4>
     a74:	13310005 	teqne	r1, #5	; 0x5
     a78:	00000a02 	andeq	r0, r0, r2, lsl #20
     a7c:	31001d1b 	tstcc	r0, fp, lsl sp
     a80:	12011113 	andne	r1, r1, #-1073741820	; 0xc0000004
     a84:	1c000001 	stcne	0, cr0, [r0], {1}
     a88:	1301012e 	tstne	r1, #-2147483637	; 0x8000000b
     a8c:	0b3a0e03 	bleq	e842a0 <_ram_end+0xc7f794>
     a90:	0c270b3b 	stceq	11, cr0, [r7], #-236
     a94:	00000b20 	andeq	r0, r0, r0, lsr #22
     a98:	0300051d 	tsteq	r0, #121634816	; 0x7400000
     a9c:	3b0b3a0e 	blcc	2cf2dc <_ram_end+0xca7d0>
     aa0:	0013490b 	andeqs	r4, r3, fp, lsl #18
     aa4:	00051e00 	andeq	r1, r5, r0, lsl #28
     aa8:	0b3a0803 	bleq	e82abc <_ram_end+0xc7dfb0>
     aac:	13490b3b 	cmpne	r9, #60416	; 0xec00
     ab0:	2e1f0000 	wxorcs	wr0, wr15, wr0
     ab4:	3a0e0300 	bcc	3816bc <_ram_end+0x17cbb0>
     ab8:	270b3b0b 	strcs	r3, [fp, -fp, lsl #22]
     abc:	000b200c 	andeq	r2, fp, ip
     ac0:	00342000 	eoreqs	r2, r4, r0
     ac4:	0b3a0e03 	bleq	e842d8 <_ram_end+0xc7f7cc>
     ac8:	13490b3b 	cmpne	r9, #60416	; 0xec00
     acc:	0c3c0c3f 	ldceq	12, cr0, [ip], #-252
     ad0:	34210000 	strcct	r0, [r1]
     ad4:	3a0e0300 	bcc	3816dc <_ram_end+0x17cbd0>
     ad8:	490b3b0b 	stmmidb	fp, {r0, r1, r3, r8, r9, fp, ip, sp}
     adc:	020c3f13 	andeq	r3, ip, #76	; 0x4c
     ae0:	0000000a 	andeq	r0, r0, sl
     ae4:	10011101 	andne	r1, r1, r1, lsl #2
     ae8:	11011206 	tstne	r1, r6, lsl #4
     aec:	130e2501 	tstne	lr, #4194304	; 0x400000
     af0:	1b0e030b 	blne	381724 <_ram_end+0x17cc18>
     af4:	0200000e 	andeq	r0, r0, #14	; 0xe
     af8:	0e030016 	mcreq	0, 0, r0, cr3, cr6, {0}
     afc:	0b3b0b3a 	bleq	ec37ec <_ram_end+0xcbece0>
     b00:	00001349 	andeq	r1, r0, r9, asr #6
     b04:	03002403 	tsteq	r0, #50331648	; 0x3000000
     b08:	3e0b0b0e 	fmacdcc	d0, d11, d14
     b0c:	0400000b 	streq	r0, [r0], #-11
     b10:	1301012e 	tstne	r1, #-2147483637	; 0x8000000b
     b14:	0e030c3f 	mcreq	12, 0, r0, cr3, cr15, {1}
     b18:	0b3b0b3a 	bleq	ec3808 <_ram_end+0xcbecfc>
     b1c:	0b200c27 	bleq	803bc0 <_ram_end+0x5ff0b4>
     b20:	05050000 	streq	r0, [r5]
     b24:	3a080300 	bcc	20172c <usb_enumerate+0xd10>
     b28:	490b3b0b 	stmmidb	fp, {r0, r1, r3, r8, r9, fp, ip, sp}
     b2c:	06000013 	undefined
     b30:	0c3f012e 	ldfeqs	f0, [pc], #-184
     b34:	0b3a0e03 	bleq	e84348 <_ram_end+0xc7f83c>
     b38:	13490b3b 	cmpne	r9, #60416	; 0xec00
     b3c:	00000c3c 	andeq	r0, r0, ip, lsr ip
     b40:	00001807 	andeq	r1, r0, r7, lsl #16
     b44:	00240800 	eoreq	r0, r4, r0, lsl #16
     b48:	0b0b0803 	bleq	2c2b5c <_ram_end+0xbe050>
     b4c:	00000b3e 	andeq	r0, r0, lr, lsr fp
     b50:	01012e09 	tsteq	r1, r9, lsl #28
     b54:	11133113 	tstne	r3, r3, lsl r1
     b58:	40011201 	andmi	r1, r1, r1, lsl #4
     b5c:	0a00000a 	beq	b8c <.debug_abbrev+0xb8c>
     b60:	13310005 	teqne	r1, #5	; 0x5
     b64:	00000a02 	andeq	r0, r0, r2, lsl #20
     b68:	31012e0b 	tstcc	r1, fp, lsl #28
     b6c:	000c3c13 	andeq	r3, ip, r3, lsl ip
     b70:	012e0c00 	teqeq	lr, r0, lsl #24
     b74:	0c3f1301 	ldceq	3, cr1, [pc], #-4
     b78:	0b3a0e03 	bleq	e8438c <_ram_end+0xc7f880>
     b7c:	0c270b3b 	stceq	11, cr0, [r7], #-236
     b80:	0b201349 	bleq	8058ac <_ram_end+0x600da0>
     b84:	340d0000 	strcc	r0, [sp]
     b88:	3a080300 	bcc	201790 <usb_isconfigured+0x40>
     b8c:	490b3b0b 	stmmidb	fp, {r0, r1, r3, r8, r9, fp, ip, sp}
     b90:	0e000013 	mcreq	0, 0, r0, cr0, cr3, {0}
     b94:	0000010b 	andeq	r0, r0, fp, lsl #2
     b98:	3100050f 	tstcc	r0, pc, lsl #10
     b9c:	10000013 	andne	r0, r0, r3, lsl r0
     ba0:	0b0b000f 	bleq	2c0be4 <_ram_end+0xbc0d8>
     ba4:	00001349 	andeq	r1, r0, r9, asr #6
     ba8:	49002611 	stmmidb	r0, {r0, r4, r9, sl, sp}
     bac:	12000013 	andne	r0, r0, #19	; 0x13
     bb0:	13310034 	teqne	r1, #52	; 0x34
     bb4:	00000a02 	andeq	r0, r0, r2, lsl #20
     bb8:	31011d13 	tstcc	r1, r3, lsl sp
     bbc:	12011113 	andne	r1, r1, #-1073741820	; 0xc0000004
     bc0:	14000001 	strne	r0, [r0], #-1
     bc4:	1301012e 	tstne	r1, #-2147483637	; 0x8000000b
     bc8:	0e030c3f 	mcreq	12, 0, r0, cr3, cr15, {1}
     bcc:	0b3b0b3a 	bleq	ec38bc <_ram_end+0xcbedb0>
     bd0:	13490c27 	cmpne	r9, #9984	; 0x2700
     bd4:	01120111 	tsteq	r2, r1, lsl r1
     bd8:	00000a40 	andeq	r0, r0, r0, asr #20
     bdc:	03000515 	tsteq	r0, #88080384	; 0x5400000
     be0:	3b0b3a08 	blcc	2cf408 <_ram_end+0xca8fc>
     be4:	0213490b 	andeqs	r4, r3, #180224	; 0x2c000
     be8:	1600000a 	strne	r0, [r0], -sl
     bec:	08030034 	stmeqda	r3, {r2, r4, r5}
     bf0:	0b3b0b3a 	bleq	ec38e0 <_ram_end+0xcbedd4>
     bf4:	0a021349 	beq	85920 <.debug_abbrev+0x85920>
     bf8:	34170000 	ldrcc	r0, [r7]
     bfc:	3a0e0300 	bcc	381804 <_ram_end+0x17ccf8>
     c00:	490b3b0b 	stmmidb	fp, {r0, r1, r3, r8, r9, fp, ip, sp}
     c04:	18000013 	stmneda	r0, {r0, r1, r4}
     c08:	1301010b 	tstne	r1, #-1073741822	; 0xc0000002
     c0c:	34190000 	ldrcc	r0, [r9]
     c10:	00133100 	andeqs	r3, r3, r0, lsl #2
     c14:	000b1a00 	andeq	r1, fp, r0, lsl #20
     c18:	1d1b0000 	ldcne	0, cr0, [fp]
     c1c:	31130101 	tstcc	r3, r1, lsl #2
     c20:	12011113 	andne	r1, r1, #-1073741820	; 0xc0000004
     c24:	1c000001 	stcne	0, cr0, [r0], {1}
     c28:	0111010b 	tsteq	r1, fp, lsl #2
     c2c:	00000112 	andeq	r0, r0, r2, lsl r1
     c30:	31001d1d 	tstcc	r0, sp, lsl sp
     c34:	12011113 	andne	r1, r1, #-1073741820	; 0xc0000004
     c38:	1e000001 	cdpne	0, 0, cr0, cr0, cr1, {0}
     c3c:	1301012e 	tstne	r1, #-2147483637	; 0x8000000b
     c40:	0e030c3f 	mcreq	12, 0, r0, cr3, cr15, {1}
     c44:	0b3b0b3a 	bleq	ec3934 <_ram_end+0xcbee28>
     c48:	01110c27 	tsteq	r1, r7, lsr #24
     c4c:	0a400112 	beq	100109c <_ram_end+0xdfc590>
     c50:	0b1f0000 	bleq	7c0c58 <_ram_end+0x5bc14c>
     c54:	00065501 	andeq	r5, r6, r1, lsl #10
     c58:	002e2000 	eoreq	r2, lr, r0
     c5c:	0e030c3f 	mcreq	12, 0, r0, cr3, cr15, {1}
     c60:	0b3b0b3a 	bleq	ec3950 <_ram_end+0xcbee44>
     c64:	13490c27 	cmpne	r9, #9984	; 0x2700
     c68:	01120111 	tsteq	r2, r1, lsl r1
     c6c:	00000a40 	andeq	r0, r0, r0, asr #20
     c70:	3f002e21 	swicc	0x00002e21
     c74:	3a0e030c 	bcc	3818ac <_ram_end+0x17cda0>
     c78:	110b3b0b 	tstne	fp, fp, lsl #22
     c7c:	40011201 	andmi	r1, r1, r1, lsl #4
     c80:	2200000a 	andcs	r0, r0, #10	; 0xa
     c84:	1301012e 	tstne	r1, #-2147483637	; 0x8000000b
     c88:	0e030c3f 	mcreq	12, 0, r0, cr3, cr15, {1}
     c8c:	0b3b0b3a 	bleq	ec397c <_ram_end+0xcbee70>
     c90:	0c3c1349 	ldceq	3, cr1, [ip], #-292
     c94:	0b230000 	bleq	8c0c9c <_ram_end+0x6bc190>
     c98:	55130101 	ldrpl	r0, [r3, #-257]
     c9c:	24000006 	strcs	r0, [r0], #-6
     ca0:	1301012e 	tstne	r1, #-2147483637	; 0x8000000b
     ca4:	0e030c3f 	mcreq	12, 0, r0, cr3, cr15, {1}
     ca8:	053b0b3a 	ldreq	r0, [fp, #-2874]!
     cac:	13490c27 	cmpne	r9, #9984	; 0x2700
     cb0:	00000b20 	andeq	r0, r0, r0, lsr #22
     cb4:	03000525 	tsteq	r0, #155189248	; 0x9400000
     cb8:	3b0b3a08 	blcc	2cf4e0 <_ram_end+0xca9d4>
     cbc:	00134905 	andeqs	r4, r3, r5, lsl #18
     cc0:	012e2600 	teqeq	lr, r0, lsl #12
     cc4:	0c3f1301 	ldceq	3, cr1, [pc], #-4
     cc8:	0b3a0e03 	bleq	e844dc <_ram_end+0xc7f9d0>
     ccc:	0c27053b 	cfstr32eq	mvfx0, [r7], #-236
     cd0:	01120111 	tsteq	r2, r1, lsl r1
     cd4:	00000a40 	andeq	r0, r0, r0, asr #20
     cd8:	03000527 	tsteq	r0, #163577856	; 0x9c00000
     cdc:	3b0b3a08 	blcc	2cf504 <_ram_end+0xca9f8>
     ce0:	02134905 	andeqs	r4, r3, #81920	; 0x14000
     ce4:	2800000a 	stmcsda	r0, {r1, r3}
     ce8:	0e030034 	mcreq	0, 0, r0, cr3, cr4, {1}
     cec:	053b0b3a 	ldreq	r0, [fp, #-2874]!
     cf0:	0a021349 	beq	85a1c <.debug_abbrev+0x85a1c>
     cf4:	34290000 	strcct	r0, [r9]
     cf8:	3a080300 	bcc	201900 <usb_write+0x118>
     cfc:	49053b0b 	stmmidb	r5, {r0, r1, r3, r8, r9, fp, ip, sp}
     d00:	000a0213 	andeq	r0, sl, r3, lsl r2
     d04:	00342a00 	eoreqs	r2, r4, r0, lsl #20
     d08:	0b3a0803 	bleq	e82d1c <_ram_end+0xc7e210>
     d0c:	1349053b 	cmpne	r9, #247463936	; 0xec00000
     d10:	012b0000 	teqeq	fp, r0
     d14:	49130101 	ldmmidb	r3, {r0, r8}
     d18:	2c000013 	stccs	0, cr0, [r0], {19}
     d1c:	13490021 	cmpne	r9, #33	; 0x21
     d20:	00000b2f 	andeq	r0, r0, pc, lsr #22
     d24:	0300342d 	tsteq	r0, #754974720	; 0x2d000000
     d28:	3b0b3a0e 	blcc	2cf568 <_ram_end+0xcaa5c>
     d2c:	3f13490b 	swicc	0x0013490b
     d30:	000a020c 	andeq	r0, sl, ip, lsl #4
     d34:	00342e00 	eoreqs	r2, r4, r0, lsl #28
     d38:	0b3a0e03 	bleq	e8454c <_ram_end+0xc7fa40>
     d3c:	13490b3b 	cmpne	r9, #60416	; 0xec00
     d40:	00000a02 	andeq	r0, r0, r2, lsl #20
     d44:	01110100 	tsteq	r1, r0, lsl #2
     d48:	01120610 	tsteq	r2, r0, lsl r6
     d4c:	0e250111 	mcreq	1, 1, r0, cr5, cr1, {0}
     d50:	0e030b13 	mcreq	11, 0, r0, cr3, cr3, {0}
     d54:	00000e1b 	andeq	r0, r0, fp, lsl lr
     d58:	03001602 	tsteq	r0, #2097152	; 0x200000
     d5c:	3b0b3a0e 	blcc	2cf59c <_ram_end+0xcaa90>
     d60:	0013490b 	andeqs	r4, r3, fp, lsl #18
     d64:	00240300 	eoreq	r0, r4, r0, lsl #6
     d68:	0b0b0e03 	bleq	2c457c <_ram_end+0xbfa70>
     d6c:	00000b3e 	andeq	r0, r0, lr, lsr fp
     d70:	49003504 	stmmidb	r0, {r2, r8, sl, ip, sp}
     d74:	05000013 	streq	r0, [r0, #-19]
     d78:	13010101 	tstne	r1, #1073741824	; 0x40000000
     d7c:	00001349 	andeq	r1, r0, r9, asr #6
     d80:	49002106 	stmmidb	r0, {r1, r2, r8, sp}
     d84:	000b2f13 	andeq	r2, fp, r3, lsl pc
     d88:	01130700 	tsteq	r3, r0, lsl #14
     d8c:	0e031301 	cdpeq	3, 0, cr1, cr3, cr1, {0}
     d90:	0b3a0b0b 	bleq	e839c4 <_ram_end+0xc7eeb8>
     d94:	00000b3b 	andeq	r0, r0, fp, lsr fp
     d98:	03000d08 	tsteq	r0, #512	; 0x200
     d9c:	3b0b3a0e 	blcc	2cf5dc <_ram_end+0xcaad0>
     da0:	3813490b 	ldmccda	r3, {r0, r1, r3, r8, fp, lr}
     da4:	0900000a 	stmeqdb	r0, {r1, r3}
     da8:	0b0b000f 	bleq	2c0dec <_ram_end+0xbc2e0>
     dac:	00001349 	andeq	r1, r0, r9, asr #6
     db0:	0101130a 	tsteq	r1, sl, lsl #6
     db4:	0b0e0313 	bleq	381a08 <_ram_end+0x17cefc>
     db8:	3b0b3a0b 	blcc	2cf5ec <_ram_end+0xcaae0>
     dbc:	0b000005 	bleq	dd8 <.debug_abbrev+0xdd8>
     dc0:	0e03000d 	cdpeq	0, 0, cr0, cr3, cr13, {0}
     dc4:	053b0b3a 	ldreq	r0, [fp, #-2874]!
     dc8:	0a381349 	beq	e05af4 <_ram_end+0xc00fe8>
     dcc:	160c0000 	strne	r0, [ip], -r0
     dd0:	3a0e0300 	bcc	3819d8 <_ram_end+0x17cecc>
     dd4:	49053b0b 	stmmidb	r5, {r0, r1, r3, r8, r9, fp, ip, sp}
     dd8:	0d000013 	stceq	0, cr0, [r0, #-76]
     ddc:	13010113 	tstne	r1, #-1073741820	; 0xc0000004
     de0:	050b0e03 	streq	r0, [fp, #-3587]
     de4:	053b0b3a 	ldreq	r0, [fp, #-2874]!
     de8:	2e0e0000 	cdpcs	0, 0, cr0, cr14, cr0, {0}
     dec:	3f130101 	swicc	0x00130101
     df0:	3a0e030c 	bcc	381a28 <_ram_end+0x17cf1c>
     df4:	270b3b0b 	strcs	r3, [fp, -fp, lsl #22]
     df8:	000b200c 	andeq	r2, fp, ip
     dfc:	00050f00 	andeq	r0, r5, r0, lsl #30
     e00:	0b3a0e03 	bleq	e84614 <_ram_end+0xc7fb08>
     e04:	13490b3b 	cmpne	r9, #60416	; 0xec00
     e08:	2e100000 	wxorcs	wr0, wr0, wr0
     e0c:	31130101 	tstcc	r3, r1, lsl #2
     e10:	12011113 	andne	r1, r1, #-1073741820	; 0xc0000004
     e14:	000a4001 	andeq	r4, sl, r1
     e18:	00051100 	andeq	r1, r5, r0, lsl #2
     e1c:	0a021331 	beq	85ae8 <.debug_abbrev+0x85ae8>
     e20:	0b120000 	bleq	480e28 <_ram_end+0x27c31c>
     e24:	00130101 	andeqs	r0, r3, r1, lsl #2
     e28:	00051300 	andeq	r1, r5, r0, lsl #6
     e2c:	00001331 	andeq	r1, r0, r1, lsr r3
     e30:	00010b14 	andeq	r0, r1, r4, lsl fp
     e34:	011d1500 	tsteq	sp, r0, lsl #10
     e38:	13311301 	teqne	r1, #67108864	; 0x4000000
     e3c:	01120111 	tsteq	r2, r1, lsl r1
     e40:	1d160000 	ldcne	0, cr0, [r6]
     e44:	11133101 	tstne	r3, r1, lsl #2
     e48:	00011201 	andeq	r1, r1, r1, lsl #4
     e4c:	012e1700 	teqeq	lr, r0, lsl #14
     e50:	0c3f1301 	ldceq	3, cr1, [pc], #-4
     e54:	0b3a0e03 	bleq	e84668 <_ram_end+0xc7fb5c>
     e58:	0c270b3b 	stceq	11, cr0, [r7], #-236
     e5c:	0b201349 	bleq	805b88 <_ram_end+0x60107c>
     e60:	34180000 	ldrcc	r0, [r8]
     e64:	3a0e0300 	bcc	381a6c <_ram_end+0x17cf60>
     e68:	490b3b0b 	stmmidb	fp, {r0, r1, r3, r8, r9, fp, ip, sp}
     e6c:	19000013 	stmnedb	r0, {r0, r1, r4}
     e70:	13490026 	cmpne	r9, #38	; 0x26
     e74:	341a0000 	ldrcc	r0, [sl]
     e78:	02133100 	andeqs	r3, r3, #0	; 0x0
     e7c:	1b00000a 	blne	eac <.debug_abbrev+0xeac>
     e80:	13310034 	teqne	r1, #52	; 0x34
     e84:	0b1c0000 	bleq	700e8c <_ram_end+0x4fc380>
     e88:	00065501 	andeq	r5, r6, r1, lsl #10
     e8c:	00241d00 	eoreq	r1, r4, r0, lsl #26
     e90:	0b0b0803 	bleq	2c2ea4 <_ram_end+0xbe398>
     e94:	00000b3e 	andeq	r0, r0, lr, lsr fp
     e98:	01012e1e 	tsteq	r1, lr, lsl lr
     e9c:	030c3f13 	tsteq	ip, #76	; 0x4c
     ea0:	3b0b3a0e 	blcc	2cf6e0 <_ram_end+0xcabd4>
     ea4:	110c270b 	tstne	ip, fp, lsl #14
     ea8:	40011201 	andmi	r1, r1, r1, lsl #4
     eac:	1f00000a 	swine	0x0000000a
     eb0:	1331002e 	teqne	r1, #46	; 0x2e
     eb4:	0b200000 	bleq	800ebc <_ram_end+0x5fc3b0>
     eb8:	12011101 	andne	r1, r1, #1073741824	; 0x40000000
     ebc:	21000001 	tstcs	r0, r1
     ec0:	0c3f002e 	ldceq	0, cr0, [pc], #-184
     ec4:	0b3a0e03 	bleq	e846d8 <_ram_end+0xc7fbcc>
     ec8:	0c270b3b 	stceq	11, cr0, [r7], #-236
     ecc:	0b201349 	bleq	805bf8 <_ram_end+0x6010ec>
     ed0:	05220000 	streq	r0, [r2]!
     ed4:	3a080300 	bcc	201adc <usb_read+0xcc>
     ed8:	490b3b0b 	stmmidb	fp, {r0, r1, r3, r8, r9, fp, ip, sp}
     edc:	000a0213 	andeq	r0, sl, r3, lsl r2
     ee0:	00342300 	eoreqs	r2, r4, r0, lsl #6
     ee4:	0b3a0e03 	bleq	e846f8 <_ram_end+0xc7fbec>
     ee8:	13490b3b 	cmpne	r9, #60416	; 0xec00
     eec:	00000a02 	andeq	r0, r0, r2, lsl #20
     ef0:	01012e24 	tsteq	r1, r4, lsr #28
     ef4:	3a080313 	bcc	201b48 <usb_print+0x4>
     ef8:	270b3b0b 	strcs	r3, [fp, -fp, lsl #22]
     efc:	000b200c 	andeq	r2, fp, ip
     f00:	00342500 	eoreqs	r2, r4, r0, lsl #10
     f04:	0b3a0803 	bleq	e82f18 <_ram_end+0xc7e40c>
     f08:	13490b3b 	cmpne	r9, #60416	; 0xec00
     f0c:	2e260000 	cdpcs	0, 2, cr0, cr6, cr0, {0}
     f10:	3f130101 	swicc	0x00130101
     f14:	3a0e030c 	bcc	381b4c <_ram_end+0x17d040>
     f18:	270b3b0b 	strcs	r3, [fp, -fp, lsl #22]
     f1c:	1113490c 	tstne	r3, ip, lsl #18
     f20:	40011201 	andmi	r1, r1, r1, lsl #4
     f24:	2700000a 	strcs	r0, [r0, -sl]
     f28:	0c3f012e 	ldfeqs	f0, [pc], #-184
     f2c:	0b3a0e03 	bleq	e84740 <_ram_end+0xc7fc34>
     f30:	13490b3b 	cmpne	r9, #60416	; 0xec00
     f34:	00000c3c 	andeq	r0, r0, ip, lsr ip
     f38:	00001828 	andeq	r1, r0, r8, lsr #16
     f3c:	00342900 	eoreqs	r2, r4, r0, lsl #18
     f40:	0b3a0803 	bleq	e82f54 <_ram_end+0xc7e448>
     f44:	13490b3b 	cmpne	r9, #60416	; 0xec00
     f48:	00000a02 	andeq	r0, r0, r2, lsl #20
     f4c:	0300342a 	tsteq	r0, #704643072	; 0x2a000000
     f50:	3b0b3a0e 	blcc	2cf790 <_ram_end+0xcac84>
     f54:	3f13490b 	swicc	0x0013490b
     f58:	000a020c 	andeq	r0, sl, ip, lsl #4
     f5c:	11010000 	tstne	r1, r0
     f60:	12061001 	andne	r1, r6, #1	; 0x1
     f64:	25011101 	strcs	r1, [r1, #-257]
     f68:	030b130e 	tsteq	fp, #939524096	; 0x38000000
     f6c:	000e1b0e 	andeq	r1, lr, lr, lsl #22
     f70:	00160200 	andeqs	r0, r6, r0, lsl #4
     f74:	0b3a0e03 	bleq	e84788 <_ram_end+0xc7fc7c>
     f78:	13490b3b 	cmpne	r9, #60416	; 0xec00
     f7c:	0f030000 	swieq	0x00030000
     f80:	000b0b00 	andeq	r0, fp, r0, lsl #22
     f84:	012e0400 	teqeq	lr, r0, lsl #8
     f88:	0c3f1301 	ldceq	3, cr1, [pc], #-4
     f8c:	0b3a0e03 	bleq	e847a0 <_ram_end+0xc7fc94>
     f90:	0c270b3b 	stceq	11, cr0, [r7], #-236
     f94:	01111349 	tsteq	r1, r9, asr #6
     f98:	0a400112 	beq	10013e8 <_ram_end+0xdfc8dc>
     f9c:	05050000 	streq	r0, [r5]
     fa0:	3a0e0300 	bcc	381ba8 <_ram_end+0x17d09c>
     fa4:	490b3b0b 	stmmidb	fp, {r0, r1, r3, r8, r9, fp, ip, sp}
     fa8:	000a0213 	andeq	r0, sl, r3, lsl r2
     fac:	00180600 	andeqs	r0, r8, r0, lsl #12
     fb0:	34070000 	strcc	r0, [r7]
     fb4:	3a080300 	bcc	201bbc <usb_print+0x78>
     fb8:	490b3b0b 	stmmidb	fp, {r0, r1, r3, r8, r9, fp, ip, sp}
     fbc:	000a0213 	andeq	r0, sl, r3, lsl r2
     fc0:	00340800 	eoreqs	r0, r4, r0, lsl #16
     fc4:	0b3a0e03 	bleq	e847d8 <_ram_end+0xc7fccc>
     fc8:	13490b3b 	cmpne	r9, #60416	; 0xec00
     fcc:	00000a02 	andeq	r0, r0, r2, lsl #20
     fd0:	03003409 	tsteq	r0, #150994944	; 0x9000000
     fd4:	3b0b3a0e 	blcc	2cf814 <_ram_end+0xcad08>
     fd8:	0013490b 	andeqs	r4, r3, fp, lsl #18
     fdc:	000a0a00 	andeq	r0, sl, r0, lsl #20
     fe0:	0b3a0e03 	bleq	e847f4 <_ram_end+0xc7fce8>
     fe4:	01110b3b 	tsteq	r1, fp, lsr fp
     fe8:	0b0b0000 	bleq	2c0ff0 <_ram_end+0xbc4e4>
     fec:	11130101 	tstne	r3, r1, lsl #2
     ff0:	00011201 	andeq	r1, r1, r1, lsl #4
     ff4:	012e0c00 	teqeq	lr, r0, lsl #24
     ff8:	0e030c3f 	mcreq	12, 0, r0, cr3, cr15, {1}
     ffc:	0b3b0b3a 	bleq	ec3cec <_ram_end+0xcbf1e0>
    1000:	0c3c1349 	ldceq	3, cr1, [ip], #-292
    1004:	0b0d0000 	bleq	34100c <_ram_end+0x13c500>
    1008:	12011101 	andne	r1, r1, #1073741824	; 0x40000000
    100c:	0e000001 	cdpeq	0, 0, cr0, cr0, cr1, {0}
    1010:	1301012e 	tstne	r1, #-2147483637	; 0x8000000b
    1014:	0e030c3f 	mcreq	12, 0, r0, cr3, cr15, {1}
    1018:	0b3b0b3a 	bleq	ec3d08 <_ram_end+0xcbf1fc>
    101c:	0c3c1349 	ldceq	3, cr1, [ip], #-292
    1020:	0b0f0000 	bleq	3c1028 <_ram_end+0x1bc51c>
    1024:	00065501 	andeq	r5, r6, r1, lsl #10
    1028:	00241000 	eoreq	r1, r4, r0
    102c:	0b0b0803 	bleq	2c3040 <_ram_end+0xbe534>
    1030:	00000b3e 	andeq	r0, r0, lr, lsr fp
    1034:	0b000f11 	bleq	4c80 <.debug_abbrev+0x4c80>
    1038:	0013490b 	andeqs	r4, r3, fp, lsl #18
    103c:	00261200 	eoreq	r1, r6, r0, lsl #4
    1040:	00001349 	andeq	r1, r0, r9, asr #6
    1044:	03002413 	tsteq	r0, #318767104	; 0x13000000
    1048:	3e0b0b0e 	fmacdcc	d0, d11, d14
    104c:	1400000b 	strne	r0, [r0], #-11
    1050:	13010101 	tstne	r1, #1073741824	; 0x40000000
    1054:	00001349 	andeq	r1, r0, r9, asr #6
    1058:	49002115 	stmmidb	r0, {r0, r2, r4, r8, sp}
    105c:	000b2f13 	andeq	r2, fp, r3, lsl pc
    1060:	00051600 	andeq	r1, r5, r0, lsl #12
    1064:	0b3a0803 	bleq	e83078 <_ram_end+0xc7e56c>
    1068:	13490b3b 	cmpne	r9, #60416	; 0xec00
    106c:	00000a02 	andeq	r0, r0, r2, lsl #20
    1070:	00002617 	andeq	r2, r0, r7, lsl r6
    1074:	012e1800 	teqeq	lr, r0, lsl #16
    1078:	0c3f1301 	ldceq	3, cr1, [pc], #-4
    107c:	0b3a0e03 	bleq	e84890 <_ram_end+0xc7fd84>
    1080:	0c270b3b 	stceq	11, cr0, [r7], #-236
    1084:	0b201349 	bleq	805db0 <_ram_end+0x6012a4>
    1088:	05190000 	ldreq	r0, [r9]
    108c:	3a080300 	bcc	201c94 <usb_print+0x150>
    1090:	490b3b0b 	stmmidb	fp, {r0, r1, r3, r8, r9, fp, ip, sp}
    1094:	1a000013 	bne	10e8 <.debug_abbrev+0x10e8>
    1098:	0e030005 	cdpeq	0, 0, cr0, cr3, cr5, {0}
    109c:	0b3b0b3a 	bleq	ec3d8c <_ram_end+0xcbf280>
    10a0:	00001349 	andeq	r1, r0, r9, asr #6
    10a4:	0300341b 	tsteq	r0, #452984832	; 0x1b000000
    10a8:	3b0b3a08 	blcc	2cf8d0 <_ram_end+0xcadc4>
    10ac:	0013490b 	andeqs	r4, r3, fp, lsl #18
    10b0:	012e1c00 	teqeq	lr, r0, lsl #24
    10b4:	13311301 	teqne	r1, #67108864	; 0x4000000
    10b8:	01120111 	tsteq	r2, r1, lsl r1
    10bc:	00000a40 	andeq	r0, r0, r0, asr #20
    10c0:	3100051d 	tstcc	r0, sp, lsl r5
    10c4:	000a0213 	andeq	r0, sl, r3, lsl r2
    10c8:	00341e00 	eoreqs	r1, r4, r0, lsl #28
    10cc:	0a021331 	beq	85d98 <.debug_abbrev+0x85d98>
    10d0:	1d1f0000 	ldcne	0, cr0, [pc]
    10d4:	11133101 	tstne	r3, r1, lsl #2
    10d8:	00011201 	andeq	r1, r1, r1, lsl #4
    10dc:	00052000 	andeq	r2, r5, r0
    10e0:	00001331 	andeq	r1, r0, r1, lsr r3
    10e4:	3f012e21 	swicc	0x00012e21
    10e8:	3a0e030c 	bcc	381d20 <_ram_end+0x17d214>
    10ec:	270b3b0b 	strcs	r3, [fp, -fp, lsl #22]
    10f0:	1113490c 	tstne	r3, ip, lsl #18
    10f4:	40011201 	andmi	r1, r1, r1, lsl #4
    10f8:	2200000a 	andcs	r0, r0, #10	; 0xa
    10fc:	13310034 	teqne	r1, #52	; 0x34
    1100:	01000000 	tsteq	r0, r0
    1104:	06100111 	undefined
    1108:	01110112 	tsteq	r1, r2, lsl r1
    110c:	0b130e25 	bleq	4c49a8 <_ram_end+0x2bfe9c>
    1110:	0e1b0e03 	cdpeq	14, 1, cr0, cr11, cr3, {0}
    1114:	24020000 	strcs	r0, [r2]
    1118:	0b0e0300 	bleq	381d20 <_ram_end+0x17d214>
    111c:	000b3e0b 	andeq	r3, fp, fp, lsl #28
    1120:	012e0300 	teqeq	lr, r0, lsl #6
    1124:	0c3f1301 	ldceq	3, cr1, [pc], #-4
    1128:	0b3a0e03 	bleq	e8493c <_ram_end+0xc7fe30>
    112c:	0c270b3b 	stceq	11, cr0, [r7], #-236
    1130:	01111349 	tsteq	r1, r9, asr #6
    1134:	0a400112 	beq	1001584 <_ram_end+0xdfca78>
    1138:	05040000 	streq	r0, [r4]
    113c:	3a080300 	bcc	201d44 <usb_print+0x200>
    1140:	490b3b0b 	stmmidb	fp, {r0, r1, r3, r8, r9, fp, ip, sp}
    1144:	000a0213 	andeq	r0, sl, r3, lsl r2
    1148:	00050500 	andeq	r0, r5, r0, lsl #10
    114c:	0b3a0e03 	bleq	e84960 <_ram_end+0xc7fe54>
    1150:	13490b3b 	cmpne	r9, #60416	; 0xec00
    1154:	00000a02 	andeq	r0, r0, r2, lsl #20
    1158:	03002406 	tsteq	r0, #100663296	; 0x6000000
    115c:	3e0b0b08 	fmacdcc	d0, d11, d8
    1160:	0700000b 	streq	r0, [r0, -fp]
    1164:	0b0b000f 	bleq	2c11a8 <_ram_end+0xbc69c>
    1168:	00001349 	andeq	r1, r0, r9, asr #6
    116c:	01012e08 	tsteq	r1, r8, lsl #28
    1170:	030c3f13 	tsteq	ip, #76	; 0x4c
    1174:	3b0b3a0e 	blcc	2cf9b4 <_ram_end+0xcaea8>
    1178:	110c270b 	tstne	ip, fp, lsl #14
    117c:	40011201 	andmi	r1, r1, r1, lsl #4
    1180:	0900000a 	stmeqdb	r0, {r1, r3}
    1184:	1301012e 	tstne	r1, #-2147483637	; 0x8000000b
    1188:	0e030c3f 	mcreq	12, 0, r0, cr3, cr15, {1}
    118c:	0b3b0b3a 	bleq	ec3e7c <_ram_end+0xcbf370>
    1190:	0b200c27 	bleq	804234 <_ram_end+0x5ff728>
    1194:	050a0000 	streq	r0, [sl]
    1198:	3a080300 	bcc	201da0 <usb_poll+0x2c>
    119c:	490b3b0b 	stmmidb	fp, {r0, r1, r3, r8, r9, fp, ip, sp}
    11a0:	0b000013 	bleq	11f4 <.debug_abbrev+0x11f4>
    11a4:	0e030005 	cdpeq	0, 0, cr0, cr3, cr5, {0}
    11a8:	0b3b0b3a 	bleq	ec3e98 <_ram_end+0xcbf38c>
    11ac:	00001349 	andeq	r1, r0, r9, asr #6
    11b0:	4900260c 	stmmidb	r0, {r2, r3, r9, sl, sp}
    11b4:	0d000013 	stceq	0, cr0, [r0, #-76]
    11b8:	1301012e 	tstne	r1, #-2147483637	; 0x8000000b
    11bc:	01111331 	tsteq	r1, r1, lsr r3
    11c0:	0a400112 	beq	1001610 <_ram_end+0xdfcb04>
    11c4:	050e0000 	streq	r0, [lr]
    11c8:	02133100 	andeqs	r3, r3, #0	; 0x0
    11cc:	0f00000a 	swieq	0x0000000a
    11d0:	08030034 	stmeqda	r3, {r2, r4, r5}
    11d4:	0b3b0b3a 	bleq	ec3ec4 <_ram_end+0xcbf3b8>
    11d8:	0a021349 	beq	85f04 <.debug_abbrev+0x85f04>
    11dc:	34100000 	ldrcc	r0, [r0]
    11e0:	3a0e0300 	bcc	381de8 <_ram_end+0x17d2dc>
    11e4:	490b3b0b 	stmmidb	fp, {r0, r1, r3, r8, r9, fp, ip, sp}
    11e8:	000a0213 	andeq	r0, sl, r3, lsl r2
    11ec:	011d1100 	tsteq	sp, r0, lsl #2
    11f0:	13311301 	teqne	r1, #67108864	; 0x4000000
    11f4:	01120111 	tsteq	r2, r1, lsl r1
    11f8:	1d120000 	ldcne	0, cr0, [r2]
    11fc:	11133101 	tstne	r3, r1, lsl #2
    1200:	00011201 	andeq	r1, r1, r1, lsl #4
    1204:	01011300 	tsteq	r1, r0, lsl #6
    1208:	13491301 	cmpne	r9, #67108864	; 0x4000000
    120c:	21140000 	tstcs	r4, r0
    1210:	2f134900 	swics	0x00134900
    1214:	1500000b 	strne	r0, [r0, #-11]
    1218:	08030034 	stmeqda	r3, {r2, r4, r5}
    121c:	0b3b0b3a 	bleq	ec3f0c <_ram_end+0xcbf400>
    1220:	00001349 	andeq	r1, r0, r9, asr #6
    1224:	11010b16 	tstne	r1, r6, lsl fp
    1228:	00011201 	andeq	r1, r1, r1, lsl #4
    122c:	012e1700 	teqeq	lr, r0, lsl #14
    1230:	0e030c3f 	mcreq	12, 0, r0, cr3, cr15, {1}
    1234:	0b3b0b3a 	bleq	ec3f24 <_ram_end+0xcbf418>
    1238:	13490c27 	cmpne	r9, #9984	; 0x2700
    123c:	00000c3c 	andeq	r0, r0, ip, lsr ip
    1240:	49000518 	stmmidb	r0, {r3, r4, r8, sl}
    1244:	19000013 	stmnedb	r0, {r0, r1, r4}
    1248:	1301012e 	tstne	r1, #-2147483637	; 0x8000000b
    124c:	0e030c3f 	mcreq	12, 0, r0, cr3, cr15, {1}
    1250:	053b0b3a 	ldreq	r0, [fp, #-2874]!
    1254:	01110c27 	tsteq	r1, r7, lsr #24
    1258:	0a400112 	beq	10016a8 <_ram_end+0xdfcb9c>
    125c:	051a0000 	ldreq	r0, [sl]
    1260:	3a080300 	bcc	201e68 <usb_poll+0xf4>
    1264:	49053b0b 	stmmidb	r5, {r0, r1, r3, r8, r9, fp, ip, sp}
    1268:	000a0213 	andeq	r0, sl, r3, lsl r2
    126c:	00341b00 	eoreqs	r1, r4, r0, lsl #22
    1270:	0b3a0803 	bleq	e83284 <_ram_end+0xc7e778>
    1274:	1349053b 	cmpne	r9, #247463936	; 0xec00000
    1278:	2e1c0000 	wxorcs	wr0, wr12, wr0
    127c:	3f130101 	swicc	0x00130101
    1280:	3a0e030c 	bcc	381eb8 <_ram_end+0x17d3ac>
    1284:	27053b0b 	strcs	r3, [r5, -fp, lsl #22]
    1288:	1113490c 	tstne	r3, ip, lsl #18
    128c:	40011201 	andmi	r1, r1, r1, lsl #4
    1290:	1d00000a 	stcne	0, cr0, [r0, #-40]
    1294:	0e030005 	cdpeq	0, 0, cr0, cr3, cr5, {0}
    1298:	053b0b3a 	ldreq	r0, [fp, #-2874]!
    129c:	0a021349 	beq	85fc8 <.debug_abbrev+0x85fc8>
    12a0:	341e0000 	ldrcc	r0, [lr]
    12a4:	3a080300 	bcc	201eac <usb_poll+0x138>
    12a8:	49053b0b 	stmmidb	r5, {r0, r1, r3, r8, r9, fp, ip, sp}
    12ac:	000a0213 	andeq	r0, sl, r3, lsl r2
    12b0:	00341f00 	eoreqs	r1, r4, r0, lsl #30
    12b4:	0b3a0e03 	bleq	e84ac8 <_ram_end+0xc7ffbc>
    12b8:	1349053b 	cmpne	r9, #247463936	; 0xec00000
    12bc:	00000a02 	andeq	r0, r0, r2, lsl #20
    12c0:	01010b20 	tsteq	r1, r0, lsr #22
    12c4:	00065513 	andeq	r5, r6, r3, lsl r5
    12c8:	00342100 	eoreqs	r2, r4, r0, lsl #2
    12cc:	0b3a0e03 	bleq	e84ae0 <_ram_end+0xc7ffd4>
    12d0:	13490b3b 	cmpne	r9, #60416	; 0xec00
    12d4:	0a020c3f 	beq	843d8 <.debug_abbrev+0x843d8>
    12d8:	Address 0x12d8 is out of bounds.

Disassembly of section .debug_info:

00000000 <.debug_info>:
       0:	000002a7 	andeq	r0, r0, r7, lsr #5
       4:	00000002 	andeq	r0, r0, r2
       8:	01040000 	tsteq	r4, r0
       c:	00000000 	andeq	r0, r0, r0
      10:	0020021c 	eoreq	r0, r0, ip, lsl r2
      14:	0020015c 	eoreq	r0, r0, ip, asr r1
      18:	00000069 	andeq	r0, r0, r9, rrx
      1c:	00000001 	andeq	r0, r0, r1
      20:	00012d00 	andeq	r2, r1, r0, lsl #26
      24:	011f0200 	tsteq	pc, r0, lsl #4
      28:	08010000 	stmeqda	r1, {}
      2c:	00017502 	andeq	r7, r1, r2, lsl #10
      30:	02070200 	andeq	r0, r7, #0	; 0x0
      34:	0000010d 	andeq	r0, r0, sp, lsl #2
      38:	3f030704 	swicc	0x00030704
      3c:	02000000 	andeq	r0, r0, #0	; 0x0
      40:	00000112 	andeq	r0, r0, r2, lsl r1
      44:	0d020704 	stceq	7, cr0, [r2, #-16]
      48:	04000001 	streq	r0, [r0], #-1
      4c:	005d0407 	subeqs	r0, sp, r7, lsl #8
      50:	003a0000 	eoreqs	r0, sl, r0
      54:	46050000 	strmi	r0, [r5], -r0
      58:	00000000 	andeq	r0, r0, r0
      5c:	006d0400 	rsbeq	r0, sp, r0, lsl #8
      60:	003a0000 	eoreqs	r0, sl, r0
      64:	46050000 	strmi	r0, [r5], -r0
      68:	02000000 	andeq	r0, r0, #0	; 0x0
      6c:	007d0400 	rsbeqs	r0, sp, r0, lsl #8
      70:	003a0000 	eoreqs	r0, sl, r0
      74:	46050000 	strmi	r0, [r5], -r0
      78:	04000000 	streq	r0, [r0]
      7c:	01b70600 	moveqs	r0, r0, lsl #12
      80:	00120000 	andeqs	r0, r2, r0
      84:	02700000 	rsbeqs	r0, r0, #0	; 0x0
      88:	88070183 	stmhida	r7, {r0, r1, r7, r8}
      8c:	02000001 	andeq	r0, r0, #1	; 0x1
      90:	003a0184 	eoreqs	r0, sl, r4, lsl #3
      94:	23020000 	tstcs	r2, #0	; 0x0
      98:	01660700 	cmneq	r6, r0, lsl #14
      9c:	85020000 	strhi	r0, [r2]
      a0:	00003a01 	andeq	r3, r0, r1, lsl #20
      a4:	04230200 	streqt	r0, [r3], #-512
      a8:	00015407 	andeq	r5, r1, r7, lsl #8
      ac:	01860200 	orreq	r0, r6, r0, lsl #4
      b0:	0000003a 	andeq	r0, r0, sl, lsr r0
      b4:	07082302 	streq	r2, [r8, -r2, lsl #6]
      b8:	000000a2 	andeq	r0, r0, r2, lsr #1
      bc:	b7018702 	strlt	r8, [r1, -r2, lsl #14]
      c0:	02000001 	andeq	r0, r0, #1	; 0x1
      c4:	2f070c23 	swics	0x00070c23
      c8:	02000000 	andeq	r0, r0, #0	; 0x0
      cc:	003a0188 	eoreqs	r0, sl, r8, lsl #3
      d0:	23020000 	tstcs	r2, #0	; 0x0
      d4:	00260710 	eoreq	r0, r6, r0, lsl r7
      d8:	89020000 	stmhidb	r2, {}
      dc:	00003a01 	andeq	r3, r0, r1, lsl #20
      e0:	14230200 	strnet	r0, [r3], #-512
      e4:	00001d07 	andeq	r1, r0, r7, lsl #26
      e8:	018a0200 	orreq	r0, sl, r0, lsl #4
      ec:	0000003a 	andeq	r0, r0, sl, lsr r0
      f0:	07182302 	ldreq	r2, [r8, -r2, lsl #6]
      f4:	000000ac 	andeq	r0, r0, ip, lsr #1
      f8:	bc018b02 	stclt	11, cr8, [r1], {2}
      fc:	02000001 	andeq	r0, r0, #1	; 0x1
     100:	a4071c23 	strge	r1, [r7], #-3107
     104:	02000001 	andeq	r0, r0, #1	; 0x1
     108:	003a018c 	eoreqs	r0, sl, ip, lsl #3
     10c:	23020000 	tstcs	r2, #0	; 0x0
     110:	00380720 	eoreqs	r0, r8, r0, lsr #14
     114:	8d020000 	stchi	0, cr0, [r2]
     118:	00003a01 	andeq	r3, r0, r1, lsl #20
     11c:	24230200 	strcst	r0, [r3], #-512
     120:	0000b607 	andeq	fp, r0, r7, lsl #12
     124:	018e0200 	orreq	r0, lr, r0, lsl #4
     128:	000001c1 	andeq	r0, r0, r1, asr #3
     12c:	07282302 	streq	r2, [r8, -r2, lsl #6]!
     130:	0000007d 	andeq	r0, r0, sp, ror r0
     134:	3a018f02 	bcc	63d44 <.debug_info+0x63d44>
     138:	02000000 	andeq	r0, r0, #0	; 0x0
     13c:	5d072c23 	stcpl	12, cr2, [r7, #-140]
     140:	02000001 	andeq	r0, r0, #1	; 0x1
     144:	003a0190 	mlaeqs	sl, r0, r1, r0
     148:	23020000 	tstcs	r2, #0	; 0x0
     14c:	00c00730 	sbceq	r0, r0, r0, lsr r7
     150:	91020000 	tstls	r2, r0
     154:	0001c601 	andeq	ip, r1, r1, lsl #12
     158:	34230200 	strcct	r0, [r3], #-512
     15c:	0000e107 	andeq	lr, r0, r7, lsl #2
     160:	01920200 	orreqs	r0, r2, r0, lsl #4
     164:	000001cb 	andeq	r0, r0, fp, asr #3
     168:	07402302 	streqb	r2, [r0, -r2, lsl #6]
     16c:	000000fb 	streqd	r0, [r0], -fp
     170:	d0019302 	andle	r9, r1, r2, lsl #6
     174:	02000001 	andeq	r0, r0, #1	; 0x1
     178:	75074c23 	strvc	r4, [r7, #-3107]
     17c:	02000000 	andeq	r0, r0, #0	; 0x0
     180:	003a0194 	mlaeqs	sl, r4, r1, r0
     184:	23020000 	tstcs	r2, #0	; 0x0
     188:	01050760 	tsteq	r5, r0, ror #14
     18c:	95020000 	strls	r0, [r2]
     190:	00003a01 	andeq	r3, r0, r1, lsl #20
     194:	64230200 	strvst	r0, [r3], #-512
     198:	00019107 	andeq	r9, r1, r7, lsl #2
     19c:	01960200 	orreqs	r0, r6, r0, lsl #4
     1a0:	0000003a 	andeq	r0, r0, sl, lsr r0
     1a4:	07682302 	streqb	r2, [r8, -r2, lsl #6]!
     1a8:	0000000a 	andeq	r0, r0, sl
     1ac:	3a019702 	bcc	65dbc <.debug_info+0x65dbc>
     1b0:	02000000 	andeq	r0, r0, #0	; 0x0
     1b4:	03006c23 	tsteq	r0, #8960	; 0x2300
     1b8:	0000004d 	andeq	r0, r0, sp, asr #32
     1bc:	00004d03 	andeq	r4, r0, r3, lsl #26
     1c0:	004d0300 	subeq	r0, sp, r0, lsl #6
     1c4:	5d030000 	stcpl	0, cr0, [r3]
     1c8:	03000000 	tsteq	r0, #0	; 0x0
     1cc:	0000005d 	andeq	r0, r0, sp, asr r0
     1d0:	00006d03 	andeq	r6, r0, r3, lsl #26
     1d4:	00560800 	subeqs	r0, r6, r0, lsl #16
     1d8:	98020000 	stmlsda	r2, {}
     1dc:	0001e101 	andeq	lr, r1, r1, lsl #2
     1e0:	7d040900 	stcvc	9, cr0, [r4]
     1e4:	06000000 	streq	r0, [r0], -r0
     1e8:	00000222 	andeq	r0, r0, r2, lsr #4
     1ec:	00000198 	muleq	r0, r8, r1
     1f0:	01c1020c 	biceq	r0, r1, ip, lsl #4
     1f4:	00004107 	andeq	r4, r0, r7, lsl #2
     1f8:	01c20200 	biceq	r0, r2, r0, lsl #4
     1fc:	0000003a 	andeq	r0, r0, sl, lsr r0
     200:	07002302 	streq	r2, [r0, -r2, lsl #6]
     204:	0000014b 	andeq	r0, r0, fp, asr #2
     208:	3a01c302 	bcc	70e18 <.debug_info+0x70e18>
     20c:	02000000 	andeq	r0, r0, #0	; 0x0
     210:	86070423 	strhi	r0, [r7], -r3, lsr #8
     214:	02000000 	andeq	r0, r0, #0	; 0x0
     218:	003a01c4 	eoreqs	r0, sl, r4, asr #3
     21c:	23020000 	tstcs	r2, #0	; 0x0
     220:	4a080008 	bmi	200248 <__data_abort+0xc>
     224:	02000000 	andeq	r0, r0, #0	; 0x0
     228:	022e01c5 	eoreq	r0, lr, #1073741873	; 0x40000031
     22c:	04090000 	streq	r0, [r9]
     230:	000001e7 	andeq	r0, r0, r7, ror #3
     234:	0002660a 	andeq	r6, r2, sl, lsl #12
     238:	00610100 	rsbeq	r0, r1, r0, lsl #2
     23c:	11010000 	tstne	r1, r0
     240:	20015c01 	andcs	r5, r1, r1, lsl #24
     244:	20020c00 	andcs	r0, r2, r0, lsl #24
     248:	0b5d0100 	bleq	1740650 <_ram_end+0x153bb44>
     24c:	000000ca 	andeq	r0, r0, sl, asr #1
     250:	01d51201 	biceqs	r1, r5, r1, lsl #4
     254:	54010000 	strpl	r0, [r1]
     258:	00016f0b 	andeq	r6, r1, fp, lsl #30
     25c:	22130100 	andcss	r0, r3, #0	; 0x0
     260:	01000002 	tsteq	r0, r2
     264:	010c0051 	qaddeq	r0, r1, ip
     268:	0000008f 	andeq	r0, r0, pc, lsl #1
     26c:	0c014f01 	stceq	15, cr4, [r1], {1}
     270:	10002002 	andne	r2, r0, r2
     274:	01002002 	tsteq	r0, r2
     278:	cf010c5d 	swigt	0x00010c5d
     27c:	01000000 	tsteq	r0, r0
     280:	02100154 	andeqs	r0, r0, #21	; 0x15
     284:	02140020 	andeqs	r0, r4, #32	; 0x20
     288:	5d010020 	stcpl	0, cr0, [r1, #-128]
     28c:	00ea010d 	rsceq	r0, sl, sp, lsl #2
     290:	59010000 	stmpldb	r1, {}
     294:	0002a301 	andeq	sl, r2, r1, lsl #6
     298:	20021400 	andcs	r1, r2, r0, lsl #8
     29c:	20021c00 	andcs	r1, r2, r0, lsl #24
     2a0:	0e5d0100 	rdfeqe	f0, f5, f0
     2a4:	00746e69 	rsbeqs	r6, r4, r9, ror #28
     2a8:	da000504 	ble	16c0 <.debug_info+0x16c0>
     2ac:	02000001 	andeq	r0, r0, #1	; 0x1
     2b0:	0000c900 	andeq	ip, r0, r0, lsl #18
     2b4:	74010400 	strvc	r0, [r1], #-1024
     2b8:	4c000000 	stcmi	0, cr0, [r0], {0}
     2bc:	1c002003 	stcne	0, cr2, [r0], {3}
     2c0:	69002002 	stmvsdb	r0, {r1, sp}
     2c4:	01000000 	tsteq	r0, r0
     2c8:	000001d7 	ldreqd	r0, [r0], -r7
     2cc:	0000012d 	andeq	r0, r0, sp, lsr #2
     2d0:	00011f02 	andeq	r1, r1, r2, lsl #30
     2d4:	02080100 	andeq	r0, r8, #0	; 0x0
     2d8:	00000175 	andeq	r0, r0, r5, ror r1
     2dc:	0d020702 	stceq	7, cr0, [r2, #-8]
     2e0:	04000001 	streq	r0, [r0], #-1
     2e4:	01120207 	tsteq	r2, r7, lsl #4
     2e8:	07040000 	streq	r0, [r4, -r0]
     2ec:	00010d02 	andeq	r0, r1, r2, lsl #26
     2f0:	03070400 	tsteq	r7, #0	; 0x0
     2f4:	00000074 	andeq	r0, r0, r4, ror r0
     2f8:	0001cc01 	andeq	ip, r1, r1, lsl #24
     2fc:	010e0100 	tsteq	lr, r0, lsl #2
     300:	0020021c 	eoreq	r0, r0, ip, lsl r2
     304:	0020023c 	eoreq	r0, r0, ip, lsr r2
     308:	70045d01 	andvc	r5, r4, r1, lsl #26
     30c:	740f0100 	strvc	r0, [pc], #256	; 314 <.debug_info+0x314>
     310:	01000000 	tsteq	r0, r0
     314:	00690552 	rsbeq	r0, r9, r2, asr r5
     318:	007a1001 	rsbeqs	r1, sl, r1
     31c:	06000000 	streq	r0, [r0], -r0
     320:	00003a04 	andeq	r3, r0, r4, lsl #20
     324:	6e690700 	cdpvs	7, 6, cr0, cr9, cr0, {0}
     328:	05040074 	streq	r0, [r4, #-116]
     32c:	0000cf03 	andeq	ip, r0, r3, lsl #30
     330:	021f0100 	andeqs	r0, pc, #0	; 0x0
     334:	18010000 	stmneda	r1, {}
     338:	20023c01 	andcs	r3, r2, r1, lsl #24
     33c:	20029800 	andcs	r9, r2, r0, lsl #16
     340:	085b0100 	ldmeqda	fp, {r8}^
     344:	00000242 	andeq	r0, r0, r2, asr #4
     348:	00cf1901 	sbceq	r1, pc, r1, lsl #18
     34c:	51010000 	tstpl	r1, r0
     350:	00022c08 	andeq	r2, r2, r8, lsl #24
     354:	cf1a0100 	swigt	0x001a0100
     358:	01000000 	tsteq	r0, r0
     35c:	01c50854 	biceq	r0, r5, r4, asr r8
     360:	1a010000 	bne	40368 <.debug_info+0x40368>
     364:	000000cf 	andeq	r0, r0, pc, asr #1
     368:	01095301 	tsteq	r9, r1, lsl #6
     36c:	000001bd 	streqh	r0, [r0], -sp
     370:	007a2b01 	rsbeqs	r2, sl, r1, lsl #22
     374:	0a010000 	beq	4037c <.debug_info+0x4037c>
     378:	04060000 	streq	r0, [r6]
     37c:	00000033 	andeq	r0, r0, r3, lsr r0
     380:	00010903 	andeq	r0, r1, r3, lsl #18
     384:	01ac0100 	moveq	r0, r0, lsl #2
     388:	49010000 	stmmidb	r1, {}
     38c:	20029801 	andcs	r9, r2, r1, lsl #16
     390:	2002b400 	andcs	fp, r2, r0, lsl #8
     394:	085b0100 	ldmeqda	fp, {r8}^
     398:	00000242 	andeq	r0, r0, r2, asr #4
     39c:	00cf4a01 	sbceq	r4, pc, r1, lsl #20
     3a0:	51010000 	tstpl	r1, r0
     3a4:	01bd0109 	moveqs	r0, r9, lsl #2
     3a8:	2b010000 	blcs	403b0 <.debug_info+0x403b0>
     3ac:	0000007a 	andeq	r0, r0, sl, ror r0
     3b0:	00000a01 	andeq	r0, r0, r1, lsl #20
     3b4:	00013d03 	andeq	r3, r1, r3, lsl #26
     3b8:	01f40100 	mvneqs	r0, r0, lsl #2
     3bc:	5d010000 	stcpl	0, cr0, [r1]
     3c0:	2002b401 	andcs	fp, r2, r1, lsl #8
     3c4:	2002d000 	andcs	sp, r2, r0
     3c8:	085b0100 	ldmeqda	fp, {r8}^
     3cc:	00000242 	andeq	r0, r0, r2, asr #4
     3d0:	00cf5e01 	sbceq	r5, pc, r1, lsl #28
     3d4:	51010000 	tstpl	r1, r0
     3d8:	01bd0109 	moveqs	r0, r9, lsl #2
     3dc:	2b010000 	blcs	403e4 <.debug_info+0x403e4>
     3e0:	0000007a 	andeq	r0, r0, sl, ror r0
     3e4:	00000a01 	andeq	r0, r0, r1, lsl #20
     3e8:	00017103 	andeq	r7, r1, r3, lsl #2
     3ec:	01df0100 	biceqs	r0, pc, r0, lsl #2
     3f0:	71010000 	tstvc	r1, r0
     3f4:	2002d001 	andcs	sp, r2, r1
     3f8:	2002ec00 	andcs	lr, r2, r0, lsl #24
     3fc:	085b0100 	ldmeqda	fp, {r8}^
     400:	00000242 	andeq	r0, r0, r2, asr #4
     404:	00cf7201 	sbceq	r7, pc, r1, lsl #4
     408:	51010000 	tstpl	r1, r0
     40c:	01bd0109 	moveqs	r0, r9, lsl #2
     410:	2b010000 	blcs	40418 <.debug_info+0x40418>
     414:	0000007a 	andeq	r0, r0, sl, ror r0
     418:	00000a01 	andeq	r0, r0, r1, lsl #20
     41c:	0001bf03 	andeq	fp, r1, r3, lsl #30
     420:	020c0100 	andeq	r0, ip, #0	; 0x0
     424:	85010000 	strhi	r0, [r1]
     428:	2002ec01 	andcs	lr, r2, r1, lsl #24
     42c:	20034800 	andcs	r4, r3, r0, lsl #16
     430:	085b0100 	ldmeqda	fp, {r8}^
     434:	00000242 	andeq	r0, r0, r2, asr #4
     438:	00cf8601 	sbceq	r8, pc, r1, lsl #12
     43c:	51010000 	tstpl	r1, r0
     440:	00022c08 	andeq	r2, r2, r8, lsl #24
     444:	cf870100 	swigt	0x00870100
     448:	01000000 	tsteq	r0, r0
     44c:	01c50854 	biceq	r0, r5, r4, asr r8
     450:	87010000 	strhi	r0, [r1, -r0]
     454:	000000cf 	andeq	r0, r0, pc, asr #1
     458:	01095301 	tsteq	r9, r1, lsl #6
     45c:	000001bd 	streqh	r0, [r0], -sp
     460:	007a2b01 	rsbeqs	r2, sl, r1, lsl #22
     464:	0a010000 	beq	4046c <.debug_info+0x4046c>
     468:	010b0000 	tsteq	fp, r0
     46c:	00000236 	andeq	r0, r0, r6, lsr r2
     470:	4801a701 	stmmida	r1, {r0, r8, r9, sl, sp, pc}
     474:	4c002003 	stcmi	0, cr2, [r0], {3}
     478:	01002003 	tsteq	r0, r3
     47c:	0c010c5d 	stceq	12, cr0, [r1], {93}
     480:	01000002 	tsteq	r0, r2
     484:	000101a9 	andeq	r0, r1, r9, lsr #3
     488:	00070400 	andeq	r0, r7, r0, lsl #8
     48c:	7a000200 	bvc	c94 <.debug_info+0xc94>
     490:	04000001 	streq	r0, [r0], #-1
     494:	0000d701 	andeq	sp, r0, r1, lsl #14
     498:	2007ec00 	andcs	lr, r7, r0, lsl #24
     49c:	20034c00 	andcs	r4, r3, r0, lsl #24
     4a0:	00006900 	andeq	r6, r0, r0, lsl #18
     4a4:	024a0100 	subeq	r0, sl, #0	; 0x0
     4a8:	012d0000 	teqeq	sp, r0
     4ac:	1f020000 	swine	0x00020000
     4b0:	01000001 	tsteq	r0, r1
     4b4:	01750208 	cmneq	r5, r8, lsl #4
     4b8:	07020000 	streq	r0, [r2, -r0]
     4bc:	00010d02 	andeq	r0, r1, r2, lsl #26
     4c0:	03070400 	tsteq	r7, #0	; 0x0
     4c4:	00323375 	eoreqs	r3, r2, r5, ror r3
     4c8:	00331303 	eoreqs	r1, r3, r3, lsl #6
     4cc:	4a040000 	bmi	1004d4 <.debug_info+0x1004d4>
     4d0:	02000000 	andeq	r0, r0, #0	; 0x0
     4d4:	00000112 	andeq	r0, r0, r2, lsl r1
     4d8:	0d020704 	stceq	7, cr0, [r2, #-16]
     4dc:	04000001 	streq	r0, [r0], #-1
     4e0:	00930507 	addeqs	r0, r3, r7, lsl #10
     4e4:	01980000 	orreqs	r0, r8, r0
     4e8:	020c0000 	andeq	r0, ip, #0	; 0x0
     4ec:	410601c1 	smlabtmi	r6, r1, r1, r0
     4f0:	02000000 	andeq	r0, r0, #0	; 0x0
     4f4:	004501c2 	subeq	r0, r5, r2, asr #3
     4f8:	23020000 	tstcs	r2, #0	; 0x0
     4fc:	014b0600 	cmpeq	fp, r0, lsl #12
     500:	c3020000 	tstgt	r2, #0	; 0x0
     504:	00004501 	andeq	r4, r0, r1, lsl #10
     508:	04230200 	streqt	r0, [r3], #-512
     50c:	00008606 	andeq	r8, r0, r6, lsl #12
     510:	01c40200 	biceq	r0, r4, r0, lsl #4
     514:	00000045 	andeq	r0, r0, r5, asr #32
     518:	00082302 	andeq	r2, r8, r2, lsl #6
     51c:	00004a07 	andeq	r4, r0, r7, lsl #20
     520:	01c50200 	biceq	r0, r5, r0, lsl #4
     524:	0000009f 	muleq	r0, pc, r0
     528:	00580408 	subeqs	r0, r8, r8, lsl #8
     52c:	1c050000 	stcne	0, cr0, [r5], {0}
     530:	30000001 	andcc	r0, r0, r1
     534:	6c000003 	stcvs	0, cr0, [r0], {3}
     538:	06023002 	streq	r3, [r2], -r2
     53c:	000002da 	ldreqd	r0, [r0], -sl
     540:	45023102 	strmi	r3, [r2, #-258]
     544:	02000000 	andeq	r0, r0, #0	; 0x0
     548:	29060023 	stmcsdb	r6, {r0, r1, r5}
     54c:	02000003 	andeq	r0, r0, #3	; 0x3
     550:	00450232 	subeq	r0, r5, r2, lsr r2
     554:	23020000 	tstcs	r2, #0	; 0x0
     558:	029d0604 	addeqs	r0, sp, #4194304	; 0x400000
     55c:	33020000 	tstcc	r2, #0	; 0x0
     560:	00004502 	andeq	r4, r0, r2, lsl #10
     564:	08230200 	stmeqda	r3!, {r9}
     568:	0000a206 	andeq	sl, r0, r6, lsl #4
     56c:	02340200 	eoreqs	r0, r4, #0	; 0x0
     570:	0000012c 	andeq	r0, r0, ip, lsr #2
     574:	060c2302 	streq	r2, [ip], -r2, lsl #6
     578:	000002b1 	streqh	r0, [r0], -r1
     57c:	45023502 	strmi	r3, [r2, #-1282]
     580:	02000000 	andeq	r0, r0, #0	; 0x0
     584:	04066023 	streq	r6, [r6], #-35
     588:	02000003 	andeq	r0, r0, #3	; 0x3
     58c:	00450236 	subeq	r0, r5, r6, lsr r2
     590:	23020000 	tstcs	r2, #0	; 0x0
     594:	03220664 	teqeq	r2, #104857600	; 0x6400000
     598:	37020000 	strcc	r0, [r2, -r0]
     59c:	00004502 	andeq	r4, r0, r2, lsl #10
     5a0:	68230200 	stmvsda	r3!, {r9}
     5a4:	012c0900 	teqeq	ip, r0, lsl #18
     5a8:	00450000 	subeq	r0, r5, r0
     5ac:	510a0000 	tstpl	sl, r0
     5b0:	14000000 	strne	r0, [r0]
     5b4:	011c0400 	tsteq	ip, r0, lsl #8
     5b8:	b8070000 	stmltda	r7, {}
     5bc:	02000002 	andeq	r0, r0, #2	; 0x2
     5c0:	013d0238 	teqeq	sp, r8, lsr r2
     5c4:	04080000 	streq	r0, [r8]
     5c8:	000000a5 	andeq	r0, r0, r5, lsr #1
     5cc:	0001750b 	andeq	r7, r1, fp, lsl #10
     5d0:	028a0100 	addeq	r0, sl, #0	; 0x0
     5d4:	0e010000 	cdpeq	0, 0, cr0, cr1, cr0, {0}
     5d8:	20034c01 	andcs	r4, r3, r1, lsl #24
     5dc:	20037000 	andcs	r7, r3, r0
     5e0:	0c5d0100 	ldfeqe	f0, [sp], {0}
     5e4:	00434d70 	subeq	r4, r3, r0, ror sp
     5e8:	01310f01 	teqeq	r1, r1, lsl #30
     5ec:	53010000 	tstpl	r1, #0	; 0x0
     5f0:	00016f0d 	andeq	r6, r1, sp, lsl #30
     5f4:	93100100 	tstls	r0, #0	; 0x0
     5f8:	01000000 	tsteq	r0, r0
     5fc:	9c0e0051 	stcls	0, cr0, [lr], {81}
     600:	01000001 	tsteq	r0, r1
     604:	00000277 	andeq	r0, r0, r7, ror r2
     608:	9c011b01 	stcls	11, cr1, [r1], {1}
     60c:	01000001 	tsteq	r0, r1
     610:	0002670f 	andeq	r6, r2, pc, lsl #14
     614:	9c1a0100 	ldflss	f0, [sl], {0}
     618:	10000001 	andne	r0, r0, r1
     61c:	1c010070 	stcne	0, cr0, [r1], {112}
     620:	000001a3 	andeq	r0, r0, r3, lsr #3
     624:	6e691100 	powvse	f1, f1, f0
     628:	05040074 	streq	r0, [r4, #-116]
     62c:	003a0408 	eoreqs	r0, sl, r8, lsl #8
     630:	cb120000 	blgt	480638 <_ram_end+0x27bb2c>
     634:	75000001 	strvc	r0, [r0, #-1]
     638:	70000001 	andvc	r0, r0, r1
     63c:	dc002003 	stcle	0, cr2, [r0], {3}
     640:	01002003 	tsteq	r0, r3
     644:	0187135d 	orreq	r1, r7, sp, asr r3
     648:	50010000 	andpl	r0, r1, r0
     64c:	00019214 	andeq	r9, r1, r4, lsl r2
     650:	00530100 	subeqs	r0, r3, r0, lsl #2
     654:	0001e315 	andeq	lr, r1, r5, lsl r3
     658:	02820100 	addeq	r0, r2, #0	; 0x0
     65c:	29010000 	stmcsdb	r1, {}
     660:	69100101 	ldmvsdb	r0, {r0, r8}
     664:	e32a0100 	teq	sl, #0	; 0x0
     668:	00000001 	andeq	r0, r0, r1
     66c:	00019c04 	andeq	r9, r1, r4, lsl #24
     670:	02041200 	andeq	r1, r4, #0	; 0x0
     674:	01cb0000 	biceq	r0, fp, r0
     678:	03dc0000 	biceqs	r0, ip, #0	; 0x0
     67c:	04300020 	ldreqt	r0, [r0], #-32
     680:	5d010020 	stcpl	0, cr0, [r1, #-128]
     684:	0001d914 	andeq	sp, r1, r4, lsl r9
     688:	00910200 	addeqs	r0, r1, r0, lsl #4
     68c:	022a1500 	eoreq	r1, sl, #0	; 0x0
     690:	fc010000 	stc2	0, cr0, [r1], {0}
     694:	01000002 	tsteq	r0, r2
     698:	10010130 	andne	r0, r1, r0, lsr r1
     69c:	31010069 	tstcc	r1, r9, rrx
     6a0:	0000019c 	muleq	r0, ip, r1
     6a4:	01d91716 	biceqs	r1, r9, r6, lsl r7
     6a8:	17160000 	ldrne	r0, [r6, -r0]
     6ac:	000001d9 	ldreqd	r0, [r0], -r9
     6b0:	12000000 	andne	r0, r0, #0	; 0x0
     6b4:	0000026b 	andeq	r0, r0, fp, ror #4
     6b8:	00000204 	andeq	r0, r0, r4, lsl #4
     6bc:	00200430 	eoreq	r0, r0, r0, lsr r4
     6c0:	00200494 	mlaeq	r0, r4, r4, r0
     6c4:	12175d01 	andnes	r5, r7, #64	; 0x40
     6c8:	18000002 	stmneda	r0, {r1}
     6cc:	000001cb 	andeq	r0, r0, fp, asr #3
     6d0:	00200448 	eoreq	r0, r0, r8, asr #8
     6d4:	0020048c 	eoreq	r0, r0, ip, lsl #9
     6d8:	0001d914 	andeq	sp, r1, r4, lsl r9
     6dc:	00910200 	addeqs	r0, r1, r0, lsl #4
     6e0:	20044819 	andcs	r4, r4, r9, lsl r8
     6e4:	20048c00 	andcs	r8, r4, r0, lsl #24
     6e8:	01d91400 	biceqs	r1, r9, r0, lsl #8
     6ec:	91020000 	tstls	r2, r0
     6f0:	00000000 	andeq	r0, r0, r0
     6f4:	0002b80e 	andeq	fp, r2, lr, lsl #16
     6f8:	031a0100 	tsteq	sl, #0	; 0x0
     6fc:	37010000 	strcc	r0, [r1, -r0]
     700:	00019c01 	andeq	r9, r1, r1, lsl #24
     704:	69100100 	ldmvsdb	r0, {r8}
     708:	9c380100 	ldflss	f0, [r8]
     70c:	16000001 	strne	r0, [r0], -r1
     710:	00029a1a 	andeq	r9, r2, sl, lsl sl
     714:	030b0100 	tsteq	fp, #0	; 0x0
     718:	3a010000 	bcc	40720 <.debug_info+0x40720>
     71c:	0000019c 	muleq	r0, ip, r1
     720:	16001b01 	strne	r1, [r0], -r1, lsl #22
     724:	00021217 	andeq	r1, r2, r7, lsl r2
     728:	12171600 	andnes	r1, r7, #0	; 0x0
     72c:	16000002 	strne	r0, [r0], -r2
     730:	0001d917 	andeq	sp, r1, r7, lsl r9
     734:	d9171600 	ldmledb	r7, {r9, sl, ip}
     738:	00000001 	andeq	r0, r0, r1
     73c:	00000000 	andeq	r0, r0, r0
     740:	03331200 	teqeq	r3, #0	; 0x0
     744:	026b0000 	rsbeq	r0, fp, #0	; 0x0
     748:	04940000 	ldreq	r0, [r4]
     74c:	052c0020 	streq	r0, [ip, #-32]!
     750:	5b010020 	blpl	407d8 <.debug_info+0x407d8>
     754:	00027d14 	andeq	r7, r2, r4, lsl sp
     758:	1c540100 	ldfnee	f0, [r4], {0}
     75c:	00000000 	andeq	r0, r0, r0
     760:	0002e31d 	andeq	lr, r2, sp, lsl r3
     764:	00028700 	andeq	r8, r2, r0, lsl #14
     768:	001b0100 	andeqs	r0, fp, r0, lsl #2
     76c:	00020418 	andeq	r0, r2, r8, lsl r4
     770:	2004d000 	andcs	sp, r4, r0
     774:	20051400 	andcs	r1, r5, r0, lsl #8
     778:	02121400 	andeqs	r1, r2, #0	; 0x0
     77c:	50010000 	andpl	r0, r1, r0
     780:	2004d019 	andcs	sp, r4, r9, lsl r0
     784:	20051400 	andcs	r1, r5, r0, lsl #8
     788:	02121400 	andeqs	r1, r2, #0	; 0x0
     78c:	50010000 	andpl	r0, r1, r0
     790:	0001cb18 	andeq	ip, r1, r8, lsl fp
     794:	2004d000 	andcs	sp, r4, r0
     798:	20051400 	andcs	r1, r5, r0, lsl #8
     79c:	01d91400 	biceqs	r1, r9, r0, lsl #8
     7a0:	91020000 	tstls	r2, r0
     7a4:	04d0196c 	ldreqb	r1, [r0], #2412
     7a8:	05140020 	ldreq	r0, [r4, #-32]
     7ac:	d9140020 	ldmledb	r4, {r5}
     7b0:	02000001 	andeq	r0, r0, #1	; 0x1
     7b4:	00006c91 	muleq	r0, r1, ip
     7b8:	00000000 	andeq	r0, r0, r0
     7bc:	00038e0e 	andeq	r8, r3, lr, lsl #28
     7c0:	02e10100 	rsceq	r0, r1, #0	; 0x0
     7c4:	43010000 	tstmi	r1, #0	; 0x0
     7c8:	00019c01 	andeq	r9, r1, r1, lsl #24
     7cc:	69100100 	ldmvsdb	r0, {r8}
     7d0:	9c440100 	stflse	f0, [r4], {0}
     7d4:	16000001 	strne	r0, [r0], -r1
     7d8:	0003621a 	andeq	r6, r3, sl, lsl r2
     7dc:	01bd0100 	moveqs	r0, r0, lsl #2
     7e0:	48010000 	stmmida	r1, {}
     7e4:	0000019c 	muleq	r0, ip, r1
     7e8:	16001b01 	strne	r1, [r0], -r1, lsl #22
     7ec:	00027d17 	andeq	r7, r2, r7, lsl sp
     7f0:	7d171600 	ldcvc	6, cr1, [r7]
     7f4:	16000002 	strne	r0, [r0], -r2
     7f8:	00021217 	andeq	r1, r2, r7, lsl r2
     7fc:	12171600 	andnes	r1, r7, #0	; 0x0
     800:	16000002 	strne	r0, [r0], -r2
     804:	0001d917 	andeq	sp, r1, r7, lsl r9
     808:	d9171600 	ldmledb	r7, {r9, sl, ip}
     80c:	00000001 	andeq	r0, r0, r1
     810:	00000000 	andeq	r0, r0, r0
     814:	12000000 	andne	r0, r0, #0	; 0x0
     818:	0000042f 	andeq	r0, r0, pc, lsr #8
     81c:	00000333 	andeq	r0, r0, r3, lsr r3
     820:	0020052c 	eoreq	r0, r0, ip, lsr #10
     824:	002005e0 	eoreq	r0, r0, r0, ror #11
     828:	45145b01 	ldrmi	r5, [r4, #-2817]
     82c:	01000003 	tsteq	r0, r3
     830:	00181c54 	andeqs	r1, r8, r4, asr ip
     834:	b91d0000 	ldmltdb	sp, {}
     838:	4f000003 	swimi	0x00000003
     83c:	01000003 	tsteq	r0, r3
     840:	6b18001b 	blvs	6008b4 <_ram_end+0x3fbda8>
     844:	40000002 	andmi	r0, r0, r2
     848:	b8002005 	stmltda	r0, {r0, r2, sp}
     84c:	14002005 	strne	r2, [r0], #-5
     850:	0000027d 	andeq	r0, r0, sp, ror r2
     854:	40195501 	andmis	r5, r9, r1, lsl #10
     858:	b8002005 	stmltda	r0, {r0, r2, sp}
     85c:	14002005 	strne	r2, [r0], #-5
     860:	0000027d 	andeq	r0, r0, sp, ror r2
     864:	04185501 	ldreq	r5, [r8], #-1281
     868:	68000002 	stmvsda	r0, {r1}
     86c:	ac002005 	stcge	0, cr2, [r0], {5}
     870:	14002005 	strne	r2, [r0], #-5
     874:	00000212 	andeq	r0, r0, r2, lsl r2
     878:	68195101 	ldmvsda	r9, {r0, r8, ip, lr}
     87c:	ac002005 	stcge	0, cr2, [r0], {5}
     880:	14002005 	strne	r2, [r0], #-5
     884:	00000212 	andeq	r0, r0, r2, lsl r2
     888:	cb185101 	blgt	614c94 <_ram_end+0x410188>
     88c:	68000001 	stmvsda	r0, {r0}
     890:	ac002005 	stcge	0, cr2, [r0], {5}
     894:	14002005 	strne	r2, [r0], #-5
     898:	000001d9 	ldreqd	r0, [r0], -r9
     89c:	19689102 	stmnedb	r8!, {r1, r8, ip, pc}^
     8a0:	00200568 	eoreq	r0, r0, r8, ror #10
     8a4:	002005ac 	eoreq	r0, r0, ip, lsr #11
     8a8:	0001d914 	andeq	sp, r1, r4, lsl r9
     8ac:	68910200 	ldmvsia	r1, {r9}
	...
     8b8:	00047815 	andeq	r7, r4, r5, lsl r8
     8bc:	02510100 	subeqs	r0, r1, #0	; 0x0
     8c0:	4f010000 	swimi	0x00010000
     8c4:	670f0101 	strvs	r0, [pc, -r1, lsl #2]
     8c8:	01000002 	tsteq	r0, r2
     8cc:	00019c4e 	andeq	r9, r1, lr, asr #24
     8d0:	00691000 	rsbeq	r1, r9, r0
     8d4:	019c5001 	orreqs	r5, ip, r1
     8d8:	70100000 	andvcs	r0, r0, r0
     8dc:	a3510100 	cmpge	r1, #0	; 0x0
     8e0:	10000001 	andne	r0, r0, r1
     8e4:	51010066 	tstpl	r1, r6, rrx
     8e8:	000001a3 	andeq	r0, r0, r3, lsr #3
     8ec:	01007410 	tsteq	r0, r0, lsl r4
     8f0:	0001a351 	andeq	sl, r1, r1, asr r3
     8f4:	02d51e00 	sbceqs	r1, r5, #0	; 0x0
     8f8:	52010000 	andpl	r0, r1, #0	; 0x0
     8fc:	0000047f 	andeq	r0, r0, pc, ror r4
     900:	047f1f00 	ldreqbt	r1, [pc], #3840	; 908 <.debug_info+0x908>
     904:	001b0000 	andeqs	r0, fp, r0
     908:	04780408 	ldreqbt	r0, [r8], #-1032
     90c:	bf120000 	swilt	0x00120000
     910:	2f000004 	swics	0x00000004
     914:	e0000004 	and	r0, r0, r4
     918:	4c002005 	stcmi	0, cr2, [r0], {5}
     91c:	01002006 	tsteq	r0, r6
     920:	043d135b 	ldreqt	r1, [sp], #-859
     924:	50010000 	andpl	r0, r1, r0
     928:	00044817 	andeq	r4, r4, r7, lsl r8
     92c:	04511400 	ldreqb	r1, [r1], #-1024
     930:	50010000 	andpl	r0, r1, r0
     934:	00045a14 	andeq	r5, r4, r4, lsl sl
     938:	145c0100 	ldrneb	r0, [ip], #-256
     93c:	00000463 	andeq	r0, r0, r3, ror #8
     940:	6c175101 	ldfvss	f5, [r7], {1}
     944:	00000004 	andeq	r0, r0, r4
     948:	0006f520 	andeq	pc, r6, r0, lsr #10
     94c:	02e60100 	rsceq	r0, r6, #0	; 0x0
     950:	67010000 	strvs	r0, [r1, -r0]
     954:	0000019c 	muleq	r0, ip, r1
     958:	0020064c 	eoreq	r0, r0, ip, asr #12
     95c:	002007ec 	eoreq	r0, r0, ip, ror #15
     960:	ec1a5b01 	ldc	11, cr5, [sl], {1}
     964:	01000004 	tsteq	r0, r4
     968:	00000236 	andeq	r0, r0, r6, lsr r2
     96c:	019c6801 	orreqs	r6, ip, r1, lsl #16
     970:	1b010000 	blne	40978 <.debug_info+0x40978>
     974:	04ff1a00 	ldreqbt	r1, [pc], #2560	; 97c <.debug_info+0x97c>
     978:	a5010000 	strge	r0, [r1]
     97c:	01000002 	tsteq	r0, r2
     980:	00019c69 	andeq	r9, r1, r9, ror #24
     984:	001b0100 	andeqs	r0, fp, r0, lsl #2
     988:	0005121a 	andeq	r1, r5, sl, lsl r2
     98c:	02f00100 	rsceqs	r0, r0, #0	; 0x0
     990:	6a010000 	bvs	40998 <.debug_info+0x40998>
     994:	0000019c 	muleq	r0, ip, r1
     998:	1a001b01 	bne	75a4 <.debug_info+0x75a4>
     99c:	00000525 	andeq	r0, r0, r5, lsr #10
     9a0:	0002c201 	andeq	ip, r2, r1, lsl #4
     9a4:	9c6b0100 	stflse	f0, [fp]
     9a8:	01000001 	tsteq	r0, r1
     9ac:	381a001b 	ldmccda	sl, {r0, r1, r3, r4}
     9b0:	01000005 	tsteq	r0, r5
     9b4:	00000343 	andeq	r0, r0, r3, asr #6
     9b8:	019c6c01 	orreqs	r6, ip, r1, lsl #24
     9bc:	1b010000 	blne	409c4 <.debug_info+0x409c4>
     9c0:	054b1a00 	streqb	r1, [fp, #-2560]
     9c4:	91010000 	tstls	r1, r0
     9c8:	01000002 	tsteq	r0, r2
     9cc:	00019c6d 	andeq	r9, r1, sp, ror #24
     9d0:	001b0100 	andeqs	r0, fp, r0, lsl #2
     9d4:	00056321 	andeq	r6, r5, r1, lsr #6
     9d8:	02eb0100 	rsceq	r0, fp, #0	; 0x0
     9dc:	00040000 	andeq	r0, r4, r0
     9e0:	00019c01 	andeq	r9, r1, r1, lsl #24
     9e4:	f5220100 	strnv	r0, [r2, #-256]!
     9e8:	00000006 	andeq	r0, r0, r6
     9ec:	0005761a 	andeq	r7, r5, sl, lsl r6
     9f0:	02cc0100 	sbceq	r0, ip, #0	; 0x0
     9f4:	77010000 	strvc	r0, [r1, -r0]
     9f8:	0000019c 	muleq	r0, ip, r1
     9fc:	1a001b01 	bne	7608 <.debug_info+0x7608>
     a00:	00000589 	andeq	r0, r0, r9, lsl #11
     a04:	0000cf01 	andeq	ip, r0, r1, lsl #30
     a08:	9c7a0100 	ldflse	f0, [sl]
     a0c:	01000001 	tsteq	r0, r1
     a10:	9c1a001b 	ldcls	0, cr0, [sl], {27}
     a14:	01000005 	tsteq	r0, r5
     a18:	000001bd 	streqh	r0, [r0], -sp
     a1c:	019c4801 	orreqs	r4, ip, r1, lsl #16
     a20:	1b010000 	blne	40a28 <.debug_info+0x40a28>
     a24:	05c22300 	streqb	r2, [r2, #768]
     a28:	01750000 	cmneq	r5, r0
     a2c:	06840000 	streq	r0, [r4], r0
     a30:	06ac0020 	streqt	r0, [ip], r0, lsr #32
     a34:	bc130020 	ldclt	0, cr0, [r3], {32}
     a38:	01000001 	tsteq	r0, r1
     a3c:	00381c53 	eoreqs	r1, r8, r3, asr ip
     a40:	92140000 	andlss	r0, r4, #0	; 0x0
     a44:	01000001 	tsteq	r0, r1
     a48:	23000054 	tstcs	r0, #84	; 0x54
     a4c:	00000660 	andeq	r0, r0, r0, ror #12
     a50:	00000333 	andeq	r0, r0, r3, lsr r3
     a54:	002006b4 	streqh	r0, [r0], -r4
     a58:	00200748 	eoreq	r0, r0, r8, asr #14
     a5c:	00034514 	andeq	r4, r3, r4, lsl r5
     a60:	19540100 	ldmnedb	r4, {r8}^
     a64:	002006b4 	streqh	r0, [r0], -r4
     a68:	00200748 	eoreq	r0, r0, r8, asr #14
     a6c:	00034514 	andeq	r4, r3, r4, lsl r5
     a70:	18540100 	ldmneda	r4, {r8}^
     a74:	0000026b 	andeq	r0, r0, fp, ror #4
     a78:	002006b8 	streqh	r0, [r0], -r8
     a7c:	00200730 	eoreq	r0, r0, r0, lsr r7
     a80:	00027d14 	andeq	r7, r2, r4, lsl sp
     a84:	19560100 	ldmnedb	r6, {r8}^
     a88:	002006b8 	streqh	r0, [r0], -r8
     a8c:	00200730 	eoreq	r0, r0, r0, lsr r7
     a90:	00027d14 	andeq	r7, r2, r4, lsl sp
     a94:	18560100 	ldmneda	r6, {r8}^
     a98:	00000204 	andeq	r0, r0, r4, lsl #4
     a9c:	002006e0 	eoreq	r0, r0, r0, ror #13
     aa0:	00200724 	eoreq	r0, r0, r4, lsr #14
     aa4:	00021214 	andeq	r1, r2, r4, lsl r2
     aa8:	19510100 	ldmnedb	r1, {r8}^
     aac:	002006e0 	eoreq	r0, r0, r0, ror #13
     ab0:	00200724 	eoreq	r0, r0, r4, lsr #14
     ab4:	00021214 	andeq	r1, r2, r4, lsl r2
     ab8:	18510100 	ldmneda	r1, {r8}^
     abc:	000001cb 	andeq	r0, r0, fp, asr #3
     ac0:	002006e0 	eoreq	r0, r0, r0, ror #13
     ac4:	00200724 	eoreq	r0, r0, r4, lsr #14
     ac8:	0001d914 	andeq	sp, r1, r4, lsl r9
     acc:	64910200 	ldrvs	r0, [r1], #512
     ad0:	2006e019 	andcs	lr, r6, r9, lsl r0
     ad4:	20072400 	andcs	r2, r7, r0, lsl #8
     ad8:	01d91400 	biceqs	r1, r9, r0, lsl #8
     adc:	91020000 	tstls	r2, r0
     ae0:	00000064 	andeq	r0, r0, r4, rrx
     ae4:	00000000 	andeq	r0, r0, r0
     ae8:	06b52400 	ldreqt	r2, [r5], r0, lsl #8
     aec:	00500000 	subeqs	r0, r0, r0
     af0:	7c1a0000 	ldcvc	0, cr0, [sl], {0}
     af4:	01000006 	tsteq	r0, r6
     af8:	000001bd 	streqh	r0, [r0], -sp
     afc:	019c4801 	orreqs	r4, ip, r1, lsl #16
     b00:	1b010000 	blne	40b08 <.debug_info+0x40b08>
     b04:	042f1800 	streqt	r1, [pc], #2048	; b0c <.debug_info+0xb0c>
     b08:	07500000 	ldreqb	r0, [r0, -r0]
     b0c:	07940020 	ldreq	r0, [r4, r0, lsr #32]
     b10:	98250020 	stmlsda	r5!, {r5}
     b14:	1c000004 	stcne	0, cr0, [r0], {4}
     b18:	00000068 	andeq	r0, r0, r8, rrx
     b1c:	00044817 	andeq	r4, r4, r7, lsl r8
     b20:	04511400 	ldreqb	r1, [r1], #-1024
     b24:	50010000 	andpl	r0, r1, r0
     b28:	00045a14 	andeq	r5, r4, r4, lsl sl
     b2c:	14550100 	ldrneb	r0, [r5], #-256
     b30:	00000463 	andeq	r0, r0, r3, ror #8
     b34:	6c175101 	ldfvss	f5, [r7], {1}
     b38:	00000004 	andeq	r0, r0, r4
     b3c:	9c190000 	ldcls	0, cr0, [r9], {0}
     b40:	ac002007 	stcge	0, cr2, [r0], {7}
     b44:	1a002007 	bne	8b68 <.debug_info+0x8b68>
     b48:	000006d1 	ldreqd	r0, [r0], -r1
     b4c:	00033a01 	andeq	r3, r3, r1, lsl #20
     b50:	9c840100 	stflss	f0, [r4], {0}
     b54:	01000001 	tsteq	r0, r1
     b58:	e41a001b 	ldr	r0, [sl], #-27
     b5c:	01000006 	tsteq	r0, r6
     b60:	0000025e 	andeq	r0, r0, lr, asr r2
     b64:	019c8501 	orreqs	r8, ip, r1, lsl #10
     b68:	1b010000 	blne	40b70 <.debug_info+0x40b70>
     b6c:	6e012600 	cfmadd32vs	mvax0, mvfx2, mvfx1, mvfx0
     b70:	01000002 	tsteq	r0, r2
     b74:	00019c86 	andeq	r9, r1, r6, lsl #25
     b78:	001b0100 	andeqs	r0, fp, r0, lsl #2
     b7c:	04080000 	streq	r0, [r8]
     b80:	000006fb 	streqd	r0, [r0], -fp
     b84:	00070027 	andeq	r0, r7, r7, lsr #32
     b88:	01280200 	teqeq	r8, r0, lsl #4
     b8c:	07010000 	streq	r0, [r1, -r0]
     b90:	000cea00 	andeq	lr, ip, r0, lsl #20
     b94:	5c000200 	sfmpl	f0, 4, [r0], {0}
     b98:	04000003 	streq	r0, [r0], #-3
     b9c:	0001cb01 	andeq	ip, r1, r1, lsl #22
     ba0:	20202400 	eorcs	r2, r0, r0, lsl #8
     ba4:	2007ec00 	andcs	lr, r7, r0, lsl #24
     ba8:	00006900 	andeq	r6, r0, r0, lsl #18
     bac:	05ff0100 	ldreqb	r0, [pc, #256]!	; cb4 <.debug_info+0xcb4>
     bb0:	012d0000 	teqeq	sp, r0
     bb4:	1f020000 	swine	0x00020000
     bb8:	01000001 	tsteq	r0, r1
     bbc:	01750208 	cmneq	r5, r8, lsl #4
     bc0:	07020000 	streq	r0, [r2, -r0]
     bc4:	00010d02 	andeq	r0, r1, r2, lsl #26
     bc8:	03070400 	tsteq	r7, #0	; 0x0
     bcc:	0000003f 	andeq	r0, r0, pc, lsr r0
     bd0:	00011202 	andeq	r1, r1, r2, lsl #4
     bd4:	02070400 	andeq	r0, r7, #0	; 0x0
     bd8:	0000010d 	andeq	r0, r0, sp, lsl #2
     bdc:	5d040704 	stcpl	7, cr0, [r4, #-16]
     be0:	3a000000 	bcc	be8 <.debug_info+0xbe8>
     be4:	05000000 	streq	r0, [r0]
     be8:	00000046 	andeq	r0, r0, r6, asr #32
     bec:	6d040000 	stcvs	0, cr0, [r4]
     bf0:	3a000000 	bcc	bf8 <.debug_info+0xbf8>
     bf4:	05000000 	streq	r0, [r0]
     bf8:	00000046 	andeq	r0, r0, r6, asr #32
     bfc:	8b060008 	blhi	180c24 <.debug_info+0x180c24>
     c00:	84000002 	strhi	r0, [r0], #-2
     c04:	ac000006 	stcge	0, cr0, [r0], {6}
     c08:	07013802 	streq	r3, [r1, -r2, lsl #16]
     c0c:	00000651 	andeq	r0, r0, r1, asr r6
     c10:	3a013902 	bcc	4f020 <.debug_info+0x4f020>
     c14:	02000000 	andeq	r0, r0, #0	; 0x0
     c18:	3c070023 	stccc	0, cr0, [r7], {35}
     c1c:	02000006 	andeq	r0, r0, #6	; 0x6
     c20:	003a013a 	eoreqs	r0, sl, sl, lsr r1
     c24:	23020000 	tstcs	r2, #0	; 0x0
     c28:	06210704 	streqt	r0, [r1], -r4, lsl #14
     c2c:	3b020000 	blcc	80c34 <.debug_info+0x80c34>
     c30:	00003a01 	andeq	r3, r0, r1, lsl #20
     c34:	08230200 	stmeqda	r3!, {r9}
     c38:	0000a207 	andeq	sl, r0, r7, lsl #4
     c3c:	013c0200 	teqeq	ip, r0, lsl #4
     c40:	0000028b 	andeq	r0, r0, fp, lsl #5
     c44:	070c2302 	streq	r2, [ip, -r2, lsl #6]
     c48:	000004c1 	andeq	r0, r0, r1, asr #9
     c4c:	3a013d02 	bcc	5005c <.debug_info+0x5005c>
     c50:	02000000 	andeq	r0, r0, #0	; 0x0
     c54:	a8071023 	stmgeda	r7, {r0, r1, r5, ip}
     c58:	02000004 	andeq	r0, r0, #4	; 0x4
     c5c:	003a013e 	eoreqs	r0, sl, lr, lsr r1
     c60:	23020000 	tstcs	r2, #0	; 0x0
     c64:	04950714 	ldreq	r0, [r5], #1812
     c68:	3f020000 	swicc	0x00020000
     c6c:	00003a01 	andeq	r3, r0, r1, lsl #20
     c70:	18230200 	stmneda	r3!, {r9}
     c74:	0000ac07 	andeq	sl, r0, r7, lsl #24
     c78:	01400200 	cmpeq	r0, r0, lsl #4
     c7c:	00000290 	muleq	r0, r0, r2
     c80:	071c2302 	ldreq	r2, [ip, -r2, lsl #6]
     c84:	000004b8 	streqh	r0, [r0], -r8
     c88:	3a014102 	bcc	51098 <.debug_info+0x51098>
     c8c:	02000000 	andeq	r0, r0, #0	; 0x0
     c90:	8c072023 	stchi	0, cr2, [r7], {35}
     c94:	02000004 	andeq	r0, r0, #4	; 0x4
     c98:	003a0142 	eoreqs	r0, sl, r2, asr #2
     c9c:	23020000 	tstcs	r2, #0	; 0x0
     ca0:	046f0724 	streqbt	r0, [pc], #1828	; ca8 <.debug_info+0xca8>
     ca4:	43020000 	tstmi	r2, #0	; 0x0
     ca8:	00003a01 	andeq	r3, r0, r1, lsl #20
     cac:	28230200 	stmcsda	r3!, {r9}
     cb0:	0000b607 	andeq	fp, r0, r7, lsl #12
     cb4:	01440200 	cmpeq	r4, r0, lsl #4
     cb8:	00000295 	muleq	r0, r5, r2
     cbc:	072c2302 	streq	r2, [ip, -r2, lsl #6]!
     cc0:	000005ea 	andeq	r0, r0, sl, ror #11
     cc4:	3a014502 	bcc	520d4 <.debug_info+0x520d4>
     cc8:	02000000 	andeq	r0, r0, #0	; 0x0
     ccc:	dc073023 	stcle	0, cr3, [r7], {35}
     cd0:	02000004 	andeq	r0, r0, #4	; 0x4
     cd4:	003a0146 	eoreqs	r0, sl, r6, asr #2
     cd8:	23020000 	tstcs	r2, #0	; 0x0
     cdc:	03960734 	orreqs	r0, r6, #13631488	; 0xd00000
     ce0:	47020000 	strmi	r0, [r2, -r0]
     ce4:	00003a01 	andeq	r3, r0, r1, lsl #20
     ce8:	38230200 	stmccda	r3!, {r9}
     cec:	00057a07 	andeq	r7, r5, r7, lsl #20
     cf0:	01480200 	cmpeq	r8, r0, lsl #4
     cf4:	0000003a 	andeq	r0, r0, sl, lsr r0
     cf8:	073c2302 	ldreq	r2, [ip, -r2, lsl #6]!
     cfc:	000003c0 	andeq	r0, r0, r0, asr #7
     d00:	3a014902 	bcc	53110 <.debug_info+0x53110>
     d04:	02000000 	andeq	r0, r0, #0	; 0x0
     d08:	8e074023 	cdphi	0, 0, cr4, cr7, cr3, {1}
     d0c:	02000003 	andeq	r0, r0, #3	; 0x3
     d10:	003a014a 	eoreqs	r0, sl, sl, asr #2
     d14:	23020000 	tstcs	r2, #0	; 0x0
     d18:	05830744 	streq	r0, [r3, #1860]
     d1c:	4b020000 	blmi	80d24 <.debug_info+0x80d24>
     d20:	00003a01 	andeq	r3, r0, r1, lsl #20
     d24:	48230200 	stmmida	r3!, {r9}
     d28:	00037807 	andeq	r7, r3, r7, lsl #16
     d2c:	014c0200 	cmpeq	ip, r0, lsl #4
     d30:	0000003a 	andeq	r0, r0, sl, lsr r0
     d34:	074c2302 	streqb	r2, [ip, -r2, lsl #6]
     d38:	0000067b 	andeq	r0, r0, fp, ror r6
     d3c:	3a014d02 	bcc	5414c <.debug_info+0x5414c>
     d40:	02000000 	andeq	r0, r0, #0	; 0x0
     d44:	6d075023 	stcvs	0, cr5, [r7, #-140]
     d48:	02000006 	andeq	r0, r0, #6	; 0x6
     d4c:	003a014e 	eoreqs	r0, sl, lr, asr #2
     d50:	23020000 	tstcs	r2, #0	; 0x0
     d54:	06590754 	undefined
     d58:	4f020000 	swimi	0x00020000
     d5c:	00003a01 	andeq	r3, r0, r1, lsl #20
     d60:	58230200 	stmplda	r3!, {r9}
     d64:	0000c007 	andeq	ip, r0, r7
     d68:	01500200 	cmpeq	r0, r0, lsl #4
     d6c:	0000029a 	muleq	r0, sl, r2
     d70:	075c2302 	ldreqb	r2, [ip, -r2, lsl #6]
     d74:	00000530 	andeq	r0, r0, r0, lsr r5
     d78:	3a015102 	bcc	55188 <.debug_info+0x55188>
     d7c:	02000000 	andeq	r0, r0, #0	; 0x0
     d80:	94076023 	strls	r6, [r7], #-35
     d84:	02000005 	andeq	r0, r0, #5	; 0x5
     d88:	003a0152 	eoreqs	r0, sl, r2, asr r1
     d8c:	23020000 	tstcs	r2, #0	; 0x0
     d90:	051d0764 	ldreq	r0, [sp, #-1892]
     d94:	53020000 	tstpl	r2, #0	; 0x0
     d98:	00003a01 	andeq	r3, r0, r1, lsl #20
     d9c:	68230200 	stmvsda	r3!, {r9}
     da0:	0000fb07 	andeq	pc, r0, r7, lsl #22
     da4:	01540200 	cmpeq	r4, r0, lsl #4
     da8:	0000029f 	muleq	r0, pc, r2
     dac:	076c2302 	streqb	r2, [ip, -r2, lsl #6]!
     db0:	00000649 	andeq	r0, r0, r9, asr #12
     db4:	3a015502 	bcc	561c4 <.debug_info+0x561c4>
     db8:	02000000 	andeq	r0, r0, #0	; 0x0
     dbc:	21077023 	tstcs	r7, r3, lsr #32
     dc0:	02000004 	andeq	r0, r0, #4	; 0x4
     dc4:	003a0156 	eoreqs	r0, sl, r6, asr r1
     dc8:	23020000 	tstcs	r2, #0	; 0x0
     dcc:	04000774 	streq	r0, [r0], #-1908
     dd0:	57020000 	strpl	r0, [r2, -r0]
     dd4:	00003a01 	andeq	r3, r0, r1, lsl #20
     dd8:	78230200 	stmvcda	r3!, {r9}
     ddc:	00051307 	andeq	r1, r5, r7, lsl #6
     de0:	01580200 	cmpeq	r8, r0, lsl #4
     de4:	000002a4 	andeq	r0, r0, r4, lsr #5
     de8:	077c2302 	ldreqb	r2, [ip, -r2, lsl #6]!
     dec:	000005a5 	andeq	r0, r0, r5, lsr #11
     df0:	3a015902 	bcc	57200 <.debug_info+0x57200>
     df4:	03000000 	tsteq	r0, #0	; 0x0
     df8:	0701a023 	streq	sl, [r1, -r3, lsr #32]
     dfc:	0000054a 	andeq	r0, r0, sl, asr #10
     e00:	3a015a02 	bcc	57610 <.debug_info+0x57610>
     e04:	03000000 	tsteq	r0, #0	; 0x0
     e08:	0701a423 	streq	sl, [r1, -r3, lsr #8]
     e0c:	00000527 	andeq	r0, r0, r7, lsr #10
     e10:	3a015b02 	bcc	57a20 <.debug_info+0x57a20>
     e14:	03000000 	tsteq	r0, #0	; 0x0
     e18:	0001a823 	andeq	sl, r1, r3, lsr #16
     e1c:	00004d03 	andeq	r4, r0, r3, lsl #26
     e20:	004d0300 	subeq	r0, sp, r0, lsl #6
     e24:	4d030000 	stcmi	0, cr0, [r3]
     e28:	03000000 	tsteq	r0, #0	; 0x0
     e2c:	0000004d 	andeq	r0, r0, sp, asr #32
     e30:	00004d03 	andeq	r4, r0, r3, lsl #26
     e34:	005d0300 	subeqs	r0, sp, r0, lsl #6
     e38:	31080000 	tstcc	r8, r0
     e3c:	02000006 	andeq	r0, r0, #6	; 0x6
     e40:	02b5015c 	adceqs	r0, r5, #23	; 0x17
     e44:	04090000 	streq	r0, [r9]
     e48:	0000006d 	andeq	r0, r0, sp, rrx
     e4c:	0003b906 	andeq	fp, r3, r6, lsl #18
     e50:	00044f00 	andeq	r4, r4, r0, lsl #30
     e54:	16027800 	strne	r7, [r2], -r0, lsl #16
     e58:	03ea0705 	mvneq	r0, #1310720	; 0x140000
     e5c:	17020000 	strne	r0, [r2, -r0]
     e60:	00003a05 	andeq	r3, r0, r5, lsl #20
     e64:	00230200 	eoreq	r0, r3, r0, lsl #4
     e68:	0004ed07 	andeq	lr, r4, r7, lsl #26
     e6c:	05180200 	ldreq	r0, [r8, #-512]
     e70:	0000003a 	andeq	r0, r0, sl, lsr r0
     e74:	07042302 	streq	r2, [r4, -r2, lsl #6]
     e78:	00000617 	andeq	r0, r0, r7, lsl r6
     e7c:	3a051902 	bcc	14728c <.debug_info+0x14728c>
     e80:	02000000 	andeq	r0, r0, #0	; 0x0
     e84:	a2070823 	andge	r0, r7, #2293760	; 0x230000
     e88:	02000000 	andeq	r0, r0, #0	; 0x0
     e8c:	03b9051a 	moveqs	r0, #109051904	; 0x6800000
     e90:	23020000 	tstcs	r2, #0	; 0x0
     e94:	035a070c 	cmpeq	sl, #3145728	; 0x300000
     e98:	1b020000 	blne	80ea0 <.debug_info+0x80ea0>
     e9c:	00003a05 	andeq	r3, r0, r5, lsl #20
     ea0:	10230200 	eorne	r0, r3, r0, lsl #4
     ea4:	0004fa07 	andeq	pc, r4, r7, lsl #20
     ea8:	051c0200 	ldreq	r0, [ip, #-512]
     eac:	0000003a 	andeq	r0, r0, sl, lsr r0
     eb0:	07142302 	ldreq	r2, [r4, -r2, lsl #6]
     eb4:	000003cf 	andeq	r0, r0, pc, asr #7
     eb8:	3a051d02 	bcc	1482c8 <.debug_info+0x1482c8>
     ebc:	02000000 	andeq	r0, r0, #0	; 0x0
     ec0:	e5071823 	str	r1, [r7, #-2083]
     ec4:	02000004 	andeq	r0, r0, #4	; 0x4
     ec8:	003a051e 	eoreqs	r0, sl, lr, lsl r5
     ecc:	23020000 	tstcs	r2, #0	; 0x0
     ed0:	0629071c 	undefined
     ed4:	1f020000 	swine	0x00020000
     ed8:	00003a05 	andeq	r3, r0, r5, lsl #20
     edc:	20230200 	eorcs	r0, r3, r0, lsl #4
     ee0:	0000ac07 	andeq	sl, r0, r7, lsl #24
     ee4:	05200200 	streq	r0, [r0, #-512]!
     ee8:	000003be 	streqh	r0, [r0], -lr
     eec:	07242302 	streq	r2, [r4, -r2, lsl #6]!
     ef0:	00000478 	andeq	r0, r0, r8, ror r4
     ef4:	3a052102 	bcc	149304 <.debug_info+0x149304>
     ef8:	02000000 	andeq	r0, r0, #0	; 0x0
     efc:	b6072823 	strlt	r2, [r7], -r3, lsr #16
     f00:	02000000 	andeq	r0, r0, #0	; 0x0
     f04:	03c30522 	biceq	r0, r3, #142606336	; 0x8800000
     f08:	23020000 	tstcs	r2, #0	; 0x0
     f0c:	039f072c 	orreqs	r0, pc, #11534336	; 0xb00000
     f10:	23020000 	tstcs	r2, #0	; 0x0
     f14:	0003d805 	andeq	sp, r3, r5, lsl #16
     f18:	30230200 	eorcc	r0, r3, r0, lsl #4
     f1c:	00044707 	andeq	r4, r4, r7, lsl #14
     f20:	05240200 	streq	r0, [r4, #-512]!
     f24:	000003dd 	ldreqd	r0, [r0], -sp
     f28:	07502302 	ldreqb	r2, [r0, -r2, lsl #6]
     f2c:	000000c0 	andeq	r0, r0, r0, asr #1
     f30:	e2052502 	and	r2, r5, #8388608	; 0x800000
     f34:	02000003 	andeq	r0, r0, #3	; 0x3
     f38:	8b077023 	blhi	1dcfcc <.debug_info+0x1dcfcc>
     f3c:	02000005 	andeq	r0, r0, #5	; 0x5
     f40:	003a0526 	eoreqs	r0, sl, r6, lsr #10
     f44:	23020000 	tstcs	r2, #0	; 0x0
     f48:	4d030074 	stcmi	0, cr0, [r3, #-464]
     f4c:	03000000 	tsteq	r0, #0	; 0x0
     f50:	0000004d 	andeq	r0, r0, sp, asr #32
     f54:	00004d03 	andeq	r4, r0, r3, lsl #26
     f58:	03d80400 	biceqs	r0, r8, #0	; 0x0
     f5c:	003a0000 	eoreqs	r0, sl, r0
     f60:	46050000 	strmi	r0, [r5], -r0
     f64:	07000000 	streq	r0, [r0, -r0]
     f68:	03c80300 	biceq	r0, r8, #0	; 0x0
     f6c:	c8030000 	stmgtda	r3, {}
     f70:	03000003 	tsteq	r0, #3	; 0x3
     f74:	0000004d 	andeq	r0, r0, sp, asr #32
     f78:	0003b508 	andeq	fp, r3, r8, lsl #10
     f7c:	05270200 	streq	r0, [r7, #-512]!
     f80:	000003f3 	streqd	r0, [r0], -r3
     f84:	02bb0409 	adceqs	r0, fp, #150994944	; 0x9000000
     f88:	3a0a0000 	bcc	280f90 <_ram_end+0x7c484>
     f8c:	08000004 	stmeqda	r0, {r2}
     f90:	9d0b2d03 	stcls	13, cr2, [fp, #-12]
     f94:	03000004 	tsteq	r0, #4	; 0x4
     f98:	00003f29 	andeq	r3, r0, r9, lsr #30
     f9c:	00230200 	eoreq	r0, r3, r0, lsl #4
     fa0:	00056e0b 	andeq	r6, r5, fp, lsl #28
     fa4:	3a2a0300 	bcc	a81bac <_ram_end+0x87d0a0>
     fa8:	02000004 	andeq	r0, r0, #4	; 0x4
     fac:	f30b0423 	tstnv	fp, #587202560	; 0x23000000
     fb0:	03000005 	tsteq	r0, #5	; 0x5
     fb4:	00043a2b 	andeq	r3, r4, fp, lsr #20
     fb8:	05230200 	streq	r0, [r3, #-512]!
     fbc:	0004650b 	andeq	r6, r4, fp, lsl #10
     fc0:	3a2c0300 	bcc	b01bc8 <_ram_end+0x8fd0bc>
     fc4:	02000004 	andeq	r0, r0, #4	; 0x4
     fc8:	02000623 	andeq	r0, r0, #36700160	; 0x2300000
     fcc:	00000128 	andeq	r0, r0, r8, lsr #2
     fd0:	620c0801 	andvs	r0, ip, #65536	; 0x10000
     fd4:	03000003 	tsteq	r0, #3	; 0x3
     fd8:	0003f92d 	andeq	pc, r3, sp, lsr #18
     fdc:	06620c00 	streqbt	r0, [r2], -r0, lsl #24
     fe0:	2f030000 	swics	0x00030000
     fe4:	00000025 	andeq	r0, r0, r5, lsr #32
     fe8:	0003d70c 	andeq	sp, r3, ip, lsl #14
     fec:	2c300300 	ldccs	3, cr0, [r0]
     ff0:	0c000000 	stceq	0, cr0, [r0], {0}
     ff4:	00000676 	andeq	r0, r0, r6, ror r6
     ff8:	003f3103 	eoreqs	r3, pc, r3, lsl #2
     ffc:	920d0000 	andls	r0, sp, #0	; 0x0
    1000:	01000004 	tsteq	r0, r4
    1004:	000002c2 	andeq	r0, r0, r2, asr #5
    1008:	ec018d01 	stc	13, cr8, [r1], {1}
    100c:	38002007 	stmccda	r0, {r0, r1, r2, sp}
    1010:	01002008 	tsteq	r0, r8
    1014:	06680e5d 	undefined
    1018:	8e010000 	cdphi	0, 0, cr0, cr1, cr0, {0}
    101c:	000002a9 	andeq	r0, r0, r9, lsr #5
    1020:	0d005e01 	stceq	14, cr5, [r0, #-4]
    1024:	000004b7 	streqh	r0, [r0], -r7
    1028:	0002cc01 	andeq	ip, r2, r1, lsl #24
    102c:	019f0100 	orreqs	r0, pc, r0, lsl #2
    1030:	00200838 	eoreq	r0, r0, r8, lsr r8
    1034:	00200890 	mlaeq	r0, r0, r8, r0
    1038:	680e5d01 	stmvsda	lr, {r0, r8, sl, fp, ip, lr}
    103c:	01000006 	tsteq	r0, r6
    1040:	0002a9a0 	andeq	sl, r2, r0, lsr #19
    1044:	005c0100 	subeqs	r0, ip, r0, lsl #2
    1048:	0380010f 	orreq	r0, r0, #-1073741821	; 0xc0000003
    104c:	ca010000 	bgt	41054 <.debug_info+0x41054>
    1050:	000004cd 	andeq	r0, r0, sp, asr #9
    1054:	00200890 	mlaeq	r0, r0, r8, r0
    1058:	002008ac 	eoreq	r0, r0, ip, lsr #17
    105c:	69105d01 	ldmvsdb	r0, {r0, r8, sl, fp, ip, lr}
    1060:	0400746e 	streq	r7, [r0], #-1134
    1064:	05141105 	ldreq	r1, [r4, #-261]
    1068:	bc010000 	stclt	0, cr0, [r1], {0}
    106c:	01000005 	tsteq	r0, r5
    1070:	0101011a 	tsteq	r1, sl, lsl r1
    1074:	0003de12 	andeq	sp, r3, r2, lsl lr
    1078:	01190100 	tsteq	r9, r0, lsl #2
    107c:	00000514 	andeq	r0, r0, r4, lsl r5
    1080:	0006f612 	andeq	pc, r6, r2, lsl r6
    1084:	01190100 	tsteq	r9, r0, lsl #2
    1088:	00000462 	andeq	r0, r0, r2, ror #8
    108c:	74706313 	ldrvcbt	r6, [r0], #-787
    1090:	011b0100 	tsteq	fp, r0, lsl #2
    1094:	00000462 	andeq	r0, r0, r2, ror #8
    1098:	72736313 	rsbvcs	r6, r3, #1275068416	; 0x4c000000
    109c:	011c0100 	tsteq	ip, r0, lsl #2
    10a0:	0000003a 	andeq	r0, r0, sl, lsr r0
    10a4:	3a040900 	bcc	1034ac <.debug_info+0x1034ac>
    10a8:	14000004 	strne	r0, [r0], #-4
    10ac:	0000054b 	andeq	r0, r0, fp, asr #10
    10b0:	000004d4 	ldreqd	r0, [r0], -r4
    10b4:	002008ac 	eoreq	r0, r0, ip, lsr #17
    10b8:	00200994 	mlaeq	r0, r4, r9, r0
    10bc:	e3155d01 	tst	r5, #64	; 0x40
    10c0:	01000004 	tsteq	r0, r4
    10c4:	04ef1550 	streqbt	r1, [pc], #1360	; 10cc <.debug_info+0x10cc>
    10c8:	51010000 	tstpl	r1, r0
    10cc:	0004fb16 	andeq	pc, r4, r6, lsl fp
    10d0:	16530100 	ldrneb	r0, [r3], -r0, lsl #2
    10d4:	00000507 	andeq	r0, r0, r7, lsl #10
    10d8:	00009102 	andeq	r9, r0, r2, lsl #2
    10dc:	05530117 	ldreqb	r0, [r3, #-279]
    10e0:	3e010000 	cdpcc	0, 0, cr0, cr1, cr0, {0}
    10e4:	4b180101 	blmi	6014f0 <_ram_end+0x3fc9e4>
    10e8:	94000005 	strls	r0, [r0], #-5
    10ec:	d8002009 	stmleda	r0, {r0, r3, sp}
    10f0:	01002009 	tsteq	r0, r9
    10f4:	a701175d 	smlsdge	r1, sp, r7, r1
    10f8:	01000003 	tsteq	r0, r3
    10fc:	18010147 	stmneda	r1, {r0, r1, r2, r6, r8}
    1100:	00000564 	andeq	r0, r0, r4, ror #10
    1104:	002009d8 	ldreqd	r0, [r0], -r8
    1108:	00200a1c 	eoreq	r0, r0, ip, lsl sl
    110c:	82195d01 	andhis	r5, r9, #64	; 0x40
    1110:	01000008 	tsteq	r0, r8
    1114:	00000413 	andeq	r0, r0, r3, lsl r4
    1118:	01015001 	tsteq	r1, r1
    111c:	00200a1c 	eoreq	r0, r0, ip, lsl sl
    1120:	00201750 	eoreq	r1, r0, r0, asr r7
    1124:	dc1a5d01 	ldcle	13, cr5, [sl], {1}
    1128:	01000005 	tsteq	r0, r5
    112c:	044c0151 	streqb	r0, [ip], #-337
    1130:	54010000 	strpl	r0, [r1]
    1134:	0004291a 	andeq	r2, r4, sl, lsl r9
    1138:	01510100 	cmpeq	r1, r0, lsl #2
    113c:	0000044c 	andeq	r0, r0, ip, asr #8
    1140:	c81a5501 	ldmgtda	sl, {r0, r8, sl, ip, lr}
    1144:	01000003 	tsteq	r0, r3
    1148:	04570152 	ldreqb	r0, [r7], #-338
    114c:	51010000 	tstpl	r1, r0
    1150:	00059e1a 	andeq	r9, r5, sl, lsl lr
    1154:	01520100 	cmpeq	r2, r0, lsl #2
    1158:	00000457 	andeq	r0, r0, r7, asr r4
    115c:	c91a5201 	ldmgtdb	sl, {r0, r9, ip, lr}
    1160:	01000005 	tsteq	r0, r5
    1164:	04570152 	ldreqb	r0, [r7], #-338
    1168:	53010000 	tstpl	r1, #0	; 0x0
    116c:	0004b01a 	andeq	fp, r4, sl, lsl r0
    1170:	01520100 	cmpeq	r2, r0, lsl #2
    1174:	00000457 	andeq	r0, r0, r7, asr r4
    1178:	1b069102 	blne	1a5588 <.debug_info+0x1a5588>
    117c:	000005fe 	streqd	r0, [r0], -lr
    1180:	0001bd01 	andeq	fp, r1, r1, lsl #26
    1184:	01680100 	cmneq	r8, r0, lsl #2
    1188:	000004cd 	andeq	r0, r0, sp, asr #9
    118c:	1d001c01 	stcne	12, cr1, [r0, #-4]
    1190:	00000637 	andeq	r0, r0, r7, lsr r6
    1194:	000004d4 	ldreqd	r0, [r0], -r4
    1198:	00200afc 	streqd	r0, [r0], -ip
    119c:	00200bc0 	eoreq	r0, r0, r0, asr #23
    11a0:	00052d15 	andeq	r2, r5, r5, lsl sp
    11a4:	15500100 	ldrneb	r0, [r0, #-256]
    11a8:	00000534 	andeq	r0, r0, r4, lsr r5
    11ac:	001e5c01 	andeqs	r5, lr, r1, lsl #24
    11b0:	c000200b 	andgt	r2, r0, fp
    11b4:	1600200b 	strne	r2, [r0], -fp
    11b8:	000004fb 	streqd	r0, [r0], -fp
    11bc:	07165301 	ldreq	r5, [r6, -r1, lsl #6]
    11c0:	02000005 	andeq	r0, r0, #5	; 0x5
    11c4:	00000091 	muleq	r0, r1, r0
    11c8:	00054b1f 	andeq	r4, r5, pc, lsl fp
    11cc:	200c4800 	andcs	r4, ip, r0, lsl #16
    11d0:	200c8000 	andcs	r8, ip, r0
    11d4:	054b1f00 	streqb	r1, [fp, #-3840]
    11d8:	0c800000 	stceq	0, cr0, [r0], {0}
    11dc:	0cbc0020 	ldceq	0, cr0, [ip], #128
    11e0:	4b1f0020 	blmi	7c1268 <_ram_end+0x5bc75c>
    11e4:	dc000005 	stcle	0, cr0, [r0], {5}
    11e8:	e000200c 	and	r2, r0, ip
    11ec:	1f00200c 	swine	0x0000200c
    11f0:	0000054b 	andeq	r0, r0, fp, asr #10
    11f4:	00200d64 	eoreq	r0, r0, r4, ror #26
    11f8:	00200d74 	eoreq	r0, r0, r4, ror sp
    11fc:	0005641f 	andeq	r6, r5, pc, lsl r4
    1200:	200d8000 	andcs	r8, sp, r0
    1204:	200dbc00 	andcs	fp, sp, r0, lsl #24
    1208:	06b11d00 	ldreqt	r1, [r1], r0, lsl #26
    120c:	04d40000 	ldreqb	r0, [r4]
    1210:	0dbc0000 	ldceq	0, cr0, [ip]
    1214:	0e880020 	cdpeq	0, 8, cr0, cr8, cr0, {1}
    1218:	2d150020 	ldccs	0, cr0, [r5, #-128]
    121c:	01000005 	tsteq	r0, r5
    1220:	05341550 	ldreq	r1, [r4, #-1360]!
    1224:	5c010000 	stcpl	0, cr0, [r1], {0}
    1228:	200dc41e 	andcs	ip, sp, lr, lsl r4
    122c:	200e8800 	andcs	r8, lr, r0, lsl #16
    1230:	04fb1600 	ldreqbt	r1, [fp], #1536
    1234:	53010000 	tstpl	r1, #0	; 0x0
    1238:	00050716 	andeq	r0, r5, r6, lsl r7
    123c:	00910200 	addeqs	r0, r1, r0, lsl #4
    1240:	641f0000 	ldrvs	r0, [pc], #0	; 1248 <.debug_info+0x1248>
    1244:	88000005 	stmhida	r0, {r0, r2}
    1248:	c400200e 	strgt	r2, [r0], #-14
    124c:	1f00200e 	swine	0x0000200e
    1250:	0000054b 	andeq	r0, r0, fp, asr #10
    1254:	00200f10 	eoreq	r0, r0, r0, lsl pc
    1258:	00200f4c 	eoreq	r0, r0, ip, asr #30
    125c:	00054b1f 	andeq	r4, r5, pc, lsl fp
    1260:	200f4c00 	andcs	r4, pc, r0, lsl #24
    1264:	200f8400 	andcs	r8, pc, r0, lsl #8
    1268:	07111d00 	ldreq	r1, [r1, -r0, lsl #26]
    126c:	04d40000 	ldreqb	r0, [r4]
    1270:	0fa40000 	swieq	0x00a40000
    1274:	106c0020 	rsbne	r0, ip, r0, lsr #32
    1278:	2d150020 	ldccs	0, cr0, [r5, #-128]
    127c:	01000005 	tsteq	r0, r5
    1280:	05341550 	ldreq	r1, [r4, #-1360]!
    1284:	5c010000 	stcpl	0, cr0, [r1], {0}
    1288:	200fa81e 	andcs	sl, pc, lr, lsl r8
    128c:	20106c00 	andcss	r6, r0, r0, lsl #24
    1290:	04fb1600 	ldreqbt	r1, [fp], #1536
    1294:	53010000 	tstpl	r1, #0	; 0x0
    1298:	00050716 	andeq	r0, r5, r6, lsl r7
    129c:	00910200 	addeqs	r0, r1, r0, lsl #4
    12a0:	4b1f0000 	blmi	7c12a8 <_ram_end+0x5bc79c>
    12a4:	cc000005 	stcgt	0, cr0, [r0], {5}
    12a8:	08002010 	stmeqda	r0, {r4, sp}
    12ac:	1d002011 	stcne	0, cr2, [r0, #-68]
    12b0:	00000753 	andeq	r0, r0, r3, asr r7
    12b4:	000004d4 	ldreqd	r0, [r0], -r4
    12b8:	00201108 	eoreq	r1, r0, r8, lsl #2
    12bc:	00201118 	eoreq	r1, r0, r8, lsl r1
    12c0:	00052d15 	andeq	r2, r5, r5, lsl sp
    12c4:	155c0100 	ldrneb	r0, [ip, #-256]
    12c8:	00000534 	andeq	r0, r0, r4, lsr r5
    12cc:	80205001 	eorhi	r5, r0, r1
    12d0:	16000000 	strne	r0, [r0], -r0
    12d4:	000004fb 	streqd	r0, [r0], -fp
    12d8:	07165301 	ldreq	r5, [r6, -r1, lsl #6]
    12dc:	02000005 	andeq	r0, r0, #5	; 0x5
    12e0:	00000091 	muleq	r0, r1, r0
    12e4:	0005641f 	andeq	r6, r5, pc, lsl r4
    12e8:	20112c00 	andcss	r2, r1, r0, lsl #24
    12ec:	20113c00 	andcss	r3, r1, r0, lsl #24
    12f0:	054b1f00 	streqb	r1, [fp, #-3840]
    12f4:	11900000 	orrnes	r0, r0, r0
    12f8:	11940020 	orrnes	r0, r4, r0, lsr #32
    12fc:	a61d0020 	ldrge	r0, [sp], -r0, lsr #32
    1300:	d4000007 	strle	r0, [r0], #-7
    1304:	10000004 	andne	r0, r0, r4
    1308:	d8002012 	stmleda	r0, {r1, r4, sp}
    130c:	15002012 	strne	r2, [r0, #-18]
    1310:	0000052d 	andeq	r0, r0, sp, lsr #10
    1314:	34155001 	ldrcc	r5, [r5], #-1
    1318:	01000005 	tsteq	r0, r5
    131c:	12141e5c 	andnes	r1, r4, #1472	; 0x5c0
    1320:	12d80020 	sbcnes	r0, r8, #32	; 0x20
    1324:	fb160020 	blx	5813ae <_ram_end+0x37c8a2>
    1328:	01000004 	tsteq	r0, r4
    132c:	05071653 	streq	r1, [r7, #-1619]
    1330:	91020000 	tstls	r2, r0
    1334:	1f000000 	swine	0x00000000
    1338:	00000564 	andeq	r0, r0, r4, ror #10
    133c:	002012d8 	ldreqd	r1, [r0], -r8
    1340:	00201314 	eoreq	r1, r0, r4, lsl r3
    1344:	0005641f 	andeq	r6, r5, pc, lsl r4
    1348:	20131400 	andcss	r1, r3, r0, lsl #8
    134c:	20135000 	andcss	r5, r3, r0
    1350:	07f91d00 	ldreqb	r1, [r9, r0, lsl #26]!
    1354:	04d40000 	ldreqb	r0, [r4]
    1358:	14500000 	ldrneb	r0, [r0]
    135c:	15180020 	ldrne	r0, [r8, #-32]
    1360:	2d150020 	ldccs	0, cr0, [r5, #-128]
    1364:	01000005 	tsteq	r0, r5
    1368:	05341550 	ldreq	r1, [r4, #-1360]!
    136c:	5c010000 	stcpl	0, cr0, [r1], {0}
    1370:	2014541e 	andcss	r5, r4, lr, lsl r4
    1374:	20151800 	andcss	r1, r5, r0, lsl #16
    1378:	04fb1600 	ldreqbt	r1, [fp], #1536
    137c:	53010000 	tstpl	r1, #0	; 0x0
    1380:	00050716 	andeq	r0, r5, r6, lsl r7
    1384:	00910200 	addeqs	r0, r1, r0, lsl #4
    1388:	641f0000 	ldrvs	r0, [pc], #0	; 1390 <.debug_info+0x1390>
    138c:	18000005 	stmneda	r0, {r0, r2}
    1390:	54002015 	strpl	r2, [r0], #-21
    1394:	1f002015 	swine	0x00002015
    1398:	00000564 	andeq	r0, r0, r4, ror #10
    139c:	00201554 	eoreq	r1, r0, r4, asr r5
    13a0:	00201598 	mlaeq	r0, r8, r5, r1
    13a4:	00084c1d 	andeq	r4, r8, sp, lsl ip
    13a8:	0004d400 	andeq	sp, r4, r0, lsl #8
    13ac:	20159800 	andcss	r9, r5, r0, lsl #16
    13b0:	20166800 	andcss	r6, r6, r0, lsl #16
    13b4:	052d1500 	streq	r1, [sp, #-1280]!
    13b8:	5c010000 	stcpl	0, cr0, [r1], {0}
    13bc:	00053415 	andeq	r3, r5, r5, lsl r4
    13c0:	1e500100 	rdfnes	f0, f0, f0
    13c4:	002015a4 	eoreq	r1, r0, r4, lsr #11
    13c8:	00201668 	eoreq	r1, r0, r8, ror #12
    13cc:	0004fb16 	andeq	pc, r4, r6, lsl fp
    13d0:	16530100 	ldrneb	r0, [r3], -r0, lsl #2
    13d4:	00000507 	andeq	r0, r0, r7, lsl #10
    13d8:	00009102 	andeq	r9, r0, r2, lsl #2
    13dc:	04d42100 	ldreqb	r2, [r4], #256
    13e0:	16680000 	strnebt	r0, [r8], -r0
    13e4:	17500020 	ldrneb	r0, [r0, -r0, lsr #32]
    13e8:	2d150020 	ldccs	0, cr0, [r5, #-128]
    13ec:	01000005 	tsteq	r0, r5
    13f0:	0534155c 	ldreq	r1, [r4, #-1372]!
    13f4:	50010000 	andpl	r0, r1, r0
    13f8:	2016741e 	andcss	r7, r6, lr, lsl r4
    13fc:	20175000 	andcss	r5, r7, r0
    1400:	04fb1600 	ldreqbt	r1, [fp], #1536
    1404:	53010000 	tstpl	r1, #0	; 0x0
    1408:	00050716 	andeq	r0, r5, r6, lsl r7
    140c:	00910200 	addeqs	r0, r1, r0, lsl #4
    1410:	22000000 	andcs	r0, r0, #0	; 0x0
    1414:	0000089f 	muleq	r0, pc, r8
    1418:	00050201 	andeq	r0, r5, r1, lsl #4
    141c:	cdad0100 	stfgts	f0, [sp]
    1420:	01000004 	tsteq	r0, r4
    1424:	72736923 	rsbvcs	r6, r3, #573440	; 0x8c000
    1428:	3aae0100 	bcc	feb81830 <_ram_end+0xfe97cd24>
    142c:	00000000 	andeq	r0, r0, r0
    1430:	0008bb14 	andeq	fp, r8, r4, lsl fp
    1434:	00088200 	andeq	r8, r8, r0, lsl #4
    1438:	20175000 	andcss	r5, r7, r0
    143c:	2017e800 	andcss	lr, r7, r0, lsl #16
    1440:	165b0100 	ldrneb	r0, [fp], -r0, lsl #2
    1444:	00000893 	muleq	r0, r3, r8
    1448:	00709102 	rsbeqs	r9, r0, r2, lsl #2
    144c:	00090f24 	andeq	r0, r9, r4, lsr #30
    1450:	04090100 	streq	r0, [r9], #-256
    1454:	f2010000 	andnv	r0, r1, #0	; 0x0
    1458:	00046201 	andeq	r6, r4, r1, lsl #4
    145c:	de250100 	sufles	f0, f5, f0
    1460:	01000003 	tsteq	r0, r3
    1464:	000514f1 	streqd	r1, [r5], -r1
    1468:	06f62500 	ldreqbt	r2, [r6], r0, lsl #10
    146c:	f1010000 	setend	le
    1470:	00000462 	andeq	r0, r0, r2, ror #8
    1474:	74706323 	ldrvcbt	r6, [r0], #-803
    1478:	62f30100 	rscvss	r0, r3, #0	; 0x0
    147c:	26000004 	strcs	r0, [r0], -r4
    1480:	00000900 	andeq	r0, r0, r0, lsl #18
    1484:	00089327 	andeq	r9, r8, r7, lsr #6
    1488:	93272800 	teqls	r7, #0	; 0x0
    148c:	00000008 	andeq	r0, r0, r8
    1490:	93272800 	teqls	r7, #0	; 0x0
    1494:	28000008 	stmcsda	r0, {r3}
    1498:	00089327 	andeq	r9, r8, r7, lsr #6
    149c:	00000000 	andeq	r0, r0, r0
    14a0:	00098414 	andeq	r8, r9, r4, lsl r4
    14a4:	0008bb00 	andeq	fp, r8, r0, lsl #22
    14a8:	2017e800 	andcss	lr, r7, r0, lsl #16
    14ac:	201a1000 	andcss	r1, sl, r0
    14b0:	155b0100 	ldrneb	r0, [fp, #-256]
    14b4:	000008cd 	andeq	r0, r0, sp, asr #17
    14b8:	d8155401 	ldmleda	r5, {r0, sl, ip, lr}
    14bc:	01000008 	tsteq	r0, r8
    14c0:	08e31651 	stmeqia	r3!, {r0, r4, r6, r9, sl, ip}^
    14c4:	53010000 	tstpl	r1, #0	; 0x0
    14c8:	00095f1d 	andeq	r5, r9, sp, lsl pc
    14cc:	00088200 	andeq	r8, r8, r0, lsl #4
    14d0:	2018a800 	andcss	sl, r8, r0, lsl #16
    14d4:	2018d400 	andcss	sp, r8, r0, lsl #8
    14d8:	08931600 	ldmeqia	r3, {r9, sl, ip}
    14dc:	91020000 	tstls	r2, r0
    14e0:	0098205c 	addeqs	r2, r8, ip, asr r0
    14e4:	93160000 	tstls	r6, #0	; 0x0
    14e8:	02000008 	andeq	r0, r0, #8	; 0x8
    14ec:	00005c91 	muleq	r0, r1, ip
    14f0:	00088221 	andeq	r8, r8, r1, lsr #4
    14f4:	20195000 	andcss	r5, r9, r0
    14f8:	20197c00 	andcss	r7, r9, r0, lsl #24
    14fc:	08931600 	ldmeqia	r3, {r9, sl, ip}
    1500:	91020000 	tstls	r2, r0
    1504:	00b0205c 	adceqs	r2, r0, ip, asr r0
    1508:	93160000 	tstls	r6, #0	; 0x0
    150c:	02000008 	andeq	r0, r0, #8	; 0x8
    1510:	00005c91 	muleq	r0, r1, ip
    1514:	09dc2400 	ldmeqib	ip, {sl, sp}^
    1518:	3a010000 	bcc	41520 <.debug_info+0x41520>
    151c:	01000005 	tsteq	r0, r5
    1520:	046201d2 	streqbt	r0, [r2], #-466
    1524:	25010000 	strcs	r0, [r1]
    1528:	000003de 	ldreqd	r0, [r0], -lr
    152c:	0514d101 	ldreq	sp, [r4, #-257]
    1530:	f6250000 	strnvt	r0, [r5], -r0
    1534:	01000006 	tsteq	r0, r6
    1538:	000462d1 	ldreqd	r6, [r4], -r1
    153c:	05d12900 	ldreqb	r2, [r1, #2304]
    1540:	d3010000 	tstle	r1, #0	; 0x0
    1544:	00000462 	andeq	r0, r0, r2, ror #8
    1548:	00045a29 	andeq	r5, r4, r9, lsr #20
    154c:	62d30100 	sbcvss	r0, r3, #0	; 0x0
    1550:	29000004 	stmcsdb	r0, {r2}
    1554:	000004c9 	andeq	r0, r0, r9, asr #9
    1558:	0462d301 	streqbt	sp, [r2], #-769
    155c:	27280000 	strcs	r0, [r8, -r0]!
    1560:	00000893 	muleq	r0, r3, r8
    1564:	08932728 	ldmeqia	r3, {r3, r5, r8, r9, sl, sp}
    1568:	00000000 	andeq	r0, r0, r0
    156c:	0a371400 	beq	dc6574 <_ram_end+0xbc1a68>
    1570:	09840000 	stmeqib	r4, {}
    1574:	1a100000 	bne	40157c <_ram_end+0x1fca70>
    1578:	1b440020 	blne	1101600 <_ram_end+0xefcaf4>
    157c:	5b010020 	blpl	41604 <.debug_info+0x41604>
    1580:	00099615 	andeq	r9, r9, r5, lsl r6
    1584:	15580100 	ldrneb	r0, [r8, #-256]
    1588:	000009a1 	andeq	r0, r0, r1, lsr #19
    158c:	ac165701 	ldcge	7, cr5, [r6], {1}
    1590:	01000009 	tsteq	r0, r9
    1594:	09b71653 	ldmeqib	r7!, {r0, r1, r4, r6, r9, sl, ip}
    1598:	54010000 	strpl	r0, [r1]
    159c:	0009c216 	andeq	ip, r9, r6, lsl r2
    15a0:	21560100 	cmpcs	r6, r0, lsl #2
    15a4:	00000882 	andeq	r0, r0, r2, lsl #17
    15a8:	00201a44 	eoreq	r1, r0, r4, asr #20
    15ac:	00201a88 	eoreq	r1, r0, r8, lsl #21
    15b0:	00089316 	andeq	r9, r8, r6, lsl r3
    15b4:	54910200 	ldrpl	r0, [r1], #512
    15b8:	0000c820 	andeq	ip, r0, r0, lsr #16
    15bc:	08931600 	ldmeqia	r3, {r9, sl, ip}
    15c0:	91020000 	tstls	r2, r0
    15c4:	00000054 	andeq	r0, r0, r4, asr r0
    15c8:	000af719 	andeq	pc, sl, r9, lsl r7
    15cc:	04820100 	streq	r0, [r2], #256
    15d0:	e2010000 	and	r0, r1, #0	; 0x0
    15d4:	1b440101 	blne	11019e0 <_ram_end+0xefced4>
    15d8:	1d740020 	ldcnel	0, cr0, [r4, #-128]!
    15dc:	5b010020 	blpl	41664 <.debug_info+0x41664>
    15e0:	7274732a 	rsbvcs	r7, r4, #-1476395008	; 0xa8000000
    15e4:	01e10100 	mvneq	r0, r0, lsl #2
    15e8:	00000514 	andeq	r0, r0, r4, lsl r5
    15ec:	6c135401 	cfldrsvs	mvf5, [r3], {1}
    15f0:	01e30100 	mvneq	r0, r0, lsl #2
    15f4:	000004cd 	andeq	r0, r0, sp, asr #9
    15f8:	000a7f2b 	andeq	r7, sl, fp, lsr #30
    15fc:	05430100 	streqb	r0, [r3, #-256]
    1600:	00040000 	andeq	r0, r4, r0
    1604:	00003301 	andeq	r3, r0, r1, lsl #6
    1608:	f72c0100 	strnv	r0, [ip, -r0, lsl #2]!
    160c:	0000000a 	andeq	r0, r0, sl
    1610:	0008bb21 	andeq	fp, r8, r1, lsr #22
    1614:	201b5c00 	andcss	r5, fp, r0, lsl #24
    1618:	201d7400 	andcss	r7, sp, r0, lsl #8
    161c:	09221500 	stmeqdb	r2!, {r8, sl, ip}
    1620:	54010000 	strpl	r0, [r1]
    1624:	0009292d 	andeq	r2, r9, sp, lsr #18
    1628:	1b5c1e00 	blne	1708e30 <_ram_end+0x1504324>
    162c:	1d740020 	ldcnel	0, cr0, [r4, #-128]!
    1630:	e3160020 	tst	r6, #32	; 0x20
    1634:	01000008 	tsteq	r0, r8
    1638:	0ad01d53 	beq	ff408b8c <_ram_end+0xff204080>
    163c:	08820000 	stmeqia	r2, {}
    1640:	1c080000 	stcne	0, cr0, [r8], {0}
    1644:	1c340020 	ldcne	0, cr0, [r4], #-128
    1648:	93160020 	tstls	r6, #32	; 0x20
    164c:	02000008 	andeq	r0, r0, #8	; 0x8
    1650:	e0205c91 	mla	r0, r1, ip, r5
    1654:	16000000 	strne	r0, [r0], -r0
    1658:	00000893 	muleq	r0, r3, r8
    165c:	005c9102 	subeqs	r9, ip, r2, lsl #2
    1660:	08822100 	stmeqia	r2, {r8, sp}
    1664:	1cac0000 	stcne	0, cr0, [ip]
    1668:	1cd80020 	ldcnel	0, cr0, [r8], {32}
    166c:	93160020 	tstls	r6, #32	; 0x20
    1670:	02000008 	andeq	r0, r0, #8	; 0x8
    1674:	f8205c91 	stmnvda	r0!, {r0, r4, r7, sl, fp, ip, lr}
    1678:	16000000 	strne	r0, [r0], -r0
    167c:	00000893 	muleq	r0, r3, r8
    1680:	005c9102 	subeqs	r9, ip, r2, lsl #2
    1684:	00000000 	andeq	r0, r0, r0
    1688:	0afd0409 	beq	fff426b4 <_ram_end+0xffd3dba8>
    168c:	3a2e0000 	bcc	b81694 <_ram_end+0x97cb88>
    1690:	19000004 	stmnedb	r0, {r2}
    1694:	00000c18 	andeq	r0, r0, r8, lsl ip
    1698:	00025e01 	andeq	r5, r2, r1, lsl #28
    169c:	01ee0100 	mvneq	r0, r0, lsl #2
    16a0:	201d7401 	andcss	r7, sp, r1, lsl #8
    16a4:	20202400 	eorcs	r2, r0, r0, lsl #8
    16a8:	1d5b0100 	ldfnee	f0, [fp]
    16ac:	00000b42 	andeq	r0, r0, r2, asr #22
    16b0:	00000882 	andeq	r0, r0, r2, lsl #17
    16b4:	00201d9c 	mlaeq	r0, ip, sp, r1
    16b8:	00201de8 	eoreq	r1, r0, r8, ror #27
    16bc:	00089316 	andeq	r9, r8, r6, lsl r3
    16c0:	54910200 	ldrpl	r0, [r1], #512
    16c4:	00011020 	andeq	r1, r1, r0, lsr #32
    16c8:	08931600 	ldmeqia	r3, {r9, sl, ip}
    16cc:	91020000 	tstls	r2, r0
    16d0:	1d000054 	stcne	0, cr0, [r0, #-336]
    16d4:	00000b6a 	andeq	r0, r0, sl, ror #22
    16d8:	00000882 	andeq	r0, r0, r2, lsl #17
    16dc:	00201df4 	streqd	r1, [r0], -r4
    16e0:	00201e3c 	eoreq	r1, r0, ip, lsr lr
    16e4:	00089316 	andeq	r9, r8, r6, lsl r3
    16e8:	54910200 	ldrpl	r0, [r1], #512
    16ec:	00013020 	andeq	r3, r1, r0, lsr #32
    16f0:	08931600 	ldmeqia	r3, {r9, sl, ip}
    16f4:	91020000 	tstls	r2, r0
    16f8:	20000054 	andcs	r0, r0, r4, asr r0
    16fc:	00000148 	andeq	r0, r0, r8, asr #2
    1700:	0006f62f 	andeq	pc, r6, pc, lsr #12
    1704:	01f70100 	mvneqs	r0, r0, lsl #2
    1708:	000004cd 	andeq	r0, r0, sp, asr #9
    170c:	000b8f1b 	andeq	r8, fp, fp, lsl pc
    1710:	03e40100 	mvneq	r0, #0	; 0x0
    1714:	fe010000 	cdp2	0, 0, cr0, cr1, cr0, {0}
    1718:	0004cd01 	andeq	ip, r4, r1, lsl #26
    171c:	001c0100 	andeqs	r0, ip, r0, lsl #2
    1720:	000bf21d 	andeq	pc, fp, sp, lsl r2
    1724:	00098400 	andeq	r8, r9, r0, lsl #8
    1728:	201e4400 	andcss	r4, lr, r0, lsl #8
    172c:	201f2400 	andcss	r2, pc, r0, lsl #8
    1730:	09ef1500 	stmeqib	pc!, {r8, sl, ip}^
    1734:	58010000 	stmplda	r1, {}
    1738:	0009f615 	andeq	pc, r9, r5, lsl r6
    173c:	30560100 	subccs	r0, r6, r0, lsl #2
    1740:	00000bcd 	andeq	r0, r0, sp, asr #23
    1744:	00000160 	andeq	r0, r0, r0, ror #2
    1748:	0009ac16 	andeq	sl, r9, r6, lsl ip
    174c:	16530100 	ldrneb	r0, [r3], -r0, lsl #2
    1750:	000009b7 	streqh	r0, [r0], -r7
    1754:	c2165401 	andgts	r5, r6, #16777216	; 0x1000000
    1758:	01000009 	tsteq	r0, r9
    175c:	82210055 	eorhi	r0, r1, #85	; 0x55
    1760:	5c000008 	stcpl	0, cr0, [r0], {8}
    1764:	a000201e 	andge	r2, r0, lr, lsl r0
    1768:	1600201e 	undefined
    176c:	00000893 	muleq	r0, r3, r8
    1770:	20549102 	subcss	r9, r4, r2, lsl #2
    1774:	00000198 	muleq	r0, r8, r1
    1778:	00089316 	andeq	r9, r8, r6, lsl r3
    177c:	54910200 	ldrpl	r0, [r1], #512
    1780:	21000000 	tstcs	r0, r0
    1784:	00000882 	andeq	r0, r0, r2, lsl #17
    1788:	00201f24 	eoreq	r1, r0, r4, lsr #30
    178c:	00201f34 	eoreq	r1, r0, r4, lsr pc
    1790:	00089316 	andeq	r9, r8, r6, lsl r3
    1794:	54910200 	ldrpl	r0, [r1], #512
    1798:	0001b020 	andeq	fp, r1, r0, lsr #32
    179c:	08931600 	ldmeqia	r3, {r9, sl, ip}
    17a0:	91020000 	tstls	r2, r0
    17a4:	00000054 	andeq	r0, r0, r4, asr r0
    17a8:	0c280400 	cfstrseq	mvf0, [r8]
    17ac:	043a0000 	ldreqt	r0, [sl]
    17b0:	46050000 	strmi	r0, [r5], -r0
    17b4:	11000000 	tstne	r0, r0
    17b8:	05ae3100 	streq	r3, [lr, #256]!
    17bc:	0b010000 	bleq	417c4 <.debug_info+0x417c4>
    17c0:	00000c18 	andeq	r0, r0, r8, lsl ip
    17c4:	53030501 	tstpl	r3, #4194304	; 0x400000
    17c8:	04002045 	streq	r2, [r0], #-69
    17cc:	00000c4a 	andeq	r0, r0, sl, asr #24
    17d0:	0000043a 	andeq	r0, r0, sl, lsr r4
    17d4:	00004605 	andeq	r4, r0, r5, lsl #12
    17d8:	31004200 	tstcc	r0, r0, lsl #4
    17dc:	000003f2 	streqd	r0, [r0], -r2
    17e0:	0c3a2101 	ldfeqs	f2, [sl], #-4
    17e4:	05010000 	streq	r0, [r1]
    17e8:	20451003 	subcs	r1, r5, r3
    17ec:	08d03100 	ldmeqia	r0, {r8, ip, sp}^
    17f0:	7d010000 	stcvc	0, cr0, [r1]
    17f4:	00000441 	andeq	r0, r0, r1, asr #8
    17f8:	08030501 	stmeqda	r3, {r0, r8, sl}
    17fc:	31002045 	tstcc	r0, r5, asr #32
    1800:	00000644 	andeq	r0, r0, r4, asr #12
    1804:	03e78401 	mvneq	r8, #16777216	; 0x1000000
    1808:	05010000 	streq	r0, [r1]
    180c:	20469803 	subcs	r9, r6, r3, lsl #16
    1810:	04323100 	ldreqt	r3, [r2], #-256
    1814:	85010000 	strhi	r0, [r1]
    1818:	00000025 	andeq	r0, r0, r5, lsr #32
    181c:	9c030501 	cfstr32ls	mvfx0, [r3], {1}
    1820:	31002046 	tstcc	r0, r6, asr #32
    1824:	00000605 	andeq	r0, r0, r5, lsl #12
    1828:	00258601 	eoreq	r8, r5, r1, lsl #12
    182c:	05010000 	streq	r0, [r1]
    1830:	20469403 	subcs	r9, r6, r3, lsl #8
    1834:	055f3100 	ldreqb	r3, [pc, #-256]	; 173c <.debug_info+0x173c>
    1838:	87010000 	strhi	r0, [r1, -r0]
    183c:	0000003f 	andeq	r0, r0, pc, lsr r0
    1840:	a0030501 	andge	r0, r3, r1, lsl #10
    1844:	04002046 	streq	r2, [r0], #-70
    1848:	00000cc7 	andeq	r0, r0, r7, asr #25
    184c:	00000025 	andeq	r0, r0, r5, lsr #32
    1850:	00004632 	andeq	r4, r0, r2, lsr r6
    1854:	0001ff00 	andeq	pc, r1, r0, lsl #30
    1858:	66756233 	undefined
    185c:	01e80100 	mvneq	r0, r0, lsl #2
    1860:	00000cb6 	streqh	r0, [r0], -r6
    1864:	a4030501 	strge	r0, [r3], #-1281
    1868:	34002046 	strcc	r2, [r0], #-70
    186c:	0000034d 	andeq	r0, r0, sp, asr #6
    1870:	cd01ea01 	fstsgt	s28, [r1, #-4]
    1874:	01000004 	tsteq	r0, r4
    1878:	48a40305 	stmmiia	r4!, {r0, r2, r8, r9}
    187c:	a1000020 	tstge	r0, r0, lsr #32
    1880:	02000002 	andeq	r0, r0, #2	; 0x2
    1884:	0005ff00 	andeq	pc, r5, r0, lsl #30
    1888:	d7010400 	strle	r0, [r1, -r0, lsl #8]
    188c:	cc000005 	stcgt	0, cr0, [r0], {5}
    1890:	24002023 	strcs	r2, [r0], #-35
    1894:	69002020 	stmvsdb	r0, {r5, sp}
    1898:	01000000 	tsteq	r0, r0
    189c:	000006cc 	andeq	r0, r0, ip, asr #13
    18a0:	0000012d 	andeq	r0, r0, sp, lsr #2
    18a4:	00011f02 	andeq	r1, r1, r2, lsl #30
    18a8:	02080100 	andeq	r0, r8, #0	; 0x0
    18ac:	00000175 	andeq	r0, r0, r5, ror r1
    18b0:	0d020702 	stceq	7, cr0, [r2, #-8]
    18b4:	04000001 	streq	r0, [r0], #-1
    18b8:	33750307 	cmncc	r5, #469762048	; 0x1c000000
    18bc:	13030032 	tstne	r3, #50	; 0x32
    18c0:	00000033 	andeq	r0, r0, r3, lsr r0
    18c4:	00011202 	andeq	r1, r1, r2, lsl #4
    18c8:	02070400 	andeq	r0, r7, #0	; 0x0
    18cc:	0000010d 	andeq	r0, r0, sp, lsl #2
    18d0:	28020704 	stmcsda	r2, {r2, r8, r9, sl}
    18d4:	01000001 	tsteq	r0, r1
    18d8:	91010408 	tstls	r1, r8, lsl #8
    18dc:	01000002 	tsteq	r0, r2
    18e0:	2024011a 	eorcs	r0, r4, sl, lsl r1
    18e4:	20380020 	eorcss	r0, r8, r0, lsr #32
    18e8:	5d010020 	stcpl	0, cr0, [r1, #-128]
    18ec:	00021205 	andeq	r1, r2, r5, lsl #4
    18f0:	03e40100 	mvneq	r0, #0	; 0x0
    18f4:	23010000 	tstcs	r1, #0	; 0x0
    18f8:	20203801 	eorcs	r3, r0, r1, lsl #16
    18fc:	2023cc00 	eorcs	ip, r3, r0, lsl #24
    1900:	065b0100 	ldreqb	r0, [fp], -r0, lsl #2
    1904:	00646d63 	rsbeq	r6, r4, r3, ror #26
    1908:	02122201 	andeqs	r2, r2, #268435456	; 0x10000000
    190c:	54010000 	strpl	r0, [r1]
    1910:	0006e307 	andeq	lr, r6, r7, lsl #6
    1914:	45240100 	strmi	r0, [r4, #-256]!
    1918:	01000000 	tsteq	r0, r0
    191c:	656c0852 	strvsb	r0, [ip, #-2130]!
    1920:	2401006e 	strcs	r0, [r1], #-110
    1924:	00000045 	andeq	r0, r0, r5, asr #32
    1928:	76085801 	strvc	r5, [r8], -r1, lsl #16
    192c:	01006c61 	tsteq	r0, r1, ror #24
    1930:	00004524 	andeq	r4, r0, r4, lsr #10
    1934:	08520100 	ldmeqda	r2, {r8}^
    1938:	25010069 	strcs	r0, [r1, #-105]
    193c:	00000045 	andeq	r0, r0, r5, asr #32
    1940:	08409102 	stmeqda	r0, {r1, r8, ip, pc}^
    1944:	01003269 	tsteq	r0, r9, ror #4
    1948:	00004525 	andeq	r4, r0, r5, lsr #10
    194c:	bc910300 	ldclt	3, cr0, [r1], {0}
    1950:	0076087f 	rsbeqs	r0, r6, pc, ror r8
    1954:	00452501 	subeq	r2, r5, r1, lsl #10
    1958:	51010000 	tstpl	r1, r0
    195c:	00069707 	andeq	r9, r6, r7, lsl #14
    1960:	18260100 	stmneda	r6!, {r8}
    1964:	01000002 	tsteq	r0, r2
    1968:	00630854 	rsbeq	r0, r3, r4, asr r8
    196c:	021f2701 	andeqs	r2, pc, #262144	; 0x40000
    1970:	91020000 	tstls	r2, r0
    1974:	01090950 	tsteq	r9, r0, asr r9
    1978:	ae010000 	cdpge	0, 0, cr0, cr1, cr0, {0}
    197c:	01000006 	tsteq	r0, r6
    1980:	0002182a 	andeq	r1, r2, sl, lsr #16
    1984:	000a0100 	andeq	r0, sl, r0, lsl #2
    1988:	00011c09 	andeq	r1, r1, r9, lsl #24
    198c:	01bd0100 	moveqs	r0, r0, lsl #2
    1990:	2b010000 	blcs	41998 <.debug_info+0x41998>
    1994:	00000218 	andeq	r0, r0, r8, lsl r2
    1998:	0b000a01 	bleq	41a4 <.debug_info+0x41a4>
    199c:	00000192 	muleq	r0, r2, r1
    19a0:	000001d8 	ldreqd	r0, [r0], -r8
    19a4:	00013809 	andeq	r3, r1, r9, lsl #16
    19a8:	068f0100 	streq	r0, [pc], r0, lsl #2
    19ac:	39010000 	stmccdb	r1, {}
    19b0:	00000218 	andeq	r0, r0, r8, lsl r2
    19b4:	0c000a01 	stceq	10, cr0, [r0], {1}
    19b8:	00000150 	andeq	r0, r0, r0, asr r1
    19bc:	00054301 	andeq	r4, r5, r1, lsl #6
    19c0:	01000200 	tsteq	r0, r0, lsl #4
    19c4:	00000033 	andeq	r0, r0, r3, lsr r0
    19c8:	022f0d01 	eoreq	r0, pc, #64	; 0x40
    19cc:	09000000 	stmeqdb	r0, {}
    19d0:	00000163 	andeq	r0, r0, r3, ror #2
    19d4:	0006a601 	andeq	sl, r6, r1, lsl #12
    19d8:	18420100 	stmneda	r2, {r8}^
    19dc:	01000002 	tsteq	r0, r2
    19e0:	7609000a 	strvc	r0, [r9], -sl
    19e4:	01000001 	tsteq	r0, r1
    19e8:	0000069e 	muleq	r0, lr, r6
    19ec:	02184401 	andeqs	r4, r8, #16777216	; 0x1000000
    19f0:	0a010000 	beq	419f8 <.debug_info+0x419f8>
    19f4:	00630800 	rsbeq	r0, r3, r0, lsl #16
    19f8:	021f5a01 	andeqs	r5, pc, #4096	; 0x1000
    19fc:	91020000 	tstls	r2, r0
    1a00:	11010e44 	tstne	r1, r4, asr #28
    1a04:	01000007 	tsteq	r0, r7
    1a08:	00021886 	andeq	r1, r2, r6, lsl #17
    1a0c:	000a0100 	andeq	r0, sl, r0, lsl #2
    1a10:	01ab0b00 	moveq	r0, r0, lsl #22
    1a14:	01f80000 	mvneqs	r0, r0
    1a18:	010e0000 	tsteq	lr, r0
    1a1c:	0000068f 	andeq	r0, r0, pc, lsl #13
    1a20:	02183901 	andeqs	r3, r8, #16384	; 0x4000
    1a24:	0a010000 	beq	41a2c <.debug_info+0x41a2c>
    1a28:	c80f0000 	stmgtda	pc, {}
    1a2c:	c0000001 	andgt	r0, r0, r1
    1a30:	d8002021 	stmleda	r0, {r0, r5, sp}
    1a34:	0e002021 	cdpeq	0, 0, cr2, cr0, cr1, {1}
    1a38:	00040901 	andeq	r0, r4, r1, lsl #18
    1a3c:	18820100 	stmneia	r2, {r8}
    1a40:	01000002 	tsteq	r0, r2
    1a44:	0f00000a 	swieq	0x0000000a
    1a48:	000001f8 	streqd	r0, [r0], -r8
    1a4c:	00202264 	eoreq	r2, r0, r4, ror #4
    1a50:	00202288 	eoreq	r2, r0, r8, lsl #5
    1a54:	0001e809 	andeq	lr, r1, r9, lsl #16
    1a58:	04820100 	streq	r0, [r2], #256
    1a5c:	81010000 	tsthi	r1, r0
    1a60:	00000218 	andeq	r0, r0, r8, lsl r2
    1a64:	0e000a01 	fmacseq	s0, s0, s2
    1a68:	00040901 	andeq	r0, r4, r1, lsl #18
    1a6c:	18820100 	stmneia	r2, {r8}
    1a70:	01000002 	tsteq	r0, r2
    1a74:	1000000a 	andne	r0, r0, sl
    1a78:	0020232c 	eoreq	r2, r0, ip, lsr #6
    1a7c:	00202338 	eoreq	r2, r0, r8, lsr r3
    1a80:	0482010e 	streq	r0, [r2], #270
    1a84:	81010000 	tsthi	r1, r0
    1a88:	00000218 	andeq	r0, r0, r8, lsl r2
    1a8c:	00000a01 	andeq	r0, r0, r1, lsl #20
    1a90:	53041100 	tstpl	r4, #0	; 0x0
    1a94:	12000000 	andne	r0, r0, #0	; 0x0
    1a98:	00746e69 	rsbeqs	r6, r4, r9, ror #28
    1a9c:	2f130504 	swics	0x00130504
    1aa0:	53000002 	tstpl	r0, #2	; 0x2
    1aa4:	14000000 	strne	r0, [r0]
    1aa8:	0000004c 	andeq	r0, r0, ip, asr #32
    1aac:	04110008 	ldreq	r0, [r1], #-8
    1ab0:	00000235 	andeq	r0, r0, r5, lsr r2
    1ab4:	00005315 	andeq	r5, r0, r5, lsl r3
    1ab8:	024b1300 	subeq	r1, fp, #0	; 0x0
    1abc:	00530000 	subeqs	r0, r3, r0
    1ac0:	4c160000 	ldcmi	0, cr0, [r6], {0}
    1ac4:	00000000 	andeq	r0, r0, r0
    1ac8:	6f170002 	swivs	0x00170002
    1acc:	01007475 	tsteq	r0, r5, ror r4
    1ad0:	00023a0c 	andeq	r3, r2, ip, lsl #20
    1ad4:	03050100 	tsteq	r5, #0	; 0x0
    1ad8:	002048a8 	eoreq	r4, r0, r8, lsr #17
    1adc:	00070918 	andeq	r0, r7, r8, lsl r9
    1ae0:	180d0100 	stmneda	sp, {r8}
    1ae4:	01000002 	tsteq	r0, r2
    1ae8:	4ab00305 	bmi	fec02704 <_ram_end+0xfe9fdbf8>
    1aec:	d4180020 	ldrle	r0, [r8], #-32
    1af0:	01000006 	tsteq	r0, r6
    1af4:	00021212 	andeq	r1, r2, r2, lsl r2
    1af8:	03050100 	tsteq	r5, #0	; 0x0
    1afc:	00204aac 	eoreq	r4, r0, ip, lsr #21
    1b00:	0006e818 	andeq	lr, r6, r8, lsl r8
    1b04:	3a130100 	bcc	4c1f0c <_ram_end+0x2bd400>
    1b08:	01000000 	tsteq	r0, r0
    1b0c:	4ab40305 	bmi	fed02728 <_ram_end+0xfeafdc1c>
    1b10:	fd070020 	stc2	0, cr0, [r7, #-128]
    1b14:	01000006 	tsteq	r0, r6
    1b18:	00021815 	andeq	r1, r2, r5, lsl r8
    1b1c:	90030500 	andls	r0, r3, r0, lsl #10
    1b20:	00002045 	andeq	r2, r0, r5, asr #32
    1b24:	0000069f 	muleq	r0, pc, r6
    1b28:	073e0002 	ldreq	r0, [lr, -r2]!
    1b2c:	01040000 	tsteq	r4, r0
    1b30:	000006aa 	andeq	r0, r0, sl, lsr #13
    1b34:	00202744 	eoreq	r2, r0, r4, asr #14
    1b38:	002023cc 	eoreq	r2, r0, ip, asr #7
    1b3c:	00000069 	andeq	r0, r0, r9, rrx
    1b40:	0007b901 	andeq	fp, r7, r1, lsl #18
    1b44:	00012d00 	andeq	r2, r1, r0, lsl #26
    1b48:	011f0200 	tsteq	pc, r0, lsl #4
    1b4c:	08010000 	stmeqda	r1, {}
    1b50:	00017502 	andeq	r7, r1, r2, lsl #10
    1b54:	02070200 	andeq	r0, r7, #0	; 0x0
    1b58:	0000010d 	andeq	r0, r0, sp, lsl #2
    1b5c:	75030704 	strvc	r0, [r3, #-1796]
    1b60:	03003233 	tsteq	r0, #805306371	; 0x30000003
    1b64:	00003313 	andeq	r3, r0, r3, lsl r3
    1b68:	004a0400 	subeq	r0, sl, r0, lsl #8
    1b6c:	12020000 	andne	r0, r2, #0	; 0x0
    1b70:	04000001 	streq	r0, [r0], #-1
    1b74:	010d0207 	tsteq	sp, r7, lsl #4
    1b78:	07040000 	streq	r0, [r4, -r0]
    1b7c:	0000cf05 	andeq	ip, r0, r5, lsl #30
    1b80:	00033000 	andeq	r3, r3, r0
    1b84:	30026c00 	andcc	r6, r2, r0, lsl #24
    1b88:	02da0602 	sbceqs	r0, sl, #2097152	; 0x200000
    1b8c:	31020000 	tstcc	r2, r0
    1b90:	00004502 	andeq	r4, r0, r2, lsl #10
    1b94:	00230200 	eoreq	r0, r3, r0, lsl #4
    1b98:	00032906 	andeq	r2, r3, r6, lsl #18
    1b9c:	02320200 	eoreqs	r0, r2, #0	; 0x0
    1ba0:	00000045 	andeq	r0, r0, r5, asr #32
    1ba4:	06042302 	streq	r2, [r4], -r2, lsl #6
    1ba8:	0000029d 	muleq	r0, sp, r2
    1bac:	45023302 	strmi	r3, [r2, #-770]
    1bb0:	02000000 	andeq	r0, r0, #0	; 0x0
    1bb4:	a2060823 	andge	r0, r6, #2293760	; 0x230000
    1bb8:	02000000 	andeq	r0, r0, #0	; 0x0
    1bbc:	00df0234 	sbceqs	r0, pc, r4, lsr r2
    1bc0:	23020000 	tstcs	r2, #0	; 0x0
    1bc4:	02b1060c 	adceqs	r0, r1, #12582912	; 0xc00000
    1bc8:	35020000 	strcc	r0, [r2]
    1bcc:	00004502 	andeq	r4, r0, r2, lsl #10
    1bd0:	60230200 	eorvs	r0, r3, r0, lsl #4
    1bd4:	00030406 	andeq	r0, r3, r6, lsl #8
    1bd8:	02360200 	eoreqs	r0, r6, #0	; 0x0
    1bdc:	00000045 	andeq	r0, r0, r5, asr #32
    1be0:	06642302 	streqbt	r2, [r4], -r2, lsl #6
    1be4:	00000322 	andeq	r0, r0, r2, lsr #6
    1be8:	45023702 	strmi	r3, [r2, #-1794]
    1bec:	02000000 	andeq	r0, r0, #0	; 0x0
    1bf0:	07006823 	streq	r6, [r0, -r3, lsr #16]
    1bf4:	000000df 	ldreqd	r0, [r0], -pc
    1bf8:	00000045 	andeq	r0, r0, r5, asr #32
    1bfc:	00005108 	andeq	r5, r0, r8, lsl #2
    1c00:	04001400 	streq	r1, [r0], #-1024
    1c04:	000000cf 	andeq	r0, r0, pc, asr #1
    1c08:	0002b809 	andeq	fp, r2, r9, lsl #16
    1c0c:	02380200 	eoreqs	r0, r8, #0	; 0x0
    1c10:	000000f0 	streqd	r0, [r0], -r0
    1c14:	0058040a 	subeqs	r0, r8, sl, lsl #8
    1c18:	010b0000 	tsteq	fp, r0
    1c1c:	0000074a 	andeq	r0, r0, sl, asr #14
    1c20:	01010b01 	tsteq	r1, r1, lsl #22
    1c24:	0000f60c 	andeq	pc, r0, ip, lsl #12
    1c28:	2023cc00 	eorcs	ip, r3, r0, lsl #24
    1c2c:	2023d000 	eorcs	sp, r3, r0
    1c30:	0d5d0100 	ldfeqe	f0, [sp]
    1c34:	0002f001 	andeq	pc, r2, r1
    1c38:	010f0100 	tsteq	pc, r0, lsl #2
    1c3c:	002023d0 	ldreqd	r2, [r0], -r0
    1c40:	002023d4 	ldreqd	r2, [r0], -r4
    1c44:	010b5d01 	tsteq	fp, r1, lsl #26
    1c48:	000007c1 	andeq	r0, r0, r1, asr #15
    1c4c:	01011301 	tsteq	r1, r1, lsl #6
    1c50:	0001220c 	andeq	r2, r1, ip, lsl #4
    1c54:	2023d400 	eorcs	sp, r3, r0, lsl #8
    1c58:	2023e800 	eorcs	lr, r3, r0, lsl #16
    1c5c:	0e5d0100 	rdfeqe	f0, f5, f0
    1c60:	00000159 	andeq	r0, r0, r9, asr r1
    1c64:	00078101 	andeq	r8, r7, r1, lsl #2
    1c68:	011b0100 	tsteq	fp, r0, lsl #2
    1c6c:	00000159 	andeq	r0, r0, r9, asr r1
    1c70:	076e0f01 	streqb	r0, [lr, -r1, lsl #30]!
    1c74:	1c010000 	stcne	0, cr0, [r1], {0}
    1c78:	0000004a 	andeq	r0, r0, sl, asr #32
    1c7c:	6e691000 	cdpvs	0, 6, cr1, cr9, cr0, {0}
    1c80:	05040074 	streq	r0, [r4, #-116]
    1c84:	00017b11 	andeq	r7, r1, r1, lsl fp
    1c88:	00013b00 	andeq	r3, r1, r0, lsl #22
    1c8c:	2023e800 	eorcs	lr, r3, r0, lsl #16
    1c90:	2023fc00 	eorcs	pc, r3, r0, lsl #24
    1c94:	125d0100 	subnes	r0, sp, #0	; 0x0
    1c98:	0000014d 	andeq	r0, r0, sp, asr #2
    1c9c:	13005001 	tstne	r0, #1	; 0x1
    1ca0:	00076301 	andeq	r6, r7, r1, lsl #6
    1ca4:	01270100 	teqeq	r7, r0, lsl #2
    1ca8:	00000159 	andeq	r0, r0, r9, asr r1
    1cac:	017b0c01 	cmneq	fp, r1, lsl #24
    1cb0:	23fc0000 	mvncss	r0, #0	; 0x0
    1cb4:	24100020 	ldrcs	r0, [r0], #-32
    1cb8:	5d010020 	stcpl	0, cr0, [r1, #-128]
    1cbc:	00022b14 	andeq	r2, r2, r4, lsl fp
    1cc0:	07d20100 	ldreqb	r0, [r2, r0, lsl #2]
    1cc4:	2c010000 	stccs	0, cr0, [r1], {0}
    1cc8:	00015901 	andeq	r5, r1, r1, lsl #18
    1ccc:	20241000 	eorcs	r1, r4, r0
    1cd0:	20246800 	eorcs	r6, r4, r0, lsl #16
    1cd4:	155b0100 	ldrneb	r0, [fp, #-256]
    1cd8:	00000797 	muleq	r0, r7, r7
    1cdc:	004a2b01 	subeq	r2, sl, r1, lsl #22
    1ce0:	54010000 	strpl	r0, [r1]
    1ce4:	00075816 	andeq	r5, r7, r6, lsl r8
    1ce8:	e42d0100 	strt	r0, [sp], #-256
    1cec:	01000000 	tsteq	r0, r0
    1cf0:	01e01753 	mvneq	r1, r3, asr r7
    1cf4:	8f010000 	swihi	0x00010000
    1cf8:	01000000 	tsteq	r0, r0
    1cfc:	00015931 	andeq	r5, r1, r1, lsr r9
    1d00:	00180100 	andeqs	r0, r8, r0, lsl #2
    1d04:	0001f317 	andeq	pc, r1, r7, lsl r3
    1d08:	00cf0100 	sbceq	r0, pc, r0, lsl #2
    1d0c:	39010000 	stmccdb	r1, {}
    1d10:	00000159 	andeq	r0, r0, r9, asr r1
    1d14:	19001801 	stmnedb	r0, {r0, fp, ip}
    1d18:	0000021d 	andeq	r0, r0, sp, lsl r2
    1d1c:	0000013b 	andeq	r0, r0, fp, lsr r1
    1d20:	00202448 	eoreq	r2, r0, r8, asr #8
    1d24:	00202454 	eoreq	r2, r0, r4, asr r4
    1d28:	00014d12 	andeq	r4, r1, r2, lsl sp
    1d2c:	1a530100 	bne	14c2134 <_ram_end+0x12bd628>
    1d30:	00202448 	eoreq	r2, r0, r8, asr #8
    1d34:	00202454 	eoreq	r2, r0, r4, asr r4
    1d38:	00014d12 	andeq	r4, r1, r2, lsl sp
    1d3c:	00530100 	subeqs	r0, r3, r0, lsl #2
    1d40:	017b1b00 	cmneq	fp, r0, lsl #22
    1d44:	24580000 	ldrcsb	r0, [r8]
    1d48:	245c0020 	ldrcsb	r0, [ip], #-32
    1d4c:	0e000020 	cdpeq	0, 0, cr0, cr0, cr0, {1}
    1d50:	00000283 	andeq	r0, r0, r3, lsl #5
    1d54:	00072d01 	andeq	r2, r7, r1, lsl #26
    1d58:	013f0100 	teqeq	pc, r0, lsl #2
    1d5c:	00000159 	andeq	r0, r0, r9, asr r1
    1d60:	07971c01 	ldreq	r1, [r7, r1, lsl #24]
    1d64:	3e010000 	cdpcc	0, 0, cr0, cr1, cr0, {0}
    1d68:	0000004a 	andeq	r0, r0, sl, asr #32
    1d6c:	00025b17 	andeq	r5, r2, r7, lsl fp
    1d70:	008f0100 	addeq	r0, pc, r0, lsl #2
    1d74:	31010000 	tstcc	r1, r0
    1d78:	00000159 	andeq	r0, r0, r9, asr r1
    1d7c:	17001801 	strne	r1, [r0, -r1, lsl #16]
    1d80:	0000026e 	andeq	r0, r0, lr, ror #4
    1d84:	0000cf01 	andeq	ip, r0, r1, lsl #30
    1d88:	59390100 	ldmpldb	r9!, {r8}
    1d8c:	01000001 	tsteq	r0, r1
    1d90:	1e1d0018 	mrcne	0, 0, r0, cr13, cr8, {0}
    1d94:	00000281 	andeq	r0, r0, r1, lsl #5
    1d98:	00014d1f 	andeq	r4, r1, pc, lsl sp
    1d9c:	4d1f2000 	ldcmi	0, cr2, [pc]
    1da0:	00000001 	andeq	r0, r0, r1
    1da4:	11001d00 	tstne	r0, r0, lsl #26
    1da8:	000002ed 	andeq	r0, r0, sp, ror #5
    1dac:	0000022b 	andeq	r0, r0, fp, lsr #4
    1db0:	00202468 	eoreq	r2, r0, r8, ror #8
    1db4:	002024c0 	eoreq	r2, r0, r0, asr #9
    1db8:	3d215b01 	fstmdbxcc	r1!, {d5-d4}
    1dbc:	01000002 	tsteq	r0, r2
    1dc0:	02a92254 	adceq	r2, r9, #1073741829	; 0x40000005
    1dc4:	02480000 	subeq	r0, r8, #0	; 0x0
    1dc8:	18010000 	stmneda	r1, {}
    1dcc:	02b52200 	adceqs	r2, r5, #0	; 0x0
    1dd0:	025b0000 	subeqs	r0, fp, #0	; 0x0
    1dd4:	18010000 	stmneda	r1, {}
    1dd8:	02df1900 	sbceqs	r1, pc, #0	; 0x0
    1ddc:	013b0000 	teqeq	fp, r0
    1de0:	24a00000 	strcst	r0, [r0]
    1de4:	24ac0020 	strcst	r0, [ip], #32
    1de8:	4d120020 	ldcmi	0, cr0, [r2, #-128]
    1dec:	01000001 	tsteq	r0, r1
    1df0:	24a01a53 	strcst	r1, [r0], #2643
    1df4:	24ac0020 	strcst	r0, [ip], #32
    1df8:	4d120020 	ldcmi	0, cr0, [r2, #-128]
    1dfc:	01000001 	tsteq	r0, r1
    1e00:	1b000053 	blne	1f54 <.debug_info+0x1f54>
    1e04:	0000017b 	andeq	r0, r0, fp, ror r1
    1e08:	002024b0 	streqh	r2, [r0], -r0
    1e0c:	002024b4 	streqh	r2, [r0], -r4
    1e10:	036f1400 	cmneq	pc, #0	; 0x0
    1e14:	3a010000 	bcc	41e1c <.debug_info+0x41e1c>
    1e18:	01000007 	tsteq	r0, r7
    1e1c:	01590151 	cmpeq	r9, r1, asr r1
    1e20:	24c00000 	strcsb	r0, [r0]
    1e24:	25140020 	ldrcs	r0, [r4, #-32]
    1e28:	5b010020 	blpl	41eb0 <.debug_info+0x41eb0>
    1e2c:	00075816 	andeq	r5, r7, r6, lsl r8
    1e30:	e4520100 	ldrb	r0, [r2], #-256
    1e34:	01000000 	tsteq	r0, r0
    1e38:	03281754 	teqeq	r8, #22020096	; 0x1500000
    1e3c:	8f010000 	swihi	0x00010000
    1e40:	01000000 	tsteq	r0, r0
    1e44:	00015931 	andeq	r5, r1, r1, lsr r9
    1e48:	00180100 	andeqs	r0, r8, r0, lsl #2
    1e4c:	00033b17 	andeq	r3, r3, r7, lsl fp
    1e50:	00cf0100 	sbceq	r0, pc, r0, lsl #2
    1e54:	39010000 	stmccdb	r1, {}
    1e58:	00000159 	andeq	r0, r0, r9, asr r1
    1e5c:	1b001801 	blne	7e68 <.debug_info+0x7e68>
    1e60:	00000122 	andeq	r0, r0, r2, lsr #2
    1e64:	002024c4 	eoreq	r2, r0, r4, asr #9
    1e68:	002024c8 	eoreq	r2, r0, r8, asr #9
    1e6c:	00013b23 	andeq	r3, r1, r3, lsr #22
    1e70:	2024f000 	eorcs	pc, r4, r0
    1e74:	2024fc00 	eorcs	pc, r4, r0, lsl #24
    1e78:	014d1200 	cmpeq	sp, r0, lsl #4
    1e7c:	53010000 	tstpl	r1, #0	; 0x0
    1e80:	2024f01a 	eorcs	pc, r4, sl, lsl r0
    1e84:	2024fc00 	eorcs	pc, r4, r0, lsl #24
    1e88:	014d1200 	cmpeq	sp, r0, lsl #4
    1e8c:	53010000 	tstpl	r1, #0	; 0x0
    1e90:	0e000000 	cdpeq	0, 0, cr0, cr0, cr0, {0}
    1e94:	00000411 	andeq	r0, r0, r1, lsl r4
    1e98:	00077501 	andeq	r7, r7, r1, lsl #10
    1e9c:	01650100 	cmneq	r5, r0, lsl #2
    1ea0:	00000159 	andeq	r0, r0, r9, asr r1
    1ea4:	07f21c01 	ldreqb	r1, [r2, r1, lsl #24]!
    1ea8:	64010000 	strvs	r0, [r1]
    1eac:	0000004a 	andeq	r0, r0, sl, asr #32
    1eb0:	0007921c 	andeq	r9, r7, ip, lsl r2
    1eb4:	59640100 	stmpldb	r4!, {r8}^
    1eb8:	1c000001 	stcne	0, cr0, [r0], {1}
    1ebc:	00000753 	andeq	r0, r0, r3, asr r7
    1ec0:	04116401 	ldreq	r6, [r1], #-1025
    1ec4:	580f0000 	stmplda	pc, {}
    1ec8:	01000007 	tsteq	r0, r7
    1ecc:	0000e467 	andeq	lr, r0, r7, ror #8
    1ed0:	00692400 	rsbeq	r2, r9, r0, lsl #8
    1ed4:	004a6801 	subeq	r6, sl, r1, lsl #16
    1ed8:	8d0f0000 	stchi	0, cr0, [pc]
    1edc:	01000007 	tsteq	r0, r7
    1ee0:	00004a68 	andeq	r4, r0, r8, ror #20
    1ee4:	076e0f00 	streqb	r0, [lr, -r0, lsl #30]!
    1ee8:	68010000 	stmvsda	r1, {}
    1eec:	0000004a 	andeq	r0, r0, sl, asr #32
    1ef0:	0007cc0f 	andeq	ip, r7, pc, lsl #24
    1ef4:	17690100 	strneb	r0, [r9, -r0, lsl #2]!
    1ef8:	17000004 	strne	r0, [r0, -r4]
    1efc:	000003ea 	andeq	r0, r0, sl, ror #7
    1f00:	00008f01 	andeq	r8, r0, r1, lsl #30
    1f04:	59310100 	ldmpldb	r1!, {r8}
    1f08:	01000001 	tsteq	r0, r1
    1f0c:	fd170018 	ldc2	0, cr0, [r7, #-96]
    1f10:	01000003 	tsteq	r0, r3
    1f14:	000000cf 	andeq	r0, r0, pc, asr #1
    1f18:	01593901 	cmpeq	r9, r1, lsl #18
    1f1c:	18010000 	stmneda	r1, {}
    1f20:	040f1e00 	streq	r1, [pc], #3584	; 1f28 <.debug_info+0x1f28>
    1f24:	4d1f0000 	ldcmi	0, cr0, [pc]
    1f28:	20000001 	andcs	r0, r0, r1
    1f2c:	00014d1f 	andeq	r4, r1, pc, lsl sp
    1f30:	1d000000 	stcne	0, cr0, [r0]
    1f34:	4a040a00 	bmi	10473c <.debug_info+0x10473c>
    1f38:	0a000000 	beq	1f40 <.debug_info+0x1f40>
    1f3c:	00041d04 	andeq	r1, r4, r4, lsl #26
    1f40:	003a0400 	eoreqs	r0, sl, r0, lsl #8
    1f44:	b7110000 	ldrlt	r0, [r1, -r0]
    1f48:	6f000004 	swivs	0x00000004
    1f4c:	14000003 	strne	r0, [r0], #-3
    1f50:	bc002025 	stclt	0, cr2, [r0], {37}
    1f54:	01002025 	tsteq	r0, r5, lsr #32
    1f58:	0381215b 	orreq	r2, r1, #-1073741802	; 0xc0000016
    1f5c:	50010000 	andpl	r0, r1, r0
    1f60:	00038c21 	andeq	r8, r3, r1, lsr #24
    1f64:	215c0100 	cmpcs	ip, r0, lsl #2
    1f68:	00000397 	muleq	r0, r7, r3
    1f6c:	a2125e01 	andges	r5, r2, #16	; 0x10
    1f70:	01000003 	tsteq	r0, r3
    1f74:	03ad1255 	moveq	r1, #1342177285	; 0x50000005
    1f78:	51010000 	tstpl	r1, r0
    1f7c:	0003b612 	andeq	fp, r3, r2, lsl r6
    1f80:	1f540100 	swine	0x00540100
    1f84:	000003c1 	andeq	r0, r0, r1, asr #7
    1f88:	0003cc12 	andeq	ip, r3, r2, lsl ip
    1f8c:	22500100 	subcss	r0, r0, #0	; 0x0
    1f90:	00000477 	andeq	r0, r0, r7, ror r4
    1f94:	000003d7 	ldreqd	r0, [r0], -r7
    1f98:	22001801 	andcs	r1, r0, #65536	; 0x10000
    1f9c:	00000483 	andeq	r0, r0, r3, lsl #9
    1fa0:	000003ea 	andeq	r0, r0, sl, ror #7
    1fa4:	1b001801 	blne	7fb0 <.debug_info+0x7fb0>
    1fa8:	00000122 	andeq	r0, r0, r2, lsr #2
    1fac:	0020251c 	eoreq	r2, r0, ip, lsl r5
    1fb0:	00202524 	eoreq	r2, r0, r4, lsr #10
    1fb4:	00013b23 	andeq	r3, r1, r3, lsr #22
    1fb8:	20259c00 	eorcs	r9, r5, r0, lsl #24
    1fbc:	2025a800 	eorcs	sl, r5, r0, lsl #16
    1fc0:	014d1200 	cmpeq	sp, r0, lsl #4
    1fc4:	54010000 	strpl	r0, [r1]
    1fc8:	20259c1a 	eorcs	r9, r5, sl, lsl ip
    1fcc:	2025a800 	eorcs	sl, r5, r0, lsl #16
    1fd0:	014d1200 	cmpeq	sp, r0, lsl #4
    1fd4:	54010000 	strpl	r0, [r1]
    1fd8:	25000000 	strcs	r0, [r0]
    1fdc:	0000050e 	andeq	r0, r0, lr, lsl #10
    1fe0:	00071d01 	andeq	r1, r7, r1, lsl #26
    1fe4:	01890100 	orreq	r0, r9, r0, lsl #2
    1fe8:	002025bc 	streqh	r2, [r0], -ip
    1fec:	002025d8 	ldreqd	r2, [r0], -r8
    1ff0:	f2155d01 	andnvs	r5, r5, #64	; 0x40
    1ff4:	01000007 	tsteq	r0, r7
    1ff8:	00004a88 	andeq	r4, r0, r8, lsl #21
    1ffc:	15500100 	ldrneb	r0, [r0, #-256]
    2000:	00000792 	muleq	r0, r2, r7
    2004:	01598801 	cmpeq	r9, r1, lsl #16
    2008:	51010000 	tstpl	r1, r0
    200c:	00075315 	andeq	r5, r7, r5, lsl r3
    2010:	11880100 	orrne	r0, r8, r0, lsl #2
    2014:	01000004 	tsteq	r0, r4
    2018:	00692652 	rsbeq	r2, r9, r2, asr r6
    201c:	004a8a01 	subeq	r8, sl, r1, lsl #20
    2020:	51010000 	tstpl	r1, r0
    2024:	0007cc16 	andeq	ip, r7, r6, lsl ip
    2028:	0e8b0100 	rmfeqe	f0, f3, f0
    202c:	01000005 	tsteq	r0, r5
    2030:	040a0050 	streq	r0, [sl], #-80
    2034:	0000003a 	andeq	r0, r0, sl, lsr r0
    2038:	00055514 	andeq	r5, r5, r4, lsl r5
    203c:	07a70100 	streq	r0, [r7, r0, lsl #2]!
    2040:	95010000 	strls	r0, [r1]
    2044:	00015901 	andeq	r5, r1, r1, lsl #18
    2048:	2025d800 	eorcs	sp, r5, r0, lsl #16
    204c:	20261000 	eorcs	r1, r6, r0
    2050:	155d0100 	ldrneb	r0, [sp, #-256]
    2054:	0000075d 	andeq	r0, r0, sp, asr r7
    2058:	04119401 	ldreq	r9, [r1], #-1025
    205c:	50010000 	andpl	r0, r1, r0
    2060:	00079215 	andeq	r9, r7, r5, lsl r2
    2064:	4a940100 	bmi	fe50246c <_ram_end+0xfe2fd960>
    2068:	01000000 	tsteq	r0, r0
    206c:	00692651 	rsbeq	r2, r9, r1, asr r6
    2070:	004a9601 	subeq	r9, sl, r1, lsl #12
    2074:	52010000 	andpl	r0, r1, #0	; 0x0
    2078:	e2012700 	and	r2, r1, #0	; 0x0
    207c:	01000007 	tsteq	r0, r7
    2080:	015901a1 	cmpeq	r9, r1, lsr #3
    2084:	26100000 	ldrcs	r0, [r0], -r0
    2088:	27440020 	strcsb	r0, [r4, -r0, lsr #32]
    208c:	5b010020 	blpl	42114 <.debug_info+0x42114>
    2090:	0007f215 	andeq	pc, r7, r5, lsl r2
    2094:	4aa00100 	bmi	fe80249c <_ram_end+0xfe5fd990>
    2098:	01000000 	tsteq	r0, r0
    209c:	07921550 	undefined
    20a0:	a0010000 	andge	r0, r1, r0
    20a4:	00000159 	andeq	r0, r0, r9, asr r1
    20a8:	53155701 	tstpl	r5, #262144	; 0x40000
    20ac:	01000007 	tsteq	r0, r7
    20b0:	000411a0 	andeq	r1, r4, r0, lsr #3
    20b4:	16520100 	ldrneb	r0, [r2], -r0, lsl #2
    20b8:	00000728 	andeq	r0, r0, r8, lsr #14
    20bc:	0159a301 	cmpeq	r9, r1, lsl #6
    20c0:	56010000 	strpl	r0, [r1], -r0
    20c4:	00076e16 	andeq	r6, r7, r6, lsl lr
    20c8:	59a30100 	stmplib	r3!, {r8}
    20cc:	01000001 	tsteq	r0, r1
    20d0:	07dd1650 	undefined
    20d4:	a4010000 	strge	r0, [r1]
    20d8:	0000004a 	andeq	r0, r0, sl, asr #32
    20dc:	8d165801 	ldchi	8, cr5, [r6, #-4]
    20e0:	01000007 	tsteq	r0, r7
    20e4:	00004aa4 	andeq	r4, r0, r4, lsr #21
    20e8:	26540100 	ldrcsb	r0, [r4], -r0, lsl #2
    20ec:	00637273 	rsbeq	r7, r3, r3, ror r2
    20f0:	0411a501 	ldreq	sl, [r1], #-1281
    20f4:	59010000 	stmpldb	r1, {}
    20f8:	0005eb19 	andeq	lr, r5, r9, lsl fp
    20fc:	00022b00 	andeq	r2, r2, r0, lsl #22
    2100:	20263c00 	eorcs	r3, r6, r0, lsl #24
    2104:	20266000 	eorcs	r6, r6, r0
    2108:	02962800 	addeqs	r2, r6, #0	; 0x0
    210c:	19000000 	stmnedb	r0, {}
    2110:	00000615 	andeq	r0, r0, r5, lsl r6
    2114:	0000013b 	andeq	r0, r0, fp, lsr r1
    2118:	00202670 	eoreq	r2, r0, r0, ror r6
    211c:	00202680 	eoreq	r2, r0, r0, lsl #13
    2120:	00014d12 	andeq	r4, r1, r2, lsl sp
    2124:	1a530100 	bne	14c252c <_ram_end+0x12bda20>
    2128:	00202670 	eoreq	r2, r0, r0, ror r6
    212c:	00202680 	eoreq	r2, r0, r0, lsl #13
    2130:	00014d12 	andeq	r4, r1, r2, lsl sp
    2134:	00530100 	subeqs	r0, r3, r0, lsl #2
    2138:	066e1900 	streqbt	r1, [lr], -r0, lsl #18
    213c:	036f0000 	cmneq	pc, #0	; 0x0
    2140:	26840000 	strcs	r0, [r4], r0
    2144:	26900020 	ldrcs	r0, [r0], r0, lsr #32
    2148:	35280020 	strcc	r0, [r8, #-32]!
    214c:	21000004 	tstcs	r0, r4
    2150:	0000043c 	andeq	r0, r0, ip, lsr r4
    2154:	43215101 	teqmi	r1, #1073741824	; 0x40000000
    2158:	01000004 	tsteq	r0, r4
    215c:	0210295e 	andeqs	r2, r0, #1540096	; 0x178000
    2160:	a2120000 	andges	r0, r2, #0	; 0x0
    2164:	01000003 	tsteq	r0, r3
    2168:	03ad1252 	moveq	r1, #536870917	; 0x20000005
    216c:	50010000 	andpl	r0, r1, r0
    2170:	0003b612 	andeq	fp, r3, r2, lsl r6
    2174:	1f540100 	swine	0x00540100
    2178:	000003c1 	andeq	r0, r0, r1, asr #7
    217c:	0003cc12 	andeq	ip, r3, r2, lsl ip
    2180:	1b5c0100 	blne	1702588 <_ram_end+0x14fda7c>
    2184:	00000122 	andeq	r0, r0, r2, lsr #2
    2188:	00202684 	eoreq	r2, r0, r4, lsl #13
    218c:	0020268c 	eoreq	r2, r0, ip, lsl #13
    2190:	7b1b0000 	blvc	6c2198 <_ram_end+0x4bd68c>
    2194:	90000001 	andls	r0, r0, r1
    2198:	94002026 	strls	r2, [r0], #-38
    219c:	23002026 	tstcs	r0, #38	; 0x26
    21a0:	0000013b 	andeq	r0, r0, fp, lsr r1
    21a4:	00202704 	eoreq	r2, r0, r4, lsl #14
    21a8:	00202710 	eoreq	r2, r0, r0, lsl r7
    21ac:	00014d12 	andeq	r4, r1, r2, lsl sp
    21b0:	1a540100 	bne	15025b8 <_ram_end+0x12fdaac>
    21b4:	00202704 	eoreq	r2, r0, r4, lsl #14
    21b8:	00202710 	eoreq	r2, r0, r0, lsl r7
    21bc:	00014d12 	andeq	r4, r1, r2, lsl sp
    21c0:	00540100 	subeqs	r0, r4, r0, lsl #2
    21c4:	b9000000 	stmltdb	r0, {}
    21c8:	02000008 	andeq	r0, r0, #8	; 0x8
    21cc:	00094e00 	andeq	r4, r9, r0, lsl #28
    21d0:	e7010400 	str	r0, [r1, -r0, lsl #8]
    21d4:	e4000007 	str	r0, [r0], #-7
    21d8:	4400202a 	strmi	r2, [r0], #-42
    21dc:	69002027 	stmvsdb	r0, {r0, r1, r2, r5, sp}
    21e0:	01000000 	tsteq	r0, r0
    21e4:	00000862 	andeq	r0, r0, r2, ror #16
    21e8:	0000012d 	andeq	r0, r0, sp, lsr #2
    21ec:	00011f02 	andeq	r1, r1, r2, lsl #30
    21f0:	03080100 	tsteq	r8, #0	; 0x0
    21f4:	00000829 	andeq	r0, r0, r9, lsr #16
    21f8:	00370b06 	eoreqs	r0, r7, r6, lsl #22
    21fc:	75020000 	strvc	r0, [r2]
    2200:	02000001 	andeq	r0, r0, #1	; 0x1
    2204:	010d0207 	tsteq	sp, r7, lsl #4
    2208:	07040000 	streq	r0, [r4, -r0]
    220c:	32337504 	eorccs	r7, r3, #16777216	; 0x1000000
    2210:	3e130600 	cfmsub32cc	mvax0, mvfx0, mvfx3, mvfx0
    2214:	05000000 	streq	r0, [r0]
    2218:	00000055 	andeq	r0, r0, r5, asr r0
    221c:	00011202 	andeq	r1, r1, r2, lsl #4
    2220:	02070400 	andeq	r0, r7, #0	; 0x0
    2224:	0000010d 	andeq	r0, r0, sp, lsl #2
    2228:	73060704 	tstvc	r6, #1048576	; 0x100000
    222c:	50000000 	andpl	r0, r0, r0
    2230:	07000000 	streq	r0, [r0, -r0]
    2234:	0000005c 	andeq	r0, r0, ip, asr r0
    2238:	83060000 	tsthi	r6, #0	; 0x0
    223c:	50000000 	andpl	r0, r0, r0
    2240:	07000000 	streq	r0, [r0, -r0]
    2244:	0000005c 	andeq	r0, r0, ip, asr r0
    2248:	93060008 	tstls	r6, #8	; 0x8
    224c:	50000000 	andpl	r0, r0, r0
    2250:	07000000 	streq	r0, [r0, -r0]
    2254:	0000005c 	andeq	r0, r0, ip, asr r0
    2258:	a3060002 	tstge	r6, #2	; 0x2
    225c:	50000000 	andpl	r0, r0, r0
    2260:	07000000 	streq	r0, [r0, -r0]
    2264:	0000005c 	andeq	r0, r0, ip, asr r0
    2268:	c1080004 	tstgt	r8, r4
    226c:	84000002 	strhi	r0, [r0], #-2
    2270:	ac000006 	stcge	0, cr0, [r0], {6}
    2274:	09013804 	stmeqdb	r1, {r2, fp, ip, sp}
    2278:	00000651 	andeq	r0, r0, r1, asr r6
    227c:	50013904 	andpl	r3, r1, r4, lsl #18
    2280:	02000000 	andeq	r0, r0, #0	; 0x0
    2284:	3c090023 	stccc	0, cr0, [r9], {35}
    2288:	04000006 	streq	r0, [r0], #-6
    228c:	0050013a 	subeqs	r0, r0, sl, lsr r1
    2290:	23020000 	tstcs	r2, #0	; 0x0
    2294:	06210904 	streqt	r0, [r1], -r4, lsl #18
    2298:	3b040000 	blcc	1022a0 <.debug_info+0x1022a0>
    229c:	00005001 	andeq	r5, r0, r1
    22a0:	08230200 	stmeqda	r3!, {r9}
    22a4:	0000a209 	andeq	sl, r0, r9, lsl #4
    22a8:	013c0400 	teqeq	ip, r0, lsl #8
    22ac:	000002c1 	andeq	r0, r0, r1, asr #5
    22b0:	090c2302 	stmeqdb	ip, {r1, r8, r9, sp}
    22b4:	000004c1 	andeq	r0, r0, r1, asr #9
    22b8:	50013d04 	andpl	r3, r1, r4, lsl #26
    22bc:	02000000 	andeq	r0, r0, #0	; 0x0
    22c0:	a8091023 	stmgeda	r9, {r0, r1, r5, ip}
    22c4:	04000004 	streq	r0, [r0], #-4
    22c8:	0050013e 	subeqs	r0, r0, lr, lsr r1
    22cc:	23020000 	tstcs	r2, #0	; 0x0
    22d0:	04950914 	ldreq	r0, [r5], #2324
    22d4:	3f040000 	swicc	0x00040000
    22d8:	00005001 	andeq	r5, r0, r1
    22dc:	18230200 	stmneda	r3!, {r9}
    22e0:	0000ac09 	andeq	sl, r0, r9, lsl #24
    22e4:	01400400 	cmpeq	r0, r0, lsl #8
    22e8:	000002c6 	andeq	r0, r0, r6, asr #5
    22ec:	091c2302 	ldmeqdb	ip, {r1, r8, r9, sp}
    22f0:	000004b8 	streqh	r0, [r0], -r8
    22f4:	50014104 	andpl	r4, r1, r4, lsl #2
    22f8:	02000000 	andeq	r0, r0, #0	; 0x0
    22fc:	8c092023 	stchi	0, cr2, [r9], {35}
    2300:	04000004 	streq	r0, [r0], #-4
    2304:	00500142 	subeqs	r0, r0, r2, asr #2
    2308:	23020000 	tstcs	r2, #0	; 0x0
    230c:	046f0924 	streqbt	r0, [pc], #2340	; 2314 <.debug_info+0x2314>
    2310:	43040000 	tstmi	r4, #0	; 0x0
    2314:	00005001 	andeq	r5, r0, r1
    2318:	28230200 	stmcsda	r3!, {r9}
    231c:	0000b609 	andeq	fp, r0, r9, lsl #12
    2320:	01440400 	cmpeq	r4, r0, lsl #8
    2324:	000002cb 	andeq	r0, r0, fp, asr #5
    2328:	092c2302 	stmeqdb	ip!, {r1, r8, r9, sp}
    232c:	000005ea 	andeq	r0, r0, sl, ror #11
    2330:	50014504 	andpl	r4, r1, r4, lsl #10
    2334:	02000000 	andeq	r0, r0, #0	; 0x0
    2338:	dc093023 	stcle	0, cr3, [r9], {35}
    233c:	04000004 	streq	r0, [r0], #-4
    2340:	00500146 	subeqs	r0, r0, r6, asr #2
    2344:	23020000 	tstcs	r2, #0	; 0x0
    2348:	03960934 	orreqs	r0, r6, #851968	; 0xd0000
    234c:	47040000 	strmi	r0, [r4, -r0]
    2350:	00005001 	andeq	r5, r0, r1
    2354:	38230200 	stmccda	r3!, {r9}
    2358:	00057a09 	andeq	r7, r5, r9, lsl #20
    235c:	01480400 	cmpeq	r8, r0, lsl #8
    2360:	00000050 	andeq	r0, r0, r0, asr r0
    2364:	093c2302 	ldmeqdb	ip!, {r1, r8, r9, sp}
    2368:	000003c0 	andeq	r0, r0, r0, asr #7
    236c:	50014904 	andpl	r4, r1, r4, lsl #18
    2370:	02000000 	andeq	r0, r0, #0	; 0x0
    2374:	8e094023 	cdphi	0, 0, cr4, cr9, cr3, {1}
    2378:	04000003 	streq	r0, [r0], #-3
    237c:	0050014a 	subeqs	r0, r0, sl, asr #2
    2380:	23020000 	tstcs	r2, #0	; 0x0
    2384:	05830944 	streq	r0, [r3, #2372]
    2388:	4b040000 	blmi	102390 <.debug_info+0x102390>
    238c:	00005001 	andeq	r5, r0, r1
    2390:	48230200 	stmmida	r3!, {r9}
    2394:	00037809 	andeq	r7, r3, r9, lsl #16
    2398:	014c0400 	cmpeq	ip, r0, lsl #8
    239c:	00000050 	andeq	r0, r0, r0, asr r0
    23a0:	094c2302 	stmeqdb	ip, {r1, r8, r9, sp}^
    23a4:	0000067b 	andeq	r0, r0, fp, ror r6
    23a8:	50014d04 	andpl	r4, r1, r4, lsl #26
    23ac:	02000000 	andeq	r0, r0, #0	; 0x0
    23b0:	6d095023 	stcvs	0, cr5, [r9, #-140]
    23b4:	04000006 	streq	r0, [r0], #-6
    23b8:	0050014e 	subeqs	r0, r0, lr, asr #2
    23bc:	23020000 	tstcs	r2, #0	; 0x0
    23c0:	06590954 	undefined
    23c4:	4f040000 	swimi	0x00040000
    23c8:	00005001 	andeq	r5, r0, r1
    23cc:	58230200 	stmplda	r3!, {r9}
    23d0:	0000c009 	andeq	ip, r0, r9
    23d4:	01500400 	cmpeq	r0, r0, lsl #8
    23d8:	000002d0 	ldreqd	r0, [r0], -r0
    23dc:	095c2302 	ldmeqdb	ip, {r1, r8, r9, sp}^
    23e0:	00000530 	andeq	r0, r0, r0, lsr r5
    23e4:	50015104 	andpl	r5, r1, r4, lsl #2
    23e8:	02000000 	andeq	r0, r0, #0	; 0x0
    23ec:	94096023 	strls	r6, [r9], #-35
    23f0:	04000005 	streq	r0, [r0], #-5
    23f4:	00500152 	subeqs	r0, r0, r2, asr r1
    23f8:	23020000 	tstcs	r2, #0	; 0x0
    23fc:	051d0964 	ldreq	r0, [sp, #-2404]
    2400:	53040000 	tstpl	r4, #0	; 0x0
    2404:	00005001 	andeq	r5, r0, r1
    2408:	68230200 	stmvsda	r3!, {r9}
    240c:	0000fb09 	andeq	pc, r0, r9, lsl #22
    2410:	01540400 	cmpeq	r4, r0, lsl #8
    2414:	000002d5 	ldreqd	r0, [r0], -r5
    2418:	096c2302 	stmeqdb	ip!, {r1, r8, r9, sp}^
    241c:	00000649 	andeq	r0, r0, r9, asr #12
    2420:	50015504 	andpl	r5, r1, r4, lsl #10
    2424:	02000000 	andeq	r0, r0, #0	; 0x0
    2428:	21097023 	tstcs	r9, r3, lsr #32
    242c:	04000004 	streq	r0, [r0], #-4
    2430:	00500156 	subeqs	r0, r0, r6, asr r1
    2434:	23020000 	tstcs	r2, #0	; 0x0
    2438:	04000974 	streq	r0, [r0], #-2420
    243c:	57040000 	strpl	r0, [r4, -r0]
    2440:	00005001 	andeq	r5, r0, r1
    2444:	78230200 	stmvcda	r3!, {r9}
    2448:	00051309 	andeq	r1, r5, r9, lsl #6
    244c:	01580400 	cmpeq	r8, r0, lsl #8
    2450:	000002da 	ldreqd	r0, [r0], -sl
    2454:	097c2302 	ldmeqdb	ip!, {r1, r8, r9, sp}^
    2458:	000005a5 	andeq	r0, r0, r5, lsr #11
    245c:	50015904 	andpl	r5, r1, r4, lsl #18
    2460:	03000000 	tsteq	r0, #0	; 0x0
    2464:	0901a023 	stmeqdb	r1, {r0, r1, r5, sp, pc}
    2468:	0000054a 	andeq	r0, r0, sl, asr #10
    246c:	50015a04 	andpl	r5, r1, r4, lsl #20
    2470:	03000000 	tsteq	r0, #0	; 0x0
    2474:	0901a423 	stmeqdb	r1, {r0, r1, r5, sl, sp, pc}
    2478:	00000527 	andeq	r0, r0, r7, lsr #10
    247c:	50015b04 	andpl	r5, r1, r4, lsl #22
    2480:	03000000 	tsteq	r0, #0	; 0x0
    2484:	0001a823 	andeq	sl, r1, r3, lsr #16
    2488:	00006305 	andeq	r6, r0, r5, lsl #6
    248c:	00630500 	rsbeq	r0, r3, r0, lsl #10
    2490:	63050000 	tstvs	r5, #0	; 0x0
    2494:	05000000 	streq	r0, [r0]
    2498:	00000063 	andeq	r0, r0, r3, rrx
    249c:	00006305 	andeq	r6, r0, r5, lsl #6
    24a0:	00730500 	rsbeqs	r0, r3, r0, lsl #10
    24a4:	310a0000 	tstcc	sl, r0
    24a8:	04000006 	streq	r0, [r0], #-6
    24ac:	02eb015c 	rsceq	r0, fp, #23	; 0x17
    24b0:	040b0000 	streq	r0, [fp]
    24b4:	000000a3 	andeq	r0, r0, r3, lsr #1
    24b8:	00042b08 	andeq	r2, r4, r8, lsl #22
    24bc:	00001200 	andeq	r1, r0, r0, lsl #4
    24c0:	83047000 	tsthi	r4, #0	; 0x0
    24c4:	01880901 	orreq	r0, r8, r1, lsl #18
    24c8:	84040000 	strhi	r0, [r4]
    24cc:	00005001 	andeq	r5, r0, r1
    24d0:	00230200 	eoreq	r0, r3, r0, lsl #4
    24d4:	00016609 	andeq	r6, r1, r9, lsl #12
    24d8:	01850400 	orreq	r0, r5, r0, lsl #8
    24dc:	00000050 	andeq	r0, r0, r0, asr r0
    24e0:	09042302 	stmeqdb	r4, {r1, r8, r9, sp}
    24e4:	00000154 	andeq	r0, r0, r4, asr r1
    24e8:	50018604 	andpl	r8, r1, r4, lsl #12
    24ec:	02000000 	andeq	r0, r0, #0	; 0x0
    24f0:	a2090823 	andge	r0, r9, #2293760	; 0x230000
    24f4:	04000000 	streq	r0, [r0]
    24f8:	042b0187 	streqt	r0, [fp], #-391
    24fc:	23020000 	tstcs	r2, #0	; 0x0
    2500:	002f090c 	eoreq	r0, pc, ip, lsl #18
    2504:	88040000 	stmhida	r4, {}
    2508:	00005001 	andeq	r5, r0, r1
    250c:	10230200 	eorne	r0, r3, r0, lsl #4
    2510:	00002609 	andeq	r2, r0, r9, lsl #12
    2514:	01890400 	orreq	r0, r9, r0, lsl #8
    2518:	00000050 	andeq	r0, r0, r0, asr r0
    251c:	09142302 	ldmeqdb	r4, {r1, r8, r9, sp}
    2520:	0000001d 	andeq	r0, r0, sp, lsl r0
    2524:	50018a04 	andpl	r8, r1, r4, lsl #20
    2528:	02000000 	andeq	r0, r0, #0	; 0x0
    252c:	ac091823 	stcge	8, cr1, [r9], {35}
    2530:	04000000 	streq	r0, [r0]
    2534:	0430018b 	ldreqt	r0, [r0], #-395
    2538:	23020000 	tstcs	r2, #0	; 0x0
    253c:	01a4091c 	moveq	r0, ip, lsl r9
    2540:	8c040000 	stchi	0, cr0, [r4], {0}
    2544:	00005001 	andeq	r5, r0, r1
    2548:	20230200 	eorcs	r0, r3, r0, lsl #4
    254c:	00003809 	andeq	r3, r0, r9, lsl #16
    2550:	018d0400 	orreq	r0, sp, r0, lsl #8
    2554:	00000050 	andeq	r0, r0, r0, asr r0
    2558:	09242302 	stmeqdb	r4!, {r1, r8, r9, sp}
    255c:	000000b6 	streqh	r0, [r0], -r6
    2560:	35018e04 	strcc	r8, [r1, #-3588]
    2564:	02000004 	andeq	r0, r0, #4	; 0x4
    2568:	7d092823 	stcvc	8, cr2, [r9, #-140]
    256c:	04000000 	streq	r0, [r0]
    2570:	0050018f 	subeqs	r0, r0, pc, lsl #3
    2574:	23020000 	tstcs	r2, #0	; 0x0
    2578:	015d092c 	cmpeq	sp, ip, lsr #18
    257c:	90040000 	andls	r0, r4, r0
    2580:	00005001 	andeq	r5, r0, r1
    2584:	30230200 	eorcc	r0, r3, r0, lsl #4
    2588:	0000c009 	andeq	ip, r0, r9
    258c:	01910400 	orreqs	r0, r1, r0, lsl #8
    2590:	0000043a 	andeq	r0, r0, sl, lsr r4
    2594:	09342302 	ldmeqdb	r4!, {r1, r8, r9, sp}
    2598:	000000e1 	andeq	r0, r0, r1, ror #1
    259c:	3f019204 	swicc	0x00019204
    25a0:	02000004 	andeq	r0, r0, #4	; 0x4
    25a4:	fb094023 	blx	25263a <_ram_end+0x4db2e>
    25a8:	04000000 	streq	r0, [r0]
    25ac:	04440193 	streqb	r0, [r4], #-403
    25b0:	23020000 	tstcs	r2, #0	; 0x0
    25b4:	0075094c 	rsbeqs	r0, r5, ip, asr #18
    25b8:	94040000 	strls	r0, [r4]
    25bc:	00005001 	andeq	r5, r0, r1
    25c0:	60230200 	eorvs	r0, r3, r0, lsl #4
    25c4:	00010509 	andeq	r0, r1, r9, lsl #10
    25c8:	01950400 	orreqs	r0, r5, r0, lsl #8
    25cc:	00000050 	andeq	r0, r0, r0, asr r0
    25d0:	09642302 	stmeqdb	r4!, {r1, r8, r9, sp}^
    25d4:	00000191 	muleq	r0, r1, r1
    25d8:	50019604 	andpl	r9, r1, r4, lsl #12
    25dc:	02000000 	andeq	r0, r0, #0	; 0x0
    25e0:	0a096823 	beq	25c674 <_ram_end+0x57b68>
    25e4:	04000000 	streq	r0, [r0]
    25e8:	00500197 	ldreqb	r0, [r0], #-23
    25ec:	23020000 	tstcs	r2, #0	; 0x0
    25f0:	6305006c 	tstvs	r5, #108	; 0x6c
    25f4:	05000000 	streq	r0, [r0]
    25f8:	00000063 	andeq	r0, r0, r3, rrx
    25fc:	00006305 	andeq	r6, r0, r5, lsl #6
    2600:	00830500 	addeq	r0, r3, r0, lsl #10
    2604:	83050000 	tsthi	r5, #0	; 0x0
    2608:	05000000 	streq	r0, [r0]
    260c:	00000093 	muleq	r0, r3, r0
    2610:	0000560a 	andeq	r5, r0, sl, lsl #12
    2614:	01980400 	orreqs	r0, r8, r0, lsl #8
    2618:	00000455 	andeq	r0, r0, r5, asr r4
    261c:	02f1040b 	rsceqs	r0, r1, #184549376	; 0xb000000
    2620:	730c0000 	tstvc	ip, #0	; 0x0
    2624:	01000004 	tsteq	r0, r4
    2628:	00000821 	andeq	r0, r0, r1, lsr #16
    262c:	01010c01 	tsteq	r1, r1, lsl #24
    2630:	0100690d 	tsteq	r0, sp, lsl #18
    2634:	0004730d 	andeq	r7, r4, sp, lsl #6
    2638:	78050000 	stmvcda	r5, {}
    263c:	0e000004 	cdpeq	0, 0, cr0, cr0, cr4, {0}
    2640:	00746e69 	rsbeqs	r6, r4, r9, ror #28
    2644:	9b0f0504 	blls	3c3a5c <_ram_end+0x1bef50>
    2648:	5b000004 	blpl	2660 <.debug_info+0x2660>
    264c:	44000004 	strmi	r0, [r0], #-4
    2650:	70002027 	andvc	r2, r0, r7, lsr #32
    2654:	01002027 	tsteq	r0, r7, lsr #32
    2658:	0469105d 	streqbt	r1, [r9], #-93
    265c:	91020000 	tstls	r2, r0
    2660:	cc0c0000 	stcgt	0, cr0, [ip], {0}
    2664:	01000004 	tsteq	r0, r4
    2668:	00000831 	andeq	r0, r0, r1, lsr r8
    266c:	01010c02 	tsteq	r1, r2, lsl #24
    2670:	00066811 	andeq	r6, r6, r1, lsl r8
    2674:	df0d0200 	swile	0x000d0200
    2678:	0d000002 	stceq	0, cr0, [r0, #-8]
    267c:	0e020069 	cdpeq	0, 0, cr0, cr2, cr9, {3}
    2680:	00000478 	andeq	r0, r0, r8, ror r4
    2684:	04691312 	streqbt	r1, [r9], #-786
    2688:	13120000 	tstne	r2, #0	; 0x0
    268c:	00000469 	andeq	r0, r0, r9, ror #8
    2690:	0f000000 	swieq	0x00000000
    2694:	00000510 	andeq	r0, r0, r0, lsl r5
    2698:	0000049b 	muleq	r0, fp, r4
    269c:	00202770 	eoreq	r2, r0, r0, ror r7
    26a0:	002027c0 	eoreq	r2, r0, r0, asr #15
    26a4:	a9105d01 	ldmgedb	r0, {r0, r8, sl, fp, ip, lr}
    26a8:	01000004 	tsteq	r0, r4
    26ac:	04b41351 	ldreqt	r1, [r4], #849
    26b0:	5b140000 	blpl	5026b8 <_ram_end+0x2fdbac>
    26b4:	80000004 	andhi	r0, r0, r4
    26b8:	84002027 	strhi	r2, [r0], #-39
    26bc:	10002027 	andne	r2, r0, r7, lsr #32
    26c0:	00000469 	andeq	r0, r0, r9, ror #8
    26c4:	15009102 	strne	r9, [r0, #-258]
    26c8:	00000238 	andeq	r0, r0, r8, lsr r2
    26cc:	00046910 	andeq	r6, r4, r0, lsl r9
    26d0:	00910200 	addeqs	r0, r1, r0, lsl #4
    26d4:	0c000000 	stceq	0, cr0, [r0], {0}
    26d8:	00000599 	muleq	r0, r9, r5
    26dc:	00085801 	andeq	r5, r8, r1, lsl #16
    26e0:	011a0200 	tsteq	sl, r0, lsl #4
    26e4:	06681101 	streqbt	r1, [r8], -r1, lsl #2
    26e8:	1b020000 	blne	826f0 <.debug_info+0x826f0>
    26ec:	000002df 	ldreqd	r0, [r0], -pc
    26f0:	0000ca11 	andeq	ip, r0, r1, lsl sl
    26f4:	491c0200 	ldmmidb	ip, {r9}
    26f8:	0d000004 	stceq	0, cr0, [r0, #-16]
    26fc:	00737562 	rsbeqs	r7, r3, r2, ror #10
    2700:	04781d02 	ldreqbt	r1, [r8], #-3330
    2704:	e3110000 	tst	r1, #0	; 0x0
    2708:	02000006 	andeq	r0, r0, #6	; 0x6
    270c:	0004781d 	andeq	r7, r4, sp, lsl r8
    2710:	087b1100 	ldmeqda	fp!, {r8, ip}^
    2714:	1d020000 	stcne	0, cr0, [r2]
    2718:	00000478 	andeq	r0, r0, r8, ror r4
    271c:	00080f11 	andeq	r0, r8, r1, lsl pc
    2720:	781d0200 	ldmvcda	sp, {r9}
    2724:	16000004 	strne	r0, [r0], -r4
    2728:	0000058a 	andeq	r0, r0, sl, lsl #11
    272c:	0004a913 	andeq	sl, r4, r3, lsl r9
    2730:	04b41300 	ldreqt	r1, [r4], #768
    2734:	13120000 	tstne	r2, #0	; 0x0
    2738:	000004a9 	andeq	r0, r0, r9, lsr #9
    273c:	0004b413 	andeq	fp, r4, r3, lsl r4
    2740:	69131200 	ldmvsdb	r3, {r9, ip}
    2744:	12000004 	andne	r0, r0, #4	; 0x4
    2748:	00046913 	andeq	r6, r4, r3, lsl r9
    274c:	00000000 	andeq	r0, r0, r0
    2750:	69131200 	ldmvsdb	r3, {r9, ip}
    2754:	12000004 	andne	r0, r0, #4	; 0x4
    2758:	00046913 	andeq	r6, r4, r3, lsl r9
    275c:	00000000 	andeq	r0, r0, r0
    2760:	00064f0f 	andeq	r4, r6, pc, lsl #30
    2764:	00051000 	andeq	r1, r5, r0
    2768:	2027c000 	eorcs	ip, r7, r0
    276c:	2028cc00 	eorcs	ip, r8, r0, lsl #24
    2770:	105d0100 	subnes	r0, sp, r0, lsl #2
    2774:	0000051e 	andeq	r0, r0, lr, lsl r5
    2778:	29105e01 	ldmcsdb	r0, {r0, r9, sl, fp, ip, lr}
    277c:	01000005 	tsteq	r0, r5
    2780:	0534135c 	ldreq	r1, [r4, #-860]!
    2784:	3f130000 	swicc	0x00130000
    2788:	10000005 	andne	r0, r0, r5
    278c:	0000054a 	andeq	r0, r0, sl, asr #10
    2790:	55105301 	ldrpl	r5, [r0, #-769]
    2794:	01000005 	tsteq	r0, r5
    2798:	05fa1752 	ldreqb	r1, [sl, #1874]!
    279c:	045b0000 	ldreqb	r0, [fp]
    27a0:	27e00000 	strcsb	r0, [r0, r0]!
    27a4:	27e40020 	strcsb	r0, [r4, r0, lsr #32]!
    27a8:	69100020 	ldmvsdb	r0, {r5}
    27ac:	02000004 	andeq	r0, r0, #4	; 0x4
    27b0:	58150091 	ldmplda	r5, {r0, r4, r7}
    27b4:	10000002 	andne	r0, r0, r2
    27b8:	00000469 	andeq	r0, r0, r9, ror #8
    27bc:	00009102 	andeq	r9, r0, r2, lsl #2
    27c0:	062a1700 	streqt	r1, [sl], -r0, lsl #14
    27c4:	049b0000 	ldreq	r0, [fp]
    27c8:	28400000 	stmcsda	r0, {}^
    27cc:	28440020 	stmcsda	r4, {r5}^
    27d0:	a9100020 	ldmgedb	r0, {r5}
    27d4:	01000004 	tsteq	r0, r4
    27d8:	04b41354 	ldreqt	r1, [r4], #852
    27dc:	80150000 	andhis	r0, r5, r0
    27e0:	10000002 	andne	r0, r0, r2
    27e4:	000004a9 	andeq	r0, r0, r9, lsr #9
    27e8:	b4135401 	ldrlt	r5, [r3], #-1025
    27ec:	00000004 	andeq	r0, r0, r4
    27f0:	045b1400 	ldreqb	r1, [fp], #-1024
    27f4:	28540000 	ldmcsda	r4, {}^
    27f8:	28580020 	ldmcsda	r8, {r5}^
    27fc:	69100020 	ldmvsdb	r0, {r5}
    2800:	02000004 	andeq	r0, r0, #4	; 0x4
    2804:	b0150091 	mullts	r5, r1, r0
    2808:	10000002 	andne	r0, r0, r2
    280c:	00000469 	andeq	r0, r0, r9, ror #8
    2810:	00009102 	andeq	r9, r0, r2, lsl #2
    2814:	9f180000 	swils	0x00180000
    2818:	01000007 	tsteq	r0, r7
    281c:	00000343 	andeq	r0, r0, r3, asr #6
    2820:	cc011801 	stcgt	8, cr1, [r1], {1}
    2824:	0c002028 	stceq	0, cr2, [r0], {40}
    2828:	0100202a 	tsteq	r0, sl, lsr #32
    282c:	06ca175d 	undefined
    2830:	05100000 	ldreq	r0, [r0]
    2834:	28d00000 	ldmcsia	r0, {}^
    2838:	28e00020 	stmcsia	r0!, {r5}^
    283c:	1e100020 	cdpne	0, 1, cr0, cr0, cr0, {1}
    2840:	01000005 	tsteq	r0, r5
    2844:	0529105e 	streq	r1, [r9, #-94]!
    2848:	5c010000 	stcpl	0, cr0, [r1], {0}
    284c:	00053413 	andeq	r3, r5, r3, lsl r4
    2850:	053f1300 	ldreq	r1, [pc, #-768]!	; 2558 <.debug_info+0x2558>
    2854:	4a100000 	bmi	40285c <_ram_end+0x1fdd50>
    2858:	01000005 	tsteq	r0, r5
    285c:	05551053 	ldreqb	r1, [r5, #-83]
    2860:	52010000 	andpl	r0, r1, #0	; 0x0
    2864:	0002c815 	andeq	ip, r2, r5, lsl r8
    2868:	051e1000 	ldreq	r1, [lr]
    286c:	5e010000 	cdppl	0, 0, cr0, cr1, cr0, {0}
    2870:	00052910 	andeq	r2, r5, r0, lsl r9
    2874:	135c0100 	cmpne	ip, #0	; 0x0
    2878:	00000534 	andeq	r0, r0, r4, lsr r5
    287c:	00053f13 	andeq	r3, r5, r3, lsl pc
    2880:	054a1000 	streqb	r1, [sl]
    2884:	53010000 	tstpl	r1, #0	; 0x0
    2888:	00055510 	andeq	r5, r5, r0, lsl r5
    288c:	00520100 	subeqs	r0, r2, r0, lsl #2
    2890:	06f21700 	ldreqbt	r1, [r2], r0, lsl #14
    2894:	045b0000 	ldreqb	r0, [fp]
    2898:	28ec0000 	stmcsia	ip!, {}^
    289c:	28f00020 	ldmcsia	r0!, {r5}^
    28a0:	69100020 	ldmvsdb	r0, {r5}
    28a4:	02000004 	andeq	r0, r0, #4	; 0x4
    28a8:	f8150091 	ldmnvda	r5, {r0, r4, r7}
    28ac:	10000002 	andne	r0, r0, r2
    28b0:	00000469 	andeq	r0, r0, r9, ror #8
    28b4:	00009102 	andeq	r9, r0, r2, lsl #2
    28b8:	07221700 	streq	r1, [r2, -r0, lsl #14]!
    28bc:	049b0000 	ldreq	r0, [fp]
    28c0:	29440000 	stmcsdb	r4, {}^
    28c4:	29480020 	stmcsdb	r8, {r5}^
    28c8:	a9100020 	ldmgedb	r0, {r5}
    28cc:	01000004 	tsteq	r0, r4
    28d0:	04b41355 	ldreqt	r1, [r4], #853
    28d4:	20150000 	andcss	r0, r5, r0
    28d8:	10000003 	andne	r0, r0, r3
    28dc:	000004a9 	andeq	r0, r0, r9, lsr #9
    28e0:	b4135501 	ldrlt	r5, [r3], #-1281
    28e4:	00000004 	andeq	r0, r0, r4
    28e8:	074a1700 	streqb	r1, [sl, -r0, lsl #14]
    28ec:	045b0000 	ldreqb	r0, [fp]
    28f0:	295c0000 	ldmcsdb	ip, {}^
    28f4:	29600020 	stmcsdb	r0!, {r5}^
    28f8:	69100020 	ldmvsdb	r0, {r5}
    28fc:	02000004 	andeq	r0, r0, #4	; 0x4
    2900:	50150091 	mulpls	r5, r1, r0
    2904:	10000003 	andne	r0, r0, r3
    2908:	00000469 	andeq	r0, r0, r9, ror #8
    290c:	00009102 	andeq	r9, r0, r2, lsl #2
    2910:	077a1700 	ldreqb	r1, [sl, -r0, lsl #14]!
    2914:	049b0000 	ldreq	r0, [fp]
    2918:	29ac0000 	stmcsib	ip!, {}
    291c:	29b00020 	ldmcsib	r0!, {r5}
    2920:	a9100020 	ldmgedb	r0, {r5}
    2924:	01000004 	tsteq	r0, r4
    2928:	04b41354 	ldreqt	r1, [r4], #852
    292c:	68150000 	ldmvsda	r5, {}
    2930:	10000003 	andne	r0, r0, r3
    2934:	000004a9 	andeq	r0, r0, r9, lsr #9
    2938:	b4135401 	ldrlt	r5, [r3], #-1025
    293c:	00000004 	andeq	r0, r0, r4
    2940:	045b1400 	ldreqb	r1, [fp], #-1024
    2944:	29c40000 	stmcsib	r4, {}^
    2948:	29c80020 	stmcsib	r8, {r5}^
    294c:	69100020 	ldmvsdb	r0, {r5}
    2950:	02000004 	andeq	r0, r0, #4	; 0x4
    2954:	90150091 	mullss	r5, r1, r0
    2958:	10000003 	andne	r0, r0, r3
    295c:	00000469 	andeq	r0, r0, r9, ror #8
    2960:	00009102 	andeq	r9, r0, r2, lsl #2
    2964:	1b180000 	blne	60296c <_ram_end+0x3fde60>
    2968:	01000008 	tsteq	r0, r8
    296c:	0000026e 	andeq	r0, r0, lr, ror #4
    2970:	0c011f01 	stceq	15, cr1, [r1], {1}
    2974:	e400202a 	str	r2, [r0], #-42
    2978:	0100202a 	tsteq	r0, sl, lsr #32
    297c:	0800175d 	stmeqda	r0, {r0, r2, r3, r4, r6, r8, r9, sl, ip}
    2980:	081b0000 	ldmeqda	fp, {}
    2984:	2a180000 	bcs	60298c <_ram_end+0x3fde80>
    2988:	2a1c0020 	bcs	702a10 <_ram_end+0x4fdf04>
    298c:	28190020 	ldmcsda	r9, {r5}
    2990:	19000008 	stmnedb	r0, {r3}
    2994:	00000833 	andeq	r0, r0, r3, lsr r8
    2998:	00083f14 	andeq	r3, r8, r4, lsl pc
    299c:	202a1800 	eorcs	r1, sl, r0, lsl #16
    29a0:	202a1c00 	eorcs	r1, sl, r0, lsl #24
    29a4:	084c1900 	stmeqda	ip, {r8, fp, ip}^
    29a8:	571a0000 	ldrpl	r0, [sl, -r0]
    29ac:	01000008 	tsteq	r0, r8
    29b0:	03a81552 	moveq	r1, #343932928	; 0x14800000
    29b4:	62100000 	andvss	r0, r0, #0	; 0x0
    29b8:	01000008 	tsteq	r0, r8
    29bc:	086d105c 	stmeqda	sp!, {r2, r3, r4, r6, ip}^
    29c0:	53010000 	tstpl	r1, #0	; 0x0
    29c4:	1b000000 	blne	29cc <.debug_info+0x29cc>
    29c8:	00000879 	andeq	r0, r0, r9, ror r8
    29cc:	00202a54 	eoreq	r2, r0, r4, asr sl
    29d0:	00202a58 	eoreq	r2, r0, r8, asr sl
    29d4:	0008821b 	andeq	r8, r8, fp, lsl r2
    29d8:	202ac400 	eorcs	ip, sl, r0, lsl #8
    29dc:	202ac800 	eorcs	ip, sl, r0, lsl #16
    29e0:	3f1c0000 	swicc	0x001c0000
    29e4:	46000008 	strmi	r0, [r0], -r8
    29e8:	05000008 	streq	r0, [r0, #-8]
    29ec:	1d0301b0 	stfnes	f0, [r3, #-704]
    29f0:	00000851 	andeq	r0, r0, r1, asr r8
    29f4:	0478af05 	ldreqbt	sl, [r8], #-3845
    29f8:	c41d0000 	ldrgt	r0, [sp]
    29fc:	05000005 	streq	r0, [r0, #-5]
    2a00:	000478af 	andeq	r7, r4, pc, lsr #17
    2a04:	791c0000 	ldmvcdb	ip, {}
    2a08:	68000008 	stmvsda	r0, {r3}
    2a0c:	03000008 	tsteq	r0, #8	; 0x8
    2a10:	1e0301bd 	mcrne	1, 0, r0, cr3, cr13, {5}
    2a14:	00676572 	rsbeq	r6, r7, r2, ror r5
    2a18:	0478bc03 	ldreqbt	fp, [r8], #-3075
    2a1c:	c41d0000 	ldrgt	r0, [sp]
    2a20:	03000005 	tsteq	r0, #5	; 0x5
    2a24:	000478bc 	streqh	r7, [r4], -ip
    2a28:	06681100 	streqbt	r1, [r8], -r0, lsl #2
    2a2c:	be030000 	cdplt	0, 0, cr0, cr3, cr0, {0}
    2a30:	000002df 	ldreqd	r0, [r0], -pc
    2a34:	00088111 	andeq	r8, r8, r1, lsl r1
    2a38:	45bf0300 	ldrmi	r0, [pc, #768]!	; 2d40 <.debug_info+0x2d40>
    2a3c:	00000000 	andeq	r0, r0, r0
    2a40:	0008771f 	andeq	r7, r8, pc, lsl r7
    2a44:	01150300 	tsteq	r5, r0, lsl #6
    2a48:	08151f03 	ldmeqda	r5, {r0, r1, r8, r9, sl, fp, ip}
    2a4c:	23030000 	tstcs	r3, #0	; 0x0
    2a50:	00200301 	eoreq	r0, r0, r1, lsl #6
    2a54:	05000008 	streq	r0, [r0, #-8]
    2a58:	00002c5b 	andeq	r2, r0, fp, asr ip
    2a5c:	21010100 	tstcs	r1, r0, lsl #2
    2a60:	0000083c 	andeq	r0, r0, ip, lsr r8
    2a64:	00551301 	subeqs	r1, r5, r1, lsl #6
    2a68:	05010000 	streq	r0, [r1]
    2a6c:	204abc03 	subcs	fp, sl, r3, lsl #24
    2a70:	08892100 	stmeqia	r9, {r8, sp}
    2a74:	14010000 	strne	r0, [r1]
    2a78:	00000055 	andeq	r0, r0, r5, asr r0
    2a7c:	b8030501 	stmltda	r3, {r0, r8, sl}
    2a80:	0000204a 	andeq	r2, r0, sl, asr #32
    2a84:	000007d4 	ldreqd	r0, [r0], -r4
    2a88:	0ae40002 	beq	ff902a98 <_ram_end+0xff6fdf8c>
    2a8c:	01040000 	tsteq	r4, r0
    2a90:	000009ed 	andeq	r0, r0, sp, ror #19
    2a94:	00203280 	eoreq	r3, r0, r0, lsl #5
    2a98:	00202ae4 	eoreq	r2, r0, r4, ror #21
    2a9c:	00000069 	andeq	r0, r0, r9, rrx
    2aa0:	0008f801 	andeq	pc, r8, r1, lsl #16
    2aa4:	00012d00 	andeq	r2, r1, r0, lsl #26
    2aa8:	09680200 	stmeqdb	r8!, {r9}^
    2aac:	0a020000 	beq	82ab4 <.debug_info+0x82ab4>
    2ab0:	00000030 	andeq	r0, r0, r0, lsr r0
    2ab4:	00011f03 	andeq	r1, r1, r3, lsl #30
    2ab8:	03080100 	tsteq	r8, #0	; 0x0
    2abc:	00000175 	andeq	r0, r0, r5, ror r1
    2ac0:	0d030702 	stceq	7, cr0, [r3, #-8]
    2ac4:	04000001 	streq	r0, [r0], #-1
    2ac8:	01120307 	tsteq	r2, r7, lsl #6
    2acc:	07040000 	streq	r0, [r4, -r0]
    2ad0:	00010d03 	andeq	r0, r1, r3, lsl #26
    2ad4:	04070400 	streq	r0, [r7], #-1024
    2ad8:	0000007a 	andeq	r0, r0, sl, ror r0
    2adc:	00092501 	andeq	r2, r9, r1, lsl #10
    2ae0:	01190100 	tsteq	r9, r0, lsl #2
    2ae4:	00630501 	rsbeq	r0, r3, r1, lsl #10
    2ae8:	007a1801 	rsbeqs	r1, sl, r1, lsl #16
    2aec:	01060000 	tsteq	r6, r0
    2af0:	0000091f 	andeq	r0, r0, pc, lsl r9
    2af4:	007a1b01 	rsbeqs	r1, sl, r1, lsl #22
    2af8:	07010000 	streq	r0, [r1, -r0]
    2afc:	69080000 	stmvsdb	r8, {}
    2b00:	0400746e 	streq	r7, [r0], #-1134
    2b04:	00a40905 	adceq	r0, r4, r5, lsl #18
    2b08:	00530000 	subeqs	r0, r3, r0
    2b0c:	2ae40000 	bcs	ff902b14 <_ram_end+0xff6fe008>
    2b10:	2b140020 	blcs	502b98 <_ram_end+0x2fe08c>
    2b14:	5b010020 	blpl	42b9c <.debug_info+0x42b9c>
    2b18:	0000610a 	andeq	r6, r0, sl, lsl #2
    2b1c:	0b540100 	bleq	1502f24 <_ram_end+0x12fe418>
    2b20:	0000006a 	andeq	r0, r0, sl, rrx
    2b24:	00000701 	andeq	r0, r0, r1, lsl #14
    2b28:	0000d20c 	andeq	sp, r0, ip, lsl #4
    2b2c:	02eb0100 	rsceq	r0, fp, #0	; 0x0
    2b30:	21010000 	tstcs	r1, r0
    2b34:	00007a01 	andeq	r7, r0, r1, lsl #20
    2b38:	73050100 	tstvc	r5, #0	; 0x0
    2b3c:	01007274 	tsteq	r0, r4, ror r2
    2b40:	0000d220 	andeq	sp, r0, r0, lsr #4
    2b44:	00630d00 	rsbeq	r0, r3, r0, lsl #26
    2b48:	007a2201 	rsbeqs	r2, sl, r1, lsl #4
    2b4c:	0f0e0000 	swieq	0x000e0000
    2b50:	00000094 	muleq	r0, r4, r0
    2b54:	04100000 	ldreq	r0, [r0]
    2b58:	000000d8 	ldreqd	r0, [r0], -r8
    2b5c:	0000dd11 	andeq	sp, r0, r1, lsl sp
    2b60:	01280300 	teqeq	r8, r0, lsl #6
    2b64:	07010000 	streq	r0, [r1, -r0]
    2b68:	00011909 	andeq	r1, r1, r9, lsl #18
    2b6c:	0000a400 	andeq	sl, r0, r0, lsl #8
    2b70:	202b1400 	eorcs	r1, fp, r0, lsl #8
    2b74:	202b6000 	eorcs	r6, fp, r0
    2b78:	0a5b0100 	beq	16c2f80 <_ram_end+0x14be474>
    2b7c:	000000b6 	streqh	r0, [r0], -r6
    2b80:	c1125001 	tstgt	r2, r1
    2b84:	01000000 	tsteq	r0, r0
    2b88:	00531354 	subeqs	r1, r3, r4, asr r3
    2b8c:	2b300000 	blcs	c02b94 <_ram_end+0x9fe088>
    2b90:	2b440020 	blcs	1102c18 <_ram_end+0xefe10c>
    2b94:	940f0020 	strls	r0, [pc], #32	; 2b9c <.debug_info+0x2b9c>
    2b98:	00000000 	andeq	r0, r0, r0
    2b9c:	01370400 	teqeq	r7, r0, lsl #8
    2ba0:	10010000 	andne	r0, r1, r0
    2ba4:	01000009 	tsteq	r0, r9
    2ba8:	0601012a 	streq	r0, [r1], -sl, lsr #2
    2bac:	0001bd01 	andeq	fp, r1, r1, lsl #26
    2bb0:	7a2b0100 	bvc	ac2fb8 <_ram_end+0x8be4ac>
    2bb4:	01000000 	tsteq	r0, r0
    2bb8:	09000007 	stmeqdb	r0, {r0, r1, r2}
    2bbc:	00000153 	andeq	r0, r0, r3, asr r1
    2bc0:	00000119 	andeq	r0, r0, r9, lsl r1
    2bc4:	00202b60 	eoreq	r2, r0, r0, ror #22
    2bc8:	00202b6c 	eoreq	r2, r0, ip, ror #22
    2bcc:	270b5d01 	strcs	r5, [fp, -r1, lsl #26]
    2bd0:	01000001 	tsteq	r0, r1
    2bd4:	0c000007 	stceq	0, cr0, [r0], {7}
    2bd8:	0000016f 	andeq	r0, r0, pc, ror #2
    2bdc:	0008d501 	andeq	sp, r8, r1, lsl #10
    2be0:	01300100 	teqeq	r0, r0, lsl #2
    2be4:	0000007a 	andeq	r0, r0, sl, ror r0
    2be8:	00630501 	rsbeq	r0, r3, r1, lsl #10
    2bec:	007a2f01 	rsbeqs	r2, sl, r1, lsl #30
    2bf0:	09000000 	stmeqdb	r0, {}
    2bf4:	0000018a 	andeq	r0, r0, sl, lsl #3
    2bf8:	00000153 	andeq	r0, r0, r3, asr r1
    2bfc:	00202b6c 	eoreq	r2, r0, ip, ror #22
    2c00:	00202b7c 	eoreq	r2, r0, ip, ror fp
    2c04:	650a5d01 	strvs	r5, [sl, #-3329]
    2c08:	01000001 	tsteq	r0, r1
    2c0c:	f3140050 	tstnv	r4, #80	; 0x50
    2c10:	01000001 	tsteq	r0, r1
    2c14:	00000915 	andeq	r0, r0, r5, lsl r9
    2c18:	7a013d01 	bvc	52024 <.debug_info+0x52024>
    2c1c:	7c000000 	stcvc	0, cr0, [r0], {0}
    2c20:	6400202b 	strvs	r2, [r0], #-43
    2c24:	0100202c 	tsteq	r0, ip, lsr #32
    2c28:	7070155d 	rsbvcs	r1, r0, sp, asr r5
    2c2c:	f33c0100 	teqnv	ip, #0	; 0x0
    2c30:	01000001 	tsteq	r0, r1
    2c34:	00761554 	rsbeqs	r1, r6, r4, asr r5
    2c38:	01ff3c01 	mvneqs	r3, r1, lsl #24
    2c3c:	55010000 	strpl	r0, [r1]
    2c40:	01007016 	tsteq	r0, r6, lsl r0
    2c44:	0001f93e 	andeq	pc, r1, lr, lsr r9
    2c48:	165c0100 	ldrneb	r0, [ip], -r0, lsl #2
    2c4c:	3f01006e 	swicc	0x0001006e
    2c50:	0000007a 	andeq	r0, r0, sl, ror r0
    2c54:	63165e01 	tstvs	r6, #16	; 0x10
    2c58:	dd400100 	stflee	f0, [r0]
    2c5c:	01000000 	tsteq	r0, r0
    2c60:	01531353 	cmpeq	r3, r3, asr r3
    2c64:	2c140000 	ldccs	0, cr0, [r4], {0}
    2c68:	2c240020 	stccs	0, cr0, [r4], #-128
    2c6c:	820a0020 	andhi	r0, sl, #32	; 0x20
    2c70:	01000001 	tsteq	r0, r1
    2c74:	10000053 	andne	r0, r0, r3, asr r0
    2c78:	0001f904 	andeq	pc, r1, r4, lsl #18
    2c7c:	dd041000 	stcle	0, cr1, [r4]
    2c80:	10000000 	andne	r0, r0, r0
    2c84:	00007a04 	andeq	r7, r0, r4, lsl #20
    2c88:	024d1400 	subeq	r1, sp, #0	; 0x0
    2c8c:	dd010000 	stcle	0, cr0, [r1]
    2c90:	01000008 	tsteq	r0, r8
    2c94:	007a0167 	rsbeqs	r0, sl, r7, ror #2
    2c98:	2c640000 	stccsl	0, cr0, [r4]
    2c9c:	2cd00020 	ldccsl	0, cr0, [r0], {32}
    2ca0:	5d010020 	stcpl	0, cr0, [r1, #-128]
    2ca4:	00707015 	rsbeqs	r7, r0, r5, lsl r0
    2ca8:	01f36601 	mvneqs	r6, r1, lsl #12
    2cac:	50010000 	andpl	r0, r1, r0
    2cb0:	00777015 	rsbeqs	r7, r7, r5, lsl r0
    2cb4:	01f36601 	mvneqs	r6, r1, lsl #12
    2cb8:	51010000 	tstpl	r1, r0
    2cbc:	01007016 	tsteq	r0, r6, lsl r0
    2cc0:	0001f968 	andeq	pc, r1, r8, ror #18
    2cc4:	0d520100 	ldfeqe	f0, [r2]
    2cc8:	69010063 	stmvsdb	r1, {r0, r1, r5, r6}
    2ccc:	000000dd 	ldreqd	r0, [r0], -sp
    2cd0:	02a70400 	adceq	r0, r7, #0	; 0x0
    2cd4:	ee010000 	cdp	0, 0, cr0, cr1, cr0, {0}
    2cd8:	01000008 	tsteq	r0, r8
    2cdc:	0d010183 	stfeqs	f0, [r1, #-524]
    2ce0:	01003163 	tsteq	r0, r3, ror #2
    2ce4:	0000dd84 	andeq	sp, r0, r4, lsl #27
    2ce8:	32630d00 	rsbcc	r0, r3, #0	; 0x0
    2cec:	dd840100 	stfles	f0, [r4]
    2cf0:	0d000000 	stceq	0, cr0, [r0]
    2cf4:	84010070 	strhi	r0, [r1], #-112
    2cf8:	000001f9 	streqd	r0, [r0], -r9
    2cfc:	0100690d 	tsteq	r0, sp, lsl #18
    2d00:	00007a85 	andeq	r7, r0, r5, lsl #21
    2d04:	07921700 	ldreq	r1, [r2, r0, lsl #14]
    2d08:	85010000 	strhi	r0, [r1]
    2d0c:	0000007a 	andeq	r0, r0, sl, ror r0
    2d10:	0002a518 	andeq	sl, r2, r8, lsl r5
    2d14:	00f70f00 	rsceqs	r0, r7, r0, lsl #30
    2d18:	190e0000 	stmnedb	lr, {}
    2d1c:	000000c1 	andeq	r0, r0, r1, asr #1
    2d20:	00940f0e 	addeqs	r0, r4, lr, lsl #30
    2d24:	00000000 	andeq	r0, r0, r0
    2d28:	09001a00 	stmeqdb	r0, {r9, fp, ip}
    2d2c:	00000320 	andeq	r0, r0, r0, lsr #6
    2d30:	0000024d 	andeq	r0, r0, sp, asr #4
    2d34:	00202cd0 	ldreqd	r2, [r0], -r0
    2d38:	00202d90 	mlaeq	r0, r0, sp, r2
    2d3c:	5b125b01 	blpl	499948 <_ram_end+0x294e3c>
    2d40:	01000002 	tsteq	r0, r2
    2d44:	02651951 	rsbeq	r1, r5, #1327104	; 0x144000
    2d48:	6f190000 	swivs	0x00190000
    2d4c:	19000002 	stmnedb	r0, {r1}
    2d50:	00000278 	andeq	r0, r0, r8, ror r2
    2d54:	00028119 	andeq	r8, r2, r9, lsl r1
    2d58:	03121b00 	tsteq	r2, #0	; 0x0
    2d5c:	00a40000 	adceq	r0, r4, r0
    2d60:	2d140000 	ldccs	0, cr0, [r4]
    2d64:	2d680020 	stccsl	0, cr0, [r8, #-128]!
    2d68:	f70a0020 	strnv	r0, [sl, -r0, lsr #32]
    2d6c:	01000000 	tsteq	r0, r0
    2d70:	2d181c53 	ldccs	12, cr1, [r8, #-332]
    2d74:	2d680020 	stccsl	0, cr0, [r8, #-128]!
    2d78:	c1120020 	tstgt	r2, r0, lsr #32
    2d7c:	01000000 	tsteq	r0, r0
    2d80:	00531354 	subeqs	r1, r3, r4, asr r3
    2d84:	2d2c0000 	stccs	0, cr0, [ip]
    2d88:	2d340020 	ldccs	0, cr0, [r4, #-128]!
    2d8c:	940f0020 	strls	r0, [pc], #32	; 2d94 <.debug_info+0x2d94>
    2d90:	00000000 	andeq	r0, r0, r0
    2d94:	191d0000 	ldmnedb	sp, {}
    2d98:	70000001 	andvc	r0, r0, r1
    2d9c:	7400202d 	strvc	r2, [r0], #-45
    2da0:	0000202d 	andeq	r2, r0, sp, lsr #32
    2da4:	00033604 	andeq	r3, r3, r4, lsl #12
    2da8:	097c0100 	ldmeqdb	ip!, {r8}^
    2dac:	a6010000 	strge	r0, [r1], -r0
    2db0:	0f0e0101 	swieq	0x000e0101
    2db4:	00000094 	muleq	r0, r4, r0
    2db8:	5d090000 	stcpl	0, cr0, [r9]
    2dbc:	20000003 	andcs	r0, r0, r3
    2dc0:	90000003 	andls	r0, r0, r3
    2dc4:	9800202d 	stmlsda	r0, {r0, r2, r3, r5, sp}
    2dc8:	0100202d 	tsteq	r0, sp, lsr #32
    2dcc:	0053135d 	subeqs	r1, r3, sp, asr r3
    2dd0:	2d900000 	ldccs	0, cr0, [r0]
    2dd4:	2d940020 	ldccs	0, cr0, [r4, #128]
    2dd8:	940f0020 	strls	r0, [pc], #32	; 2de0 <.debug_info+0x2de0>
    2ddc:	00000000 	andeq	r0, r0, r0
    2de0:	03f51e00 	mvneqs	r1, #0	; 0x0
    2de4:	4b010000 	blmi	42dec <.debug_info+0x42dec>
    2de8:	01000009 	tsteq	r0, r9
    2dec:	2d9801ac 	ldfcss	f0, [r8, #688]
    2df0:	2ee40020 	cdpcs	0, 14, cr0, cr4, cr0, {1}
    2df4:	5b010020 	blpl	42e7c <.debug_info+0x42e7c>
    2df8:	01006316 	tsteq	r0, r6, lsl r3
    2dfc:	0000ddad 	andeq	sp, r0, sp, lsr #27
    2e00:	1b540100 	blne	1503208 <_ram_end+0x12fe6fc>
    2e04:	00000396 	muleq	r0, r6, r3
    2e08:	00000053 	andeq	r0, r0, r3, asr r0
    2e0c:	00202e20 	eoreq	r2, r0, r0, lsr #28
    2e10:	00202e24 	eoreq	r2, r0, r4, lsr #28
    2e14:	0000940f 	andeq	r9, r0, pc, lsl #8
    2e18:	bb1b0000 	bllt	6c2e20 <_ram_end+0x4be314>
    2e1c:	20000003 	andcs	r0, r0, r3
    2e20:	34000003 	strcc	r0, [r0], #-3
    2e24:	3800202e 	stmccda	r0, {r1, r2, r3, r5, sp}
    2e28:	1300202e 	tstne	r0, #46	; 0x2e
    2e2c:	00000053 	andeq	r0, r0, r3, asr r0
    2e30:	00202e34 	eoreq	r2, r0, r4, lsr lr
    2e34:	00202e38 	eoreq	r2, r0, r8, lsr lr
    2e38:	0000940f 	andeq	r9, r0, pc, lsl #8
    2e3c:	1b000000 	blne	2e44 <.debug_info+0x2e44>
    2e40:	000003e1 	andeq	r0, r0, r1, ror #7
    2e44:	000000a4 	andeq	r0, r0, r4, lsr #1
    2e48:	00202e68 	eoreq	r2, r0, r8, ror #28
    2e4c:	00202e70 	eoreq	r2, r0, r0, ror lr
    2e50:	0000f70a 	andeq	pc, r0, sl, lsl #14
    2e54:	1f530100 	swine	0x00530100
    2e58:	000003c8 	andeq	r0, r0, r8, asr #7
    2e5c:	0000c112 	andeq	ip, r0, r2, lsl r1
    2e60:	00540100 	subeqs	r0, r4, r0, lsl #2
    2e64:	00531300 	subeqs	r1, r3, r0, lsl #6
    2e68:	2e840000 	cdpcs	0, 8, cr0, cr4, cr0, {0}
    2e6c:	2e980020 	cdpcs	0, 9, cr0, cr8, cr0, {1}
    2e70:	940f0020 	strls	r0, [pc], #32	; 2e78 <.debug_info+0x2e78>
    2e74:	00000000 	andeq	r0, r0, r0
    2e78:	040d0400 	streq	r0, [sp], #-1024
    2e7c:	93010000 	tstls	r1, #0	; 0x0
    2e80:	01000008 	tsteq	r0, r8
    2e84:	050101cf 	streq	r0, [r1, #-463]
    2e88:	ce010063 	cdpgt	0, 0, cr0, cr1, cr3, {3}
    2e8c:	000000dd 	ldreqd	r0, [r0], -sp
    2e90:	04280900 	streqt	r0, [r8], #-2304
    2e94:	03f50000 	mvneqs	r0, #0	; 0x0
    2e98:	2ee40000 	cdpcs	0, 14, cr0, cr4, cr0, {0}
    2e9c:	2f240020 	swics	0x00240020
    2ea0:	5d010020 	stcpl	0, cr0, [r1, #-128]
    2ea4:	0004030a 	andeq	r0, r4, sl, lsl #6
    2ea8:	00500100 	subeqs	r0, r0, r0, lsl #2
    2eac:	098e0120 	stmeqib	lr, {r5, r8}
    2eb0:	d7010000 	strle	r0, [r1, -r0]
    2eb4:	00007a01 	andeq	r7, r0, r1, lsl #20
    2eb8:	202f2400 	eorcs	r2, pc, r0, lsl #8
    2ebc:	202f3800 	eorcs	r3, pc, r0, lsl #16
    2ec0:	215d0100 	cmpcs	sp, r0, lsl #2
    2ec4:	00092a01 	andeq	r2, r9, r1, lsl #20
    2ec8:	38dd0100 	ldmccia	sp, {r8}^
    2ecc:	8800202f 	stmhida	r0, {r0, r1, r2, r3, r5, sp}
    2ed0:	0100202f 	tsteq	r0, pc, lsr #32
    2ed4:	05bb1e5d 	ldreq	r1, [fp, #3677]!
    2ed8:	3a010000 	bcc	42ee0 <.debug_info+0x42ee0>
    2edc:	01000003 	tsteq	r0, r3
    2ee0:	2f8801eb 	swics	0x008801eb
    2ee4:	31580020 	cmpcc	r8, r0, lsr #32
    2ee8:	5b010020 	blpl	42f70 <.debug_info+0x42f70>
    2eec:	0100630d 	tsteq	r0, sp, lsl #6
    2ef0:	0000ddec 	andeq	sp, r0, ip, ror #27
    2ef4:	04842200 	streq	r2, [r4], #512
    2ef8:	0b010000 	bleq	42f00 <.debug_info+0x42f00>
    2efc:	01000003 	tsteq	r0, r3
    2f00:	00007aef 	andeq	r7, r0, pc, ror #21
    2f04:	00070100 	andeq	r0, r7, r0, lsl #2
    2f08:	0004bd1b 	andeq	fp, r4, fp, lsl sp
    2f0c:	0000a400 	andeq	sl, r0, r0, lsl #8
    2f10:	202fbc00 	eorcs	fp, pc, r0, lsl #24
    2f14:	202ff000 	eorcs	pc, pc, r0
    2f18:	00f70a00 	rsceqs	r0, r7, r0, lsl #20
    2f1c:	53010000 	tstpl	r1, #0	; 0x0
    2f20:	0003e81f 	andeq	lr, r3, pc, lsl r8
    2f24:	00c11200 	sbceq	r1, r1, r0, lsl #4
    2f28:	54010000 	strpl	r0, [r1]
    2f2c:	00005313 	andeq	r5, r0, r3, lsl r3
    2f30:	202fd000 	eorcs	sp, pc, r0
    2f34:	202fe400 	eorcs	lr, pc, r0, lsl #8
    2f38:	00940f00 	addeqs	r0, r4, r0, lsl #30
    2f3c:	00000000 	andeq	r0, r0, r0
    2f40:	04f61b00 	ldreqbt	r1, [r6], #2816
    2f44:	00a40000 	adceq	r0, r4, r0
    2f48:	30040000 	andcc	r0, r4, r0
    2f4c:	30380020 	eorccs	r0, r8, r0, lsr #32
    2f50:	f70a0020 	strnv	r0, [sl, -r0, lsr #32]
    2f54:	01000000 	tsteq	r0, r0
    2f58:	04001f53 	streq	r1, [r0], #-3923
    2f5c:	c1120000 	tstgt	r2, r0
    2f60:	01000000 	tsteq	r0, r0
    2f64:	00531354 	subeqs	r1, r3, r4, asr r3
    2f68:	30180000 	andccs	r0, r8, r0
    2f6c:	302c0020 	eorcc	r0, ip, r0, lsr #32
    2f70:	940f0020 	strls	r0, [pc], #32	; 2f78 <.debug_info+0x2f78>
    2f74:	00000000 	andeq	r0, r0, r0
    2f78:	441b0000 	ldrmi	r0, [fp]
    2f7c:	4d000005 	stcmi	0, cr0, [r0, #-20]
    2f80:	48000002 	stmmida	r0, {r1}
    2f84:	4c002030 	stcmi	0, cr2, [r0], {48}
    2f88:	12002030 	andne	r2, r0, #48	; 0x30
    2f8c:	0000025b 	andeq	r0, r0, fp, asr r2
    2f90:	65195201 	ldrvs	r5, [r9, #-513]
    2f94:	19000002 	stmnedb	r0, {r1}
    2f98:	0000026f 	andeq	r0, r0, pc, ror #4
    2f9c:	00027819 	andeq	r7, r2, r9, lsl r8
    2fa0:	02811900 	addeq	r1, r1, #0	; 0x0
    2fa4:	181f0000 	ldmneda	pc, {}
    2fa8:	12000004 	andne	r0, r0, #4	; 0x4
    2fac:	0000025b 	andeq	r0, r0, fp, asr r2
    2fb0:	65195201 	ldrvs	r5, [r9, #-513]
    2fb4:	19000002 	stmnedb	r0, {r1}
    2fb8:	0000026f 	andeq	r0, r0, pc, ror #4
    2fbc:	00027819 	andeq	r7, r2, r9, lsl r8
    2fc0:	02811900 	addeq	r1, r1, #0	; 0x0
    2fc4:	00000000 	andeq	r0, r0, r0
    2fc8:	00057d1b 	andeq	r7, r5, fp, lsl sp
    2fcc:	0000a400 	andeq	sl, r0, r0, lsl #8
    2fd0:	20307400 	eorcss	r7, r0, r0, lsl #8
    2fd4:	2030a800 	eorcss	sl, r0, r0, lsl #16
    2fd8:	00f70a00 	rsceqs	r0, r7, r0, lsl #20
    2fdc:	53010000 	tstpl	r1, #0	; 0x0
    2fe0:	0004401f 	andeq	r4, r4, pc, lsl r0
    2fe4:	00c11200 	sbceq	r1, r1, r0, lsl #4
    2fe8:	54010000 	strpl	r0, [r1]
    2fec:	00005313 	andeq	r5, r0, r3, lsl r3
    2ff0:	20308800 	eorcss	r8, r0, r0, lsl #16
    2ff4:	20309c00 	eorcss	r9, r0, r0, lsl #24
    2ff8:	00940f00 	addeqs	r0, r4, r0, lsl #30
    2ffc:	00000000 	andeq	r0, r0, r0
    3000:	05ad2300 	streq	r2, [sp, #768]!
    3004:	04580000 	ldreqb	r0, [r8]
    3008:	99220000 	stmlsdb	r2!, {}
    300c:	01000005 	tsteq	r0, r5
    3010:	000008ba 	streqh	r0, [r0], -sl
    3014:	007af001 	rsbeqs	pc, sl, r1
    3018:	07010000 	streq	r0, [r1, -r0]
    301c:	03f51300 	mvneqs	r1, #0	; 0x0
    3020:	30ac0000 	adccc	r0, ip, r0
    3024:	30cc0020 	sbccc	r0, ip, r0, lsr #32
    3028:	200f0020 	andcs	r0, pc, r0, lsr #32
    302c:	00000004 	andeq	r0, r0, r4
    3030:	01191d00 	tsteq	r9, r0, lsl #26
    3034:	30f80000 	rscccs	r0, r8, r0
    3038:	31000020 	tstcc	r0, r0, lsr #32
    303c:	24000020 	strcs	r0, [r0], #-32
    3040:	000005d9 	ldreqd	r0, [r0], -r9
    3044:	0008b401 	andeq	fp, r8, r1, lsl #8
    3048:	01090100 	tsteq	r9, r0, lsl #2
    304c:	0000dd01 	andeq	sp, r0, r1, lsl #26
    3050:	62250100 	eorvs	r0, r5, #0	; 0x0
    3054:	01080100 	tsteq	r8, r0, lsl #2
    3058:	000000dd 	ldreqd	r0, [r0], -sp
    305c:	05f40900 	ldreqb	r0, [r4, #2304]!
    3060:	05bb0000 	ldreq	r0, [fp]!
    3064:	31580000 	cmpcc	r8, r0
    3068:	31700020 	cmncc	r0, r0, lsr #32
    306c:	5d010020 	stcpl	0, cr0, [r1, #-128]
    3070:	0005ce0a 	andeq	ip, r5, sl, lsl #28
    3074:	00500100 	subeqs	r0, r0, r0, lsl #2
    3078:	0006e426 	andeq	lr, r6, r6, lsr #8
    307c:	089f0100 	ldmeqia	pc, {r8}
    3080:	11010000 	tstne	r1, r0
    3084:	31700101 	cmncc	r0, r1, lsl #2
    3088:	32800020 	addcc	r0, r0, #32	; 0x20
    308c:	5b010020 	blpl	43114 <.debug_info+0x43114>
    3090:	72747027 	rsbvcs	r7, r4, #39	; 0x27
    3094:	01100100 	tsteq	r0, r0, lsl #2
    3098:	000001f9 	streqd	r0, [r0], -r9
    309c:	6c275401 	cfstrsvs	mvf5, [r7], #-4
    30a0:	01006e65 	tsteq	r0, r5, ror #28
    30a4:	007a0110 	rsbeqs	r0, sl, r0, lsl r1
    30a8:	51010000 	tstpl	r1, r0
    30ac:	0008d028 	andeq	sp, r8, r8, lsr #32
    30b0:	01120100 	tsteq	r2, r0, lsl #2
    30b4:	000006e4 	andeq	r0, r0, r4, ror #13
    30b8:	7f889103 	swivc	0x00889103
    30bc:	0008e828 	andeq	lr, r8, r8, lsr #16
    30c0:	01120100 	tsteq	r2, r0, lsl #2
    30c4:	000006e4 	andeq	r0, r0, r4, ror #13
    30c8:	7eb89103 	asnvce	f1, f3
    30cc:	01007029 	tsteq	r0, r9, lsr #32
    30d0:	01f90112 	mvneqs	r0, r2, lsl r1
    30d4:	51010000 	tstpl	r1, r0
    30d8:	01006229 	tsteq	r0, r9, lsr #4
    30dc:	00dd0112 	sbceqs	r0, sp, r2, lsl r1
    30e0:	50010000 	andpl	r0, r1, r0
    30e4:	01006329 	tsteq	r0, r9, lsr #6
    30e8:	01f90112 	mvneqs	r0, r2, lsl r1
    30ec:	55010000 	strpl	r0, [r1]
    30f0:	646e6529 	strvsbt	r6, [lr], #-1321
    30f4:	01120100 	tsteq	r2, r0, lsl #2
    30f8:	000001f9 	streqd	r0, [r0], -r9
    30fc:	692a5601 	stmvsdb	sl!, {r0, r9, sl, ip, lr}
    3100:	01130100 	tsteq	r3, r0, lsl #2
    3104:	0000007a 	andeq	r0, r0, sl, ror r0
    3108:	01006a2a 	tsteq	r0, sl, lsr #20
    310c:	007a0113 	rsbeqs	r0, sl, r3, lsl r1
    3110:	c5280000 	strgt	r0, [r8]!
    3114:	01000008 	tsteq	r0, r8
    3118:	007a0113 	rsbeqs	r0, sl, r3, lsl r1
    311c:	5a010000 	bpl	43124 <.debug_info+0x43124>
    3120:	0004781f 	andeq	r7, r4, pc, lsl r8
    3124:	06b42200 	ldreqt	r2, [r4], r0, lsl #4
    3128:	bd010000 	stclt	0, cr0, [r1]
    312c:	01000001 	tsteq	r0, r1
    3130:	00007a2b 	andeq	r7, r0, fp, lsr #20
    3134:	00070100 	andeq	r0, r7, r0, lsl #2
    3138:	0006cd1b 	andeq	ip, r6, fp, lsl sp
    313c:	0005bb00 	andeq	fp, r5, r0, lsl #22
    3140:	2031c400 	eorcss	ip, r1, r0, lsl #8
    3144:	2031dc00 	eorcss	sp, r1, r0, lsl #24
    3148:	05ec0a00 	streqb	r0, [ip, #2560]!
    314c:	52010000 	andpl	r0, r1, #0	; 0x0
    3150:	05bb1300 	ldreq	r1, [fp, #768]!
    3154:	31dc0000 	bicccs	r0, ip, r0
    3158:	31e40020 	mvncc	r0, r0, lsr #32
    315c:	ec0a0020 	stc	0, cr0, [sl], {32}
    3160:	01000005 	tsteq	r0, r5
    3164:	00000052 	andeq	r0, r0, r2, asr r0
    3168:	0006f42b 	andeq	pc, r6, fp, lsr #8
    316c:	0000dd00 	andeq	sp, r0, r0, lsl #26
    3170:	004c2c00 	subeq	r2, ip, r0, lsl #24
    3174:	004f0000 	subeq	r0, pc, r0
    3178:	0007042b 	andeq	r0, r7, fp, lsr #8
    317c:	0000dd00 	andeq	sp, r0, r0, lsl #26
    3180:	004c2c00 	subeq	r2, ip, r0, lsl #24
    3184:	000f0000 	andeq	r0, pc, r0
    3188:	0009542d 	andeq	r5, r9, sp, lsr #8
    318c:	f40a0100 	strnv	r0, [sl], #-256
    3190:	01000006 	tsteq	r0, r6
    3194:	4ac50305 	bmi	ff143db0 <_ram_end+0xfef3f2a4>
    3198:	6f2d0020 	swivs	0x002d0020
    319c:	01000009 	tsteq	r0, r9
    31a0:	0000250b 	andeq	r2, r0, fp, lsl #10
    31a4:	03050100 	tsteq	r5, #0	; 0x0
    31a8:	00204ae4 	eoreq	r4, r0, r4, ror #21
    31ac:	0009342d 	andeq	r3, r9, sp, lsr #8
    31b0:	250b0100 	strcs	r0, [fp, #-256]
    31b4:	01000000 	tsteq	r0, r0
    31b8:	4ae50305 	bmi	ff943dd4 <_ram_end+0xff73f2c8>
    31bc:	5c2d0020 	stcpl	0, cr0, [sp], #-128
    31c0:	01000009 	tsteq	r0, r9
    31c4:	0000250b 	andeq	r2, r0, fp, lsl #10
    31c8:	03050100 	tsteq	r5, #0	; 0x0
    31cc:	00204ac4 	eoreq	r4, r0, r4, asr #21
    31d0:	00075c2b 	andeq	r5, r7, fp, lsr #24
    31d4:	0000dd00 	andeq	sp, r0, r0, lsl #26
    31d8:	004c2c00 	subeq	r2, ip, r0, lsl #24
    31dc:	001f0000 	andeqs	r0, pc, r0
    31e0:	0008cc2d 	andeq	ip, r8, sp, lsr #24
    31e4:	4c0f0100 	stfmis	f0, [pc], {0}
    31e8:	01000007 	tsteq	r0, r7
    31ec:	4ae60305 	bmi	ff983e08 <_ram_end+0xff77f2fc>
    31f0:	812d0020 	teqhi	sp, r0, lsr #32
    31f4:	01000009 	tsteq	r0, r9
    31f8:	00007a10 	andeq	r7, r0, r0, lsl sl
    31fc:	03050100 	tsteq	r5, #0	; 0x0
    3200:	00204ad8 	ldreqd	r4, [r0], -r8
    3204:	0009412d 	andeq	r4, r9, sp, lsr #2
    3208:	7a110100 	bvc	443610 <_ram_end+0x23eb04>
    320c:	01000000 	tsteq	r0, r0
    3210:	4ac00305 	bmi	ff003e2c <_ram_end+0xfedff320>
    3214:	052d0020 	streq	r0, [sp, #-32]!
    3218:	01000009 	tsteq	r0, r9
    321c:	00007a12 	andeq	r7, r0, r2, lsl sl
    3220:	03050100 	tsteq	r5, #0	; 0x0
    3224:	00204adc 	ldreqd	r4, [r0], -ip
    3228:	0008a72d 	andeq	sl, r8, sp, lsr #14
    322c:	7a130100 	bvc	4c3634 <_ram_end+0x2beb28>
    3230:	01000000 	tsteq	r0, r0
    3234:	4ae00305 	bmi	ff803e50 <_ram_end+0xff5ff344>
    3238:	c62b0020 	strgtt	r0, [fp], -r0, lsr #32
    323c:	37000007 	strcc	r0, [r0, -r7]
    3240:	2c000000 	stccs	0, cr0, [r0], {0}
    3244:	0000004c 	andeq	r0, r0, ip, asr #32
    3248:	fe2e007f 	mcr2	0, 1, r0, cr14, cr15, {3}
    324c:	01000008 	tsteq	r0, r8
    3250:	0007b67f 	andeq	fp, r7, pc, ror r6
    3254:	94030500 	strls	r0, [r3], #-1280
    3258:	00002045 	andeq	r2, r0, r5, asr #32
    325c:	00000e7c 	andeq	r0, r0, ip, ror lr
    3260:	0d450002 	stceql	0, cr0, [r5, #-8]
    3264:	01040000 	tsteq	r4, r0
    3268:	00000bcc 	andeq	r0, r0, ip, asr #23
    326c:	00203634 	eoreq	r3, r0, r4, lsr r6
    3270:	00203280 	eoreq	r3, r0, r0, lsl #5
    3274:	00000069 	andeq	r0, r0, r9, rrx
    3278:	000b2f01 	andeq	r2, fp, r1, lsl #30
    327c:	00012d00 	andeq	r2, r1, r0, lsl #26
    3280:	09680200 	stmeqdb	r8!, {r9}^
    3284:	0a030000 	beq	c328c <.debug_info+0xc328c>
    3288:	00000030 	andeq	r0, r0, r0, lsr r0
    328c:	00011f03 	andeq	r1, r1, r3, lsl #30
    3290:	03080100 	tsteq	r8, #0	; 0x0
    3294:	00000175 	andeq	r0, r0, r5, ror r1
    3298:	0d030702 	stceq	7, cr0, [r3, #-8]
    329c:	04000001 	streq	r0, [r0], #-1
    32a0:	004a0407 	subeq	r0, sl, r7, lsl #8
    32a4:	12030000 	andne	r0, r3, #0	; 0x0
    32a8:	04000001 	streq	r0, [r0], #-1
    32ac:	010d0307 	tsteq	sp, r7, lsl #6
    32b0:	07040000 	streq	r0, [r4, -r0]
    32b4:	00006805 	andeq	r6, r0, r5, lsl #16
    32b8:	00004500 	andeq	r4, r0, r0, lsl #10
    32bc:	00510600 	subeqs	r0, r1, r0, lsl #12
    32c0:	00000000 	andeq	r0, r0, r0
    32c4:	00007805 	andeq	r7, r0, r5, lsl #16
    32c8:	00004500 	andeq	r4, r0, r0, lsl #10
    32cc:	00510600 	subeqs	r0, r1, r0, lsl #12
    32d0:	00080000 	andeq	r0, r8, r0
    32d4:	00008805 	andeq	r8, r0, r5, lsl #16
    32d8:	00004500 	andeq	r4, r0, r0, lsl #10
    32dc:	00510600 	subeqs	r0, r1, r0, lsl #12
    32e0:	00020000 	andeq	r0, r2, r0
    32e4:	00009805 	andeq	r9, r0, r5, lsl #16
    32e8:	00004500 	andeq	r4, r0, r0, lsl #10
    32ec:	00510600 	subeqs	r0, r1, r0, lsl #12
    32f0:	00040000 	andeq	r0, r4, r0
    32f4:	00013107 	andeq	r3, r1, r7, lsl #2
    32f8:	000ad500 	andeq	sp, sl, r0, lsl #10
    32fc:	db022800 	blle	8d304 <.debug_info+0x8d304>
    3300:	000b1f08 	andeq	r1, fp, r8, lsl #30
    3304:	45dc0200 	ldrmib	r0, [ip, #512]
    3308:	02000000 	andeq	r0, r0, #0	; 0x0
    330c:	5d080023 	stcpl	0, cr0, [r8, #-140]
    3310:	0200000b 	andeq	r0, r0, #11	; 0xb
    3314:	000045dd 	ldreqd	r4, [r0], -sp
    3318:	04230200 	streqt	r0, [r3], #-512
    331c:	000aa208 	andeq	sl, sl, r8, lsl #4
    3320:	45de0200 	ldrmib	r0, [lr, #512]
    3324:	02000000 	andeq	r0, r0, #0	; 0x0
    3328:	e0080823 	and	r0, r8, r3, lsr #16
    332c:	0200000a 	andeq	r0, r0, #10	; 0xa
    3330:	000045df 	ldreqd	r4, [r0], -pc
    3334:	0c230200 	sfmeq	f0, 4, [r3]
    3338:	000acc08 	andeq	ip, sl, r8, lsl #24
    333c:	45e00200 	strmib	r0, [r0, #512]!
    3340:	02000000 	andeq	r0, r0, #0	; 0x0
    3344:	d2081023 	andle	r1, r8, #35	; 0x23
    3348:	02000009 	andeq	r0, r0, #9	; 0x9
    334c:	000045e1 	andeq	r4, r0, r1, ror #11
    3350:	14230200 	strnet	r0, [r3], #-512
    3354:	000b4408 	andeq	r4, fp, r8, lsl #8
    3358:	45e20200 	strmib	r0, [r2, #512]!
    335c:	02000000 	andeq	r0, r0, #0	; 0x0
    3360:	a9081823 	stmgedb	r8, {r0, r1, r5, fp, ip}
    3364:	0200000b 	andeq	r0, r0, #11	; 0xb
    3368:	000045e3 	andeq	r4, r0, r3, ror #11
    336c:	1c230200 	sfmne	f0, 4, [r3]
    3370:	000bd108 	andeq	sp, fp, r8, lsl #2
    3374:	45e40200 	strmib	r0, [r4, #512]!
    3378:	02000000 	andeq	r0, r0, #0	; 0x0
    337c:	e8082023 	stmda	r8, {r0, r1, r5, sp}
    3380:	0200000b 	andeq	r0, r0, #11	; 0xb
    3384:	000045e5 	andeq	r4, r0, r5, ror #11
    3388:	24230200 	strcst	r0, [r3], #-512
    338c:	0ab60200 	beq	fed83b94 <_ram_end+0xfeb7f088>
    3390:	e6020000 	str	r0, [r2], -r0
    3394:	0000013c 	andeq	r0, r0, ip, lsr r1
    3398:	00980409 	addeqs	r0, r8, r9, lsl #8
    339c:	600a0000 	andvs	r0, sl, r0
    33a0:	84000003 	strhi	r0, [r0], #-3
    33a4:	ac000006 	stcge	0, cr0, [r0], {6}
    33a8:	0b013802 	bleq	513b8 <.debug_info+0x513b8>
    33ac:	00000651 	andeq	r0, r0, r1, asr r6
    33b0:	45013902 	strmi	r3, [r1, #-2306]
    33b4:	02000000 	andeq	r0, r0, #0	; 0x0
    33b8:	3c0b0023 	stccc	0, cr0, [fp], {35}
    33bc:	02000006 	andeq	r0, r0, #6	; 0x6
    33c0:	0045013a 	subeq	r0, r5, sl, lsr r1
    33c4:	23020000 	tstcs	r2, #0	; 0x0
    33c8:	06210b04 	streqt	r0, [r1], -r4, lsl #22
    33cc:	3b020000 	blcc	833d4 <.debug_info+0x833d4>
    33d0:	00004501 	andeq	r4, r0, r1, lsl #10
    33d4:	08230200 	stmeqda	r3!, {r9}
    33d8:	0000a20b 	andeq	sl, r0, fp, lsl #4
    33dc:	013c0200 	teqeq	ip, r0, lsl #4
    33e0:	00000360 	andeq	r0, r0, r0, ror #6
    33e4:	0b0c2302 	bleq	30bff4 <_ram_end+0x1074e8>
    33e8:	000004c1 	andeq	r0, r0, r1, asr #9
    33ec:	45013d02 	strmi	r3, [r1, #-3330]
    33f0:	02000000 	andeq	r0, r0, #0	; 0x0
    33f4:	a80b1023 	stmgeda	fp, {r0, r1, r5, ip}
    33f8:	02000004 	andeq	r0, r0, #4	; 0x4
    33fc:	0045013e 	subeq	r0, r5, lr, lsr r1
    3400:	23020000 	tstcs	r2, #0	; 0x0
    3404:	04950b14 	ldreq	r0, [r5], #2836
    3408:	3f020000 	swicc	0x00020000
    340c:	00004501 	andeq	r4, r0, r1, lsl #10
    3410:	18230200 	stmneda	r3!, {r9}
    3414:	0000ac0b 	andeq	sl, r0, fp, lsl #24
    3418:	01400200 	cmpeq	r0, r0, lsl #4
    341c:	00000365 	andeq	r0, r0, r5, ror #6
    3420:	0b1c2302 	bleq	70c030 <_ram_end+0x507524>
    3424:	000004b8 	streqh	r0, [r0], -r8
    3428:	45014102 	strmi	r4, [r1, #-258]
    342c:	02000000 	andeq	r0, r0, #0	; 0x0
    3430:	8c0b2023 	stchi	0, cr2, [fp], {35}
    3434:	02000004 	andeq	r0, r0, #4	; 0x4
    3438:	00450142 	subeq	r0, r5, r2, asr #2
    343c:	23020000 	tstcs	r2, #0	; 0x0
    3440:	046f0b24 	streqbt	r0, [pc], #2852	; 3448 <.debug_info+0x3448>
    3444:	43020000 	tstmi	r2, #0	; 0x0
    3448:	00004501 	andeq	r4, r0, r1, lsl #10
    344c:	28230200 	stmcsda	r3!, {r9}
    3450:	0000b60b 	andeq	fp, r0, fp, lsl #12
    3454:	01440200 	cmpeq	r4, r0, lsl #4
    3458:	0000036a 	andeq	r0, r0, sl, ror #6
    345c:	0b2c2302 	bleq	b0c06c <_ram_end+0x907560>
    3460:	000005ea 	andeq	r0, r0, sl, ror #11
    3464:	45014502 	strmi	r4, [r1, #-1282]
    3468:	02000000 	andeq	r0, r0, #0	; 0x0
    346c:	dc0b3023 	stcle	0, cr3, [fp], {35}
    3470:	02000004 	andeq	r0, r0, #4	; 0x4
    3474:	00450146 	subeq	r0, r5, r6, asr #2
    3478:	23020000 	tstcs	r2, #0	; 0x0
    347c:	03960b34 	orreqs	r0, r6, #53248	; 0xd000
    3480:	47020000 	strmi	r0, [r2, -r0]
    3484:	00004501 	andeq	r4, r0, r1, lsl #10
    3488:	38230200 	stmccda	r3!, {r9}
    348c:	00057a0b 	andeq	r7, r5, fp, lsl #20
    3490:	01480200 	cmpeq	r8, r0, lsl #4
    3494:	00000045 	andeq	r0, r0, r5, asr #32
    3498:	0b3c2302 	bleq	f0c0a8 <_ram_end+0xd0759c>
    349c:	000003c0 	andeq	r0, r0, r0, asr #7
    34a0:	45014902 	strmi	r4, [r1, #-2306]
    34a4:	02000000 	andeq	r0, r0, #0	; 0x0
    34a8:	8e0b4023 	cdphi	0, 0, cr4, cr11, cr3, {1}
    34ac:	02000003 	andeq	r0, r0, #3	; 0x3
    34b0:	0045014a 	subeq	r0, r5, sl, asr #2
    34b4:	23020000 	tstcs	r2, #0	; 0x0
    34b8:	05830b44 	streq	r0, [r3, #2884]
    34bc:	4b020000 	blmi	834c4 <.debug_info+0x834c4>
    34c0:	00004501 	andeq	r4, r0, r1, lsl #10
    34c4:	48230200 	stmmida	r3!, {r9}
    34c8:	0003780b 	andeq	r7, r3, fp, lsl #16
    34cc:	014c0200 	cmpeq	ip, r0, lsl #4
    34d0:	00000045 	andeq	r0, r0, r5, asr #32
    34d4:	0b4c2302 	bleq	130c0e4 <_ram_end+0x11075d8>
    34d8:	0000067b 	andeq	r0, r0, fp, ror r6
    34dc:	45014d02 	strmi	r4, [r1, #-3330]
    34e0:	02000000 	andeq	r0, r0, #0	; 0x0
    34e4:	6d0b5023 	stcvs	0, cr5, [fp, #-140]
    34e8:	02000006 	andeq	r0, r0, #6	; 0x6
    34ec:	0045014e 	subeq	r0, r5, lr, asr #2
    34f0:	23020000 	tstcs	r2, #0	; 0x0
    34f4:	06590b54 	undefined
    34f8:	4f020000 	swimi	0x00020000
    34fc:	00004501 	andeq	r4, r0, r1, lsl #10
    3500:	58230200 	stmplda	r3!, {r9}
    3504:	0000c00b 	andeq	ip, r0, fp
    3508:	01500200 	cmpeq	r0, r0, lsl #4
    350c:	0000036f 	andeq	r0, r0, pc, ror #6
    3510:	0b5c2302 	bleq	170c120 <_ram_end+0x1507614>
    3514:	00000530 	andeq	r0, r0, r0, lsr r5
    3518:	45015102 	strmi	r5, [r1, #-258]
    351c:	02000000 	andeq	r0, r0, #0	; 0x0
    3520:	940b6023 	strls	r6, [fp], #-35
    3524:	02000005 	andeq	r0, r0, #5	; 0x5
    3528:	00450152 	subeq	r0, r5, r2, asr r1
    352c:	23020000 	tstcs	r2, #0	; 0x0
    3530:	051d0b64 	ldreq	r0, [sp, #-2916]
    3534:	53020000 	tstpl	r2, #0	; 0x0
    3538:	00004501 	andeq	r4, r0, r1, lsl #10
    353c:	68230200 	stmvsda	r3!, {r9}
    3540:	0000fb0b 	andeq	pc, r0, fp, lsl #22
    3544:	01540200 	cmpeq	r4, r0, lsl #4
    3548:	00000374 	andeq	r0, r0, r4, ror r3
    354c:	0b6c2302 	bleq	1b0c15c <_ram_end+0x1907650>
    3550:	00000649 	andeq	r0, r0, r9, asr #12
    3554:	45015502 	strmi	r5, [r1, #-1282]
    3558:	02000000 	andeq	r0, r0, #0	; 0x0
    355c:	210b7023 	tstcs	fp, r3, lsr #32
    3560:	02000004 	andeq	r0, r0, #4	; 0x4
    3564:	00450156 	subeq	r0, r5, r6, asr r1
    3568:	23020000 	tstcs	r2, #0	; 0x0
    356c:	04000b74 	streq	r0, [r0], #-2932
    3570:	57020000 	strpl	r0, [r2, -r0]
    3574:	00004501 	andeq	r4, r0, r1, lsl #10
    3578:	78230200 	stmvcda	r3!, {r9}
    357c:	0005130b 	andeq	r1, r5, fp, lsl #6
    3580:	01580200 	cmpeq	r8, r0, lsl #4
    3584:	00000379 	andeq	r0, r0, r9, ror r3
    3588:	0b7c2302 	bleq	1f0c198 <_ram_end+0x1d0768c>
    358c:	000005a5 	andeq	r0, r0, r5, lsr #11
    3590:	45015902 	strmi	r5, [r1, #-2306]
    3594:	03000000 	tsteq	r0, #0	; 0x0
    3598:	0b01a023 	bleq	6b62c <.debug_info+0x6b62c>
    359c:	0000054a 	andeq	r0, r0, sl, asr #10
    35a0:	45015a02 	strmi	r5, [r1, #-2562]
    35a4:	03000000 	tsteq	r0, #0	; 0x0
    35a8:	0b01a423 	bleq	6c63c <.debug_info+0x6c63c>
    35ac:	00000527 	andeq	r0, r0, r7, lsr #10
    35b0:	45015b02 	strmi	r5, [r1, #-2818]
    35b4:	03000000 	tsteq	r0, #0	; 0x0
    35b8:	0001a823 	andeq	sl, r1, r3, lsr #16
    35bc:	00005804 	andeq	r5, r0, r4, lsl #16
    35c0:	00580400 	subeqs	r0, r8, r0, lsl #8
    35c4:	58040000 	stmplda	r4, {}
    35c8:	04000000 	streq	r0, [r0]
    35cc:	00000058 	andeq	r0, r0, r8, asr r0
    35d0:	00005804 	andeq	r5, r0, r4, lsl #16
    35d4:	00680400 	rsbeq	r0, r8, r0, lsl #8
    35d8:	310c0000 	tstcc	ip, r0
    35dc:	02000006 	andeq	r0, r0, #6	; 0x6
    35e0:	038a015c 	orreq	r0, sl, #23	; 0x17
    35e4:	04090000 	streq	r0, [r9]
    35e8:	00000142 	andeq	r0, r0, r2, asr #2
    35ec:	0004ca0a 	andeq	ip, r4, sl, lsl #20
    35f0:	00001200 	andeq	r1, r0, r0, lsl #4
    35f4:	83027000 	tsthi	r2, #0	; 0x0
    35f8:	01880b01 	orreq	r0, r8, r1, lsl #22
    35fc:	84020000 	strhi	r0, [r2]
    3600:	00004501 	andeq	r4, r0, r1, lsl #10
    3604:	00230200 	eoreq	r0, r3, r0, lsl #4
    3608:	0001660b 	andeq	r6, r1, fp, lsl #12
    360c:	01850200 	orreq	r0, r5, r0, lsl #4
    3610:	00000045 	andeq	r0, r0, r5, asr #32
    3614:	0b042302 	bleq	10c224 <.debug_info+0x10c224>
    3618:	00000154 	andeq	r0, r0, r4, asr r1
    361c:	45018602 	strmi	r8, [r1, #-1538]
    3620:	02000000 	andeq	r0, r0, #0	; 0x0
    3624:	a20b0823 	andge	r0, fp, #2293760	; 0x230000
    3628:	02000000 	andeq	r0, r0, #0	; 0x0
    362c:	04ca0187 	streqb	r0, [sl], #391
    3630:	23020000 	tstcs	r2, #0	; 0x0
    3634:	002f0b0c 	eoreq	r0, pc, ip, lsl #22
    3638:	88020000 	stmhida	r2, {}
    363c:	00004501 	andeq	r4, r0, r1, lsl #10
    3640:	10230200 	eorne	r0, r3, r0, lsl #4
    3644:	0000260b 	andeq	r2, r0, fp, lsl #12
    3648:	01890200 	orreq	r0, r9, r0, lsl #4
    364c:	00000045 	andeq	r0, r0, r5, asr #32
    3650:	0b142302 	bleq	50c260 <_ram_end+0x307754>
    3654:	0000001d 	andeq	r0, r0, sp, lsl r0
    3658:	45018a02 	strmi	r8, [r1, #-2562]
    365c:	02000000 	andeq	r0, r0, #0	; 0x0
    3660:	ac0b1823 	stcge	8, cr1, [fp], {35}
    3664:	02000000 	andeq	r0, r0, #0	; 0x0
    3668:	04cf018b 	streqb	r0, [pc], #395	; 3670 <.debug_info+0x3670>
    366c:	23020000 	tstcs	r2, #0	; 0x0
    3670:	01a40b1c 	moveq	r0, ip, lsl fp
    3674:	8c020000 	stchi	0, cr0, [r2], {0}
    3678:	00004501 	andeq	r4, r0, r1, lsl #10
    367c:	20230200 	eorcs	r0, r3, r0, lsl #4
    3680:	0000380b 	andeq	r3, r0, fp, lsl #16
    3684:	018d0200 	orreq	r0, sp, r0, lsl #4
    3688:	00000045 	andeq	r0, r0, r5, asr #32
    368c:	0b242302 	bleq	90c29c <_ram_end+0x707790>
    3690:	000000b6 	streqh	r0, [r0], -r6
    3694:	d4018e02 	strle	r8, [r1], #-3586
    3698:	02000004 	andeq	r0, r0, #4	; 0x4
    369c:	7d0b2823 	stcvc	8, cr2, [fp, #-140]
    36a0:	02000000 	andeq	r0, r0, #0	; 0x0
    36a4:	0045018f 	subeq	r0, r5, pc, lsl #3
    36a8:	23020000 	tstcs	r2, #0	; 0x0
    36ac:	015d0b2c 	cmpeq	sp, ip, lsr #22
    36b0:	90020000 	andls	r0, r2, r0
    36b4:	00004501 	andeq	r4, r0, r1, lsl #10
    36b8:	30230200 	eorcc	r0, r3, r0, lsl #4
    36bc:	0000c00b 	andeq	ip, r0, fp
    36c0:	01910200 	orreqs	r0, r1, r0, lsl #4
    36c4:	000004d9 	ldreqd	r0, [r0], -r9
    36c8:	0b342302 	bleq	d0c2d8 <_ram_end+0xb077cc>
    36cc:	000000e1 	andeq	r0, r0, r1, ror #1
    36d0:	de019202 	cdple	2, 0, cr9, cr1, cr2, {0}
    36d4:	02000004 	andeq	r0, r0, #4	; 0x4
    36d8:	fb0b4023 	blx	2d376e <_ram_end+0xcec62>
    36dc:	02000000 	andeq	r0, r0, #0	; 0x0
    36e0:	04e30193 	streqbt	r0, [r3], #403
    36e4:	23020000 	tstcs	r2, #0	; 0x0
    36e8:	00750b4c 	rsbeqs	r0, r5, ip, asr #22
    36ec:	94020000 	strls	r0, [r2]
    36f0:	00004501 	andeq	r4, r0, r1, lsl #10
    36f4:	60230200 	eorvs	r0, r3, r0, lsl #4
    36f8:	0001050b 	andeq	r0, r1, fp, lsl #10
    36fc:	01950200 	orreqs	r0, r5, r0, lsl #4
    3700:	00000045 	andeq	r0, r0, r5, asr #32
    3704:	0b642302 	bleq	190c314 <_ram_end+0x1707808>
    3708:	00000191 	muleq	r0, r1, r1
    370c:	45019602 	strmi	r9, [r1, #-1538]
    3710:	02000000 	andeq	r0, r0, #0	; 0x0
    3714:	0a0b6823 	beq	2dd7a8 <_ram_end+0xd8c9c>
    3718:	02000000 	andeq	r0, r0, #0	; 0x0
    371c:	00450197 	umaaleq	r0, r5, r7, r1
    3720:	23020000 	tstcs	r2, #0	; 0x0
    3724:	5804006c 	stmplda	r4, {r2, r3, r5, r6}
    3728:	04000000 	streq	r0, [r0]
    372c:	00000058 	andeq	r0, r0, r8, asr r0
    3730:	00005804 	andeq	r5, r0, r4, lsl #16
    3734:	00780400 	rsbeqs	r0, r8, r0, lsl #8
    3738:	78040000 	stmvcda	r4, {}
    373c:	04000000 	streq	r0, [r0]
    3740:	00000088 	andeq	r0, r0, r8, lsl #1
    3744:	0000560c 	andeq	r5, r0, ip, lsl #12
    3748:	01980200 	orreqs	r0, r8, r0, lsl #4
    374c:	000004f4 	streqd	r0, [r0], -r4
    3750:	03900409 	orreqs	r0, r0, #150994944	; 0x9000000
    3754:	0a050000 	beq	14375c <.debug_info+0x14375c>
    3758:	45000005 	strmi	r0, [r0, #-5]
    375c:	06000000 	streq	r0, [r0], -r0
    3760:	00000051 	andeq	r0, r0, r1, asr r0
    3764:	b80d002b 	stmltda	sp, {r0, r1, r3, r5}
    3768:	37000006 	strcc	r0, [r0, -r6]
    376c:	2800000b 	stmcsda	r0, {r0, r1, r3}
    3770:	039e0201 	orreqs	r0, lr, #268435456	; 0x10000000
    3774:	000a7c0b 	andeq	r7, sl, fp, lsl #24
    3778:	039f0200 	orreqs	r0, pc, #0	; 0x0
    377c:	00000045 	andeq	r0, r0, r5, asr #32
    3780:	0b002302 	bleq	c390 <.debug_info+0xc390>
    3784:	000009b5 	streqh	r0, [r0], -r5
    3788:	4503a002 	strmi	sl, [r3, #-2]
    378c:	02000000 	andeq	r0, r0, #0	; 0x0
    3790:	750b0423 	strvc	r0, [fp, #-1059]
    3794:	0200000a 	andeq	r0, r0, #10	; 0xa
    3798:	004503a1 	subeq	r0, r5, r1, lsr #7
    379c:	23020000 	tstcs	r2, #0	; 0x0
    37a0:	0a460b08 	beq	11863c8 <_ram_end+0xf818bc>
    37a4:	a2020000 	andge	r0, r2, #0	; 0x0
    37a8:	00004503 	andeq	r4, r0, r3, lsl #10
    37ac:	0c230200 	sfmeq	f0, 4, [r3]
    37b0:	000bda0b 	andeq	sp, fp, fp, lsl #20
    37b4:	03a30200 	moveq	r0, #0	; 0x0
    37b8:	00000045 	andeq	r0, r0, r5, asr #32
    37bc:	0b102302 	bleq	40c3cc <_ram_end+0x2078c0>
    37c0:	00000be1 	andeq	r0, r0, r1, ror #23
    37c4:	4503a402 	strmi	sl, [r3, #-1026]
    37c8:	02000000 	andeq	r0, r0, #0	; 0x0
    37cc:	e50b1423 	str	r1, [fp, #-1059]
    37d0:	02000009 	andeq	r0, r0, #9	; 0x9
    37d4:	004503a5 	subeq	r0, r5, r5, lsr #7
    37d8:	23020000 	tstcs	r2, #0	; 0x0
    37dc:	0bf10b18 	bleq	ffc46444 <_ram_end+0xffa41938>
    37e0:	a6020000 	strge	r0, [r2], -r0
    37e4:	00004503 	andeq	r4, r0, r3, lsl #10
    37e8:	1c230200 	sfmne	f0, 4, [r3]
    37ec:	000a9a0b 	andeq	r9, sl, fp, lsl #20
    37f0:	03a70200 	moveq	r0, #0	; 0x0
    37f4:	00000045 	andeq	r0, r0, r5, asr #32
    37f8:	0b202302 	bleq	80c408 <_ram_end+0x6078fc>
    37fc:	00000c08 	andeq	r0, r0, r8, lsl #24
    3800:	4503a802 	strmi	sl, [r3, #-2050]
    3804:	02000000 	andeq	r0, r0, #0	; 0x0
    3808:	b90b2423 	stmltdb	fp, {r0, r1, r5, sl, sp}
    380c:	0200000b 	andeq	r0, r0, #11	; 0xb
    3810:	004503a9 	subeq	r0, r5, r9, lsr #7
    3814:	23020000 	tstcs	r2, #0	; 0x0
    3818:	00a20b28 	adceq	r0, r2, r8, lsr #22
    381c:	aa020000 	bge	83824 <.debug_info+0x83824>
    3820:	0006b803 	andeq	fp, r6, r3, lsl #16
    3824:	2c230200 	sfmcs	f0, 4, [r3]
    3828:	000bf80b 	andeq	pc, fp, fp, lsl #16
    382c:	03ab0200 	moveq	r0, #0	; 0x0
    3830:	00000045 	andeq	r0, r0, r5, asr #32
    3834:	0b402302 	bleq	100c444 <_ram_end+0xe07938>
    3838:	00000a68 	andeq	r0, r0, r8, ror #20
    383c:	4503ac02 	strmi	sl, [r3, #-3074]
    3840:	02000000 	andeq	r0, r0, #0	; 0x0
    3844:	ac0b4423 	cfstrsge	mvf4, [fp], {35}
    3848:	02000000 	andeq	r0, r0, #0	; 0x0
    384c:	06bd03ad 	ldreqt	r0, [sp], sp, lsr #7
    3850:	23020000 	tstcs	r2, #0	; 0x0
    3854:	0b650b48 	bleq	194657c <_ram_end+0x1741a70>
    3858:	ae020000 	cdpge	0, 0, cr0, cr2, cr0, {0}
    385c:	00004503 	andeq	r4, r0, r3, lsl #10
    3860:	4c230200 	sfmmi	f0, 4, [r3]
    3864:	0000b60b 	andeq	fp, r0, fp, lsl #12
    3868:	03af0200 	moveq	r0, #0	; 0x0
    386c:	000006c2 	andeq	r0, r0, r2, asr #13
    3870:	0b502302 	bleq	140c480 <_ram_end+0x1207974>
    3874:	00000b4d 	andeq	r0, r0, sp, asr #22
    3878:	4503b002 	strmi	fp, [r3, #-2]
    387c:	03000000 	tsteq	r0, #0	; 0x0
    3880:	0b028023 	bleq	a3914 <.debug_info+0xa3914>
    3884:	00000bb2 	streqh	r0, [r0], -r2
    3888:	4503b102 	strmi	fp, [r3, #-258]
    388c:	03000000 	tsteq	r0, #0	; 0x0
    3890:	0b028423 	bleq	a4924 <.debug_info+0xa4924>
    3894:	00000aaf 	andeq	r0, r0, pc, lsr #21
    3898:	4503b202 	strmi	fp, [r3, #-514]
    389c:	03000000 	tsteq	r0, #0	; 0x0
    38a0:	0b028823 	bleq	a5934 <.debug_info+0xa5934>
    38a4:	00000b0f 	andeq	r0, r0, pc, lsl #22
    38a8:	4503b302 	strmi	fp, [r3, #-770]
    38ac:	03000000 	tsteq	r0, #0	; 0x0
    38b0:	0b028c23 	bleq	a6944 <.debug_info+0xa6944>
    38b4:	00000b27 	andeq	r0, r0, r7, lsr #22
    38b8:	4503b402 	strmi	fp, [r3, #-1026]
    38bc:	03000000 	tsteq	r0, #0	; 0x0
    38c0:	0b029023 	bleq	a7954 <.debug_info+0xa7954>
    38c4:	00000b6b 	andeq	r0, r0, fp, ror #22
    38c8:	4503b502 	strmi	fp, [r3, #-1282]
    38cc:	03000000 	tsteq	r0, #0	; 0x0
    38d0:	0b029423 	bleq	a8964 <.debug_info+0xa8964>
    38d4:	00000b87 	andeq	r0, r0, r7, lsl #23
    38d8:	4503b602 	strmi	fp, [r3, #-1538]
    38dc:	03000000 	tsteq	r0, #0	; 0x0
    38e0:	0b029823 	bleq	a9974 <.debug_info+0xa9974>
    38e4:	00000c00 	andeq	r0, r0, r0, lsl #24
    38e8:	4503b702 	strmi	fp, [r3, #-1794]
    38ec:	03000000 	tsteq	r0, #0	; 0x0
    38f0:	0b029c23 	bleq	aa984 <.debug_info+0xaa984>
    38f4:	0000099c 	muleq	r0, ip, r9
    38f8:	4503b802 	strmi	fp, [r3, #-2050]
    38fc:	03000000 	tsteq	r0, #0	; 0x0
    3900:	0b02a023 	bleq	ab994 <.debug_info+0xab994>
    3904:	000009ca 	andeq	r0, r0, sl, asr #19
    3908:	4503b902 	strmi	fp, [r3, #-2306]
    390c:	03000000 	tsteq	r0, #0	; 0x0
    3910:	0002a423 	andeq	sl, r2, r3, lsr #8
    3914:	00008804 	andeq	r8, r0, r4, lsl #16
    3918:	00580400 	subeqs	r0, r8, r0, lsl #8
    391c:	fa040000 	blx	103924 <.debug_info+0x103924>
    3920:	0c000004 	stceq	0, cr0, [r0], {4}
    3924:	00000a8d 	andeq	r0, r0, sp, lsl #21
    3928:	d303ba02 	tstle	r3, #8192	; 0x2000
    392c:	09000006 	stmeqdb	r0, {r1, r2}
    3930:	00050a04 	andeq	r0, r5, r4, lsl #20
    3934:	07090e00 	streq	r0, [r9, -r0, lsl #28]
    3938:	73010000 	tstvc	r1, #0	; 0x0
    393c:	0100000b 	tsteq	r0, fp
    3940:	0f030116 	swieq	0x00030116
    3944:	00000aaa 	andeq	r0, r0, sl, lsr #21
    3948:	01311301 	teqeq	r1, r1, lsl #6
    394c:	a10f0000 	mrsge	r0, CPSR
    3950:	0100000b 	tsteq	r0, fp
    3954:	00070914 	andeq	r0, r7, r4, lsl r9
    3958:	0a6f0f00 	beq	1bc7560 <_ram_end+0x19c2a54>
    395c:	15010000 	strne	r0, [r1]
    3960:	0000004a 	andeq	r0, r0, sl, asr #32
    3964:	0f040900 	swieq	0x00040900
    3968:	03000007 	tsteq	r0, #7	; 0x7
    396c:	00000128 	andeq	r0, r0, r8, lsr #2
    3970:	3f100801 	swicc	0x00100801
    3974:	d9000007 	stmledb	r0, {r0, r1, r2}
    3978:	80000006 	andhi	r0, r0, r6
    397c:	8c002032 	stchi	0, cr2, [r0], {50}
    3980:	01002032 	tsteq	r0, r2, lsr r0
    3984:	06e7115d 	usateq	r1, #7, sp, ASR #2
    3988:	50010000 	andpl	r0, r1, r0
    398c:	0006f211 	andeq	pc, r6, r1, lsl r2
    3990:	11510100 	cmpne	r1, r0, lsl #2
    3994:	000006fd 	streqd	r0, [r0], -sp
    3998:	0e005201 	cdpeq	2, 0, cr5, cr0, cr1, {0}
    399c:	0000076f 	andeq	r0, r0, pc, ror #14
    39a0:	000afb01 	andeq	pc, sl, r1, lsl #22
    39a4:	011f0100 	tsteq	pc, r0, lsl #2
    39a8:	0aaa0f03 	beq	fea875bc <_ram_end+0xfe882ab0>
    39ac:	1c010000 	stcne	0, cr0, [r1], {0}
    39b0:	00000131 	andeq	r0, r0, r1, lsr r1
    39b4:	000ba10f 	andeq	sl, fp, pc, lsl #2
    39b8:	091d0100 	ldmeqdb	sp, {r8}
    39bc:	0f000007 	swieq	0x00000007
    39c0:	00000a6f 	andeq	r0, r0, pc, ror #20
    39c4:	004a1e01 	subeq	r1, sl, r1, lsl #28
    39c8:	10000000 	andne	r0, r0, r0
    39cc:	00000798 	muleq	r0, r8, r7
    39d0:	0000073f 	andeq	r0, r0, pc, lsr r7
    39d4:	0020328c 	eoreq	r3, r0, ip, lsl #5
    39d8:	00203298 	mlaeq	r0, r8, r2, r3
    39dc:	4d115d01 	ldcmi	13, cr5, [r1, #-4]
    39e0:	01000007 	tsteq	r0, r7
    39e4:	07581150 	undefined
    39e8:	51010000 	tstpl	r1, r0
    39ec:	00076311 	andeq	r6, r7, r1, lsl r3
    39f0:	00520100 	subeqs	r0, r2, r0, lsl #2
    39f4:	0007c80e 	andeq	ip, r7, lr, lsl #16
    39f8:	0bc10100 	bleq	ff043e00 <_ram_end+0xfee3f2f4>
    39fc:	28010000 	stmcsda	r1, {}
    3a00:	aa0f0301 	bge	3c460c <_ram_end+0x1bfb00>
    3a04:	0100000a 	tsteq	r0, sl
    3a08:	00013125 	andeq	r3, r1, r5, lsr #2
    3a0c:	0ba10f00 	bleq	fe847614 <_ram_end+0xfe642b08>
    3a10:	26010000 	strcs	r0, [r1], -r0
    3a14:	00000709 	andeq	r0, r0, r9, lsl #14
    3a18:	000a6f0f 	andeq	r6, sl, pc, lsl #30
    3a1c:	4a270100 	bmi	9c3e24 <_ram_end+0x7bf318>
    3a20:	00000000 	andeq	r0, r0, r0
    3a24:	0007f110 	andeq	pc, r7, r0, lsl r1
    3a28:	00079800 	andeq	r9, r7, r0, lsl #16
    3a2c:	20329800 	eorcss	r9, r2, r0, lsl #16
    3a30:	2032a400 	eorcss	sl, r2, r0, lsl #8
    3a34:	115d0100 	cmpne	sp, r0, lsl #2
    3a38:	000007a6 	andeq	r0, r0, r6, lsr #15
    3a3c:	b1115001 	tstlt	r1, r1
    3a40:	01000007 	tsteq	r0, r7
    3a44:	07bc1151 	undefined
    3a48:	52010000 	andpl	r0, r1, #0	; 0x0
    3a4c:	08210e00 	stmeqda	r1!, {r9, sl, fp}
    3a50:	4d010000 	stcmi	0, cr0, [r1]
    3a54:	0100000a 	tsteq	r0, sl
    3a58:	0f030131 	swieq	0x00030131
    3a5c:	00000aaa 	andeq	r0, r0, sl, lsr #21
    3a60:	01312e01 	teqeq	r1, r1, lsl #28
    3a64:	a10f0000 	mrsge	r0, CPSR
    3a68:	0100000b 	tsteq	r0, fp
    3a6c:	0007092f 	andeq	r0, r7, pc, lsr #18
    3a70:	0a6f0f00 	beq	1bc7678 <_ram_end+0x19c2b6c>
    3a74:	30010000 	andcc	r0, r1, r0
    3a78:	0000004a 	andeq	r0, r0, sl, asr #32
    3a7c:	084a1000 	stmeqda	sl, {ip}^
    3a80:	07f10000 	ldreqb	r0, [r1, r0]!
    3a84:	32a40000 	adccc	r0, r4, #0	; 0x0
    3a88:	32b00020 	adcccs	r0, r0, #32	; 0x20
    3a8c:	5d010020 	stcpl	0, cr0, [r1, #-128]
    3a90:	0007ff11 	andeq	pc, r7, r1, lsl pc
    3a94:	11500100 	cmpne	r0, r0, lsl #2
    3a98:	0000080a 	andeq	r0, r0, sl, lsl #16
    3a9c:	15115101 	ldrne	r5, [r1, #-257]
    3aa0:	01000008 	tsteq	r0, r8
    3aa4:	b40e0052 	strlt	r0, [lr], #-82
    3aa8:	01000008 	tsteq	r0, r8
    3aac:	00000a2d 	andeq	r0, r0, sp, lsr #20
    3ab0:	03013801 	tsteq	r1, #65536	; 0x10000
    3ab4:	000aaa0f 	andeq	sl, sl, pc, lsl #20
    3ab8:	31370100 	teqcc	r7, r0, lsl #2
    3abc:	12000001 	andne	r0, r0, #1	; 0x1
    3ac0:	00000878 	andeq	r0, r0, r8, ror r8
    3ac4:	0007db13 	andeq	sp, r7, r3, lsl fp
    3ac8:	07e21300 	streqb	r1, [r2, r0, lsl #6]!
    3acc:	e9130000 	ldmdb	r3, {}
    3ad0:	00000007 	andeq	r0, r0, r7
    3ad4:	00088d12 	andeq	r8, r8, r2, lsl sp
    3ad8:	08341300 	ldmeqda	r4!, {r8, r9, ip}
    3adc:	3b130000 	blcc	4c3ae4 <_ram_end+0x2befd8>
    3ae0:	13000008 	tstne	r0, #8	; 0x8
    3ae4:	00000842 	andeq	r0, r0, r2, asr #16
    3ae8:	08a21200 	stmeqia	r2!, {r9, ip}
    3aec:	29130000 	ldmcsdb	r3, {}
    3af0:	13000007 	tstne	r0, #7	; 0x7
    3af4:	00000730 	andeq	r0, r0, r0, lsr r7
    3af8:	00073713 	andeq	r3, r7, r3, lsl r7
    3afc:	13140000 	tstne	r4, #0	; 0x0
    3b00:	00000782 	andeq	r0, r0, r2, lsl #15
    3b04:	00078913 	andeq	r8, r7, r3, lsl r9
    3b08:	07901300 	ldreq	r1, [r0, r0, lsl #6]
    3b0c:	00000000 	andeq	r0, r0, r0
    3b10:	00095110 	andeq	r5, r9, r0, lsl r1
    3b14:	00084a00 	andeq	r4, r8, r0, lsl #20
    3b18:	2032b000 	eorcss	fp, r2, r0
    3b1c:	2032f800 	eorcss	pc, r2, r0, lsl #16
    3b20:	115d0100 	cmpne	sp, r0, lsl #2
    3b24:	00000858 	andeq	r0, r0, r8, asr r8
    3b28:	f1155001 	tstnv	r5, r1
    3b2c:	3f000008 	swicc	0x00000008
    3b30:	b0000007 	andlt	r0, r0, r7
    3b34:	b4002032 	strlt	r2, [r0], #-50
    3b38:	13002032 	tstne	r0, #50	; 0x32
    3b3c:	00000782 	andeq	r0, r0, r2, lsl #15
    3b40:	00078911 	andeq	r8, r7, r1, lsl r9
    3b44:	13530100 	cmpne	r3, #0	; 0x0
    3b48:	00000790 	muleq	r0, r0, r7
    3b4c:	09121500 	ldmeqdb	r2, {r8, sl, ip}
    3b50:	06d90000 	ldreqb	r0, [r9], r0
    3b54:	32d40000 	sbcccs	r0, r4, #0	; 0x0
    3b58:	32dc0020 	sbcccs	r0, ip, #32	; 0x20
    3b5c:	29130020 	ldmcsdb	r3, {r5}
    3b60:	13000007 	tstne	r0, #7	; 0x7
    3b64:	00000730 	andeq	r0, r0, r0, lsr r7
    3b68:	00073713 	andeq	r3, r7, r3, lsl r7
    3b6c:	33150000 	tstcc	r5, #0	; 0x0
    3b70:	f1000009 	cps	#9
    3b74:	dc000007 	stcle	0, cr0, [r0], {7}
    3b78:	e4002032 	str	r2, [r0], #-50
    3b7c:	13002032 	tstne	r0, #50	; 0x32
    3b80:	00000834 	andeq	r0, r0, r4, lsr r8
    3b84:	00083b13 	andeq	r3, r8, r3, lsl fp
    3b88:	08421300 	stmeqda	r2, {r8, r9, ip}^
    3b8c:	16000000 	strne	r0, [r0], -r0
    3b90:	00000798 	muleq	r0, r8, r7
    3b94:	002032e4 	eoreq	r3, r0, r4, ror #5
    3b98:	002032ec 	eoreq	r3, r0, ip, ror #5
    3b9c:	0007db13 	andeq	sp, r7, r3, lsl fp
    3ba0:	07e21300 	streqb	r1, [r2, r0, lsl #6]!
    3ba4:	e9130000 	ldmdb	r3, {}
    3ba8:	00000007 	andeq	r0, r0, r7
    3bac:	09851700 	stmeqib	r5, {r8, r9, sl, ip}
    3bb0:	f1010000 	setend	le
    3bb4:	01000009 	tsteq	r0, r9
    3bb8:	004a014c 	subeq	r0, sl, ip, asr #2
    3bbc:	0f010000 	swieq	0x00010000
    3bc0:	00000a5d 	andeq	r0, r0, sp, asr sl
    3bc4:	09854a01 	stmeqib	r5, {r0, r9, fp, lr}
    3bc8:	100f0000 	andne	r0, pc, r0
    3bcc:	0100000c 	tsteq	r0, ip
    3bd0:	0009854b 	andeq	r8, r9, fp, asr #10
    3bd4:	0ac11800 	beq	ff049bdc <_ram_end+0xfee450d0>
    3bd8:	4d010000 	stcmi	0, cr0, [r1]
    3bdc:	0000004a 	andeq	r0, r0, sl, asr #32
    3be0:	004a1900 	subeq	r1, sl, r0, lsl #18
    3be4:	b3100000 	tstlt	r0, #0	; 0x0
    3be8:	51000009 	tstpl	r0, r9
    3bec:	f8000009 	stmnvda	r0, {r0, r3}
    3bf0:	3c002032 	stccc	0, cr2, [r0], {50}
    3bf4:	01002033 	tsteq	r0, r3, lsr r0
    3bf8:	0963115b 	stmeqdb	r3!, {r0, r1, r3, r4, r6, r8, ip}^
    3bfc:	50010000 	andpl	r0, r1, r0
    3c00:	00096e11 	andeq	r6, r9, r1, lsl lr
    3c04:	1a510100 	bne	144400c <_ram_end+0x123f500>
    3c08:	00000979 	andeq	r0, r0, r9, ror r9
    3c0c:	0e005001 	cdpeq	0, 0, cr5, cr0, cr1, {0}
    3c10:	00000a67 	andeq	r0, r0, r7, ror #20
    3c14:	000ae801 	andeq	lr, sl, r1, lsl #16
    3c18:	015d0100 	cmpeq	sp, r0, lsl #2
    3c1c:	0a030f01 	beq	c7828 <.debug_info+0xc7828>
    3c20:	58010000 	stmplda	r1, {}
    3c24:	000006c7 	andeq	r0, r0, r7, asr #13
    3c28:	000a3c0f 	andeq	r3, sl, pc, lsl #24
    3c2c:	4a590100 	bmi	1644034 <_ram_end+0x143f528>
    3c30:	0f000000 	swieq	0x00000000
    3c34:	000009ec 	andeq	r0, r0, ip, ror #19
    3c38:	004a5a01 	subeq	r5, sl, r1, lsl #20
    3c3c:	160f0000 	strne	r0, [pc], -r0
    3c40:	0100000b 	tsteq	r0, fp
    3c44:	00004a5b 	andeq	r4, r0, fp, asr sl
    3c48:	09db0f00 	ldmeqib	fp, {r8, r9, sl, fp}^
    3c4c:	5c010000 	stcpl	0, cr0, [r1], {0}
    3c50:	0000004a 	andeq	r0, r0, sl, asr #32
    3c54:	000a5312 	andeq	r5, sl, r2, lsl r3
    3c58:	08c71300 	stmeqia	r7, {r8, r9, ip}^
    3c5c:	17120000 	ldrne	r0, [r2, -r0]
    3c60:	1300000a 	tstne	r0, #10	; 0xa
    3c64:	00000782 	andeq	r0, r0, r2, lsl #15
    3c68:	00078913 	andeq	r8, r7, r3, lsl r9
    3c6c:	07901300 	ldreq	r1, [r0, r0, lsl #6]
    3c70:	12000000 	andne	r0, r0, #0	; 0x0
    3c74:	00000a2c 	andeq	r0, r0, ip, lsr #20
    3c78:	00072913 	andeq	r2, r7, r3, lsl r9
    3c7c:	07301300 	ldreq	r1, [r0, -r0, lsl #6]!
    3c80:	37130000 	ldrcc	r0, [r3, -r0]
    3c84:	00000007 	andeq	r0, r0, r7
    3c88:	000a4112 	andeq	r4, sl, r2, lsl r1
    3c8c:	08341300 	ldmeqda	r4!, {r8, r9, ip}
    3c90:	3b130000 	blcc	4c3c98 <_ram_end+0x2bf18c>
    3c94:	13000008 	tstne	r0, #8	; 0x8
    3c98:	00000842 	andeq	r0, r0, r2, asr #16
    3c9c:	db131400 	blle	4c8ca4 <_ram_end+0x2c4198>
    3ca0:	13000007 	tstne	r0, #7	; 0x7
    3ca4:	000007e2 	andeq	r0, r0, r2, ror #15
    3ca8:	0007e913 	andeq	lr, r7, r3, lsl r9
    3cac:	14000000 	strne	r0, [r0]
    3cb0:	00099d13 	andeq	r9, r9, r3, lsl sp
    3cb4:	09a41300 	stmeqib	r4!, {r8, r9, ip}
    3cb8:	1b140000 	blne	503cc0 <_ram_end+0x2ff1b4>
    3cbc:	00000979 	andeq	r0, r0, r9, ror r9
    3cc0:	10000000 	andne	r0, r0, r0
    3cc4:	00000b62 	andeq	r0, r0, r2, ror #22
    3cc8:	000009b3 	streqh	r0, [r0], -r3
    3ccc:	0020333c 	eoreq	r3, r0, ip, lsr r3
    3cd0:	002033f0 	streqd	r3, [r0], -r0
    3cd4:	c1115b01 	tstgt	r1, r1, lsl #22
    3cd8:	01000009 	tsteq	r0, r9
    3cdc:	09cc1154 	stmeqib	ip, {r2, r4, r6, r8, ip}^
    3ce0:	51010000 	tstpl	r1, r0
    3ce4:	0009d711 	andeq	sp, r9, r1, lsl r7
    3ce8:	11550100 	cmpne	r5, r0, lsl #2
    3cec:	000009e2 	andeq	r0, r0, r2, ror #19
    3cf0:	ed115301 	ldc	3, cr5, [r1, #-4]
    3cf4:	01000009 	tsteq	r0, r9
    3cf8:	0ac61553 	beq	ff18924c <_ram_end+0xfef84740>
    3cfc:	09510000 	ldmeqdb	r1, {}^
    3d00:	33480000 	cmpcc	r8, #0	; 0x0
    3d04:	334c0020 	cmpcc	ip, #32	; 0x20
    3d08:	9d130020 	ldcls	0, cr0, [r3, #-128]
    3d0c:	13000009 	tstne	r0, #9	; 0x9
    3d10:	000009a4 	andeq	r0, r0, r4, lsr #19
    3d14:	0004901c 	andeq	r9, r4, ip, lsl r0
    3d18:	09791a00 	ldmeqdb	r9!, {r9, fp, ip}^
    3d1c:	50010000 	andpl	r0, r1, r0
    3d20:	df150000 	swile	0x00150000
    3d24:	4a00000a 	bmi	3d54 <.debug_info+0x3d54>
    3d28:	98000008 	stmlsda	r0, {r3}
    3d2c:	9c002033 	stcls	0, cr2, [r0], {51}
    3d30:	11002033 	tstne	r0, r3, lsr r0
    3d34:	000008c7 	andeq	r0, r0, r7, asr #17
    3d38:	15005101 	strne	r5, [r0, #-257]
    3d3c:	00000b02 	andeq	r0, r0, r2, lsl #22
    3d40:	0000073f 	andeq	r0, r0, pc, lsr r7
    3d44:	002033ac 	eoreq	r3, r0, ip, lsr #7
    3d48:	002033b0 	streqh	r3, [r0], -r0
    3d4c:	00078213 	andeq	r8, r7, r3, lsl r2
    3d50:	07891100 	streq	r1, [r9, r0, lsl #2]
    3d54:	50010000 	andpl	r0, r1, r0
    3d58:	00079013 	andeq	r9, r7, r3, lsl r0
    3d5c:	23150000 	tstcs	r5, #0	; 0x0
    3d60:	d900000b 	stmledb	r0, {r0, r1, r3}
    3d64:	c4000006 	strgt	r0, [r0], #-6
    3d68:	cc002033 	stcgt	0, cr2, [r0], {51}
    3d6c:	13002033 	tstne	r0, #51	; 0x33
    3d70:	00000729 	andeq	r0, r0, r9, lsr #14
    3d74:	00073013 	andeq	r3, r7, r3, lsl r0
    3d78:	07371300 	ldreq	r1, [r7, -r0, lsl #6]!
    3d7c:	15000000 	strne	r0, [r0]
    3d80:	00000b44 	andeq	r0, r0, r4, asr #22
    3d84:	000007f1 	streqd	r0, [r0], -r1
    3d88:	002033cc 	eoreq	r3, r0, ip, asr #7
    3d8c:	002033d4 	ldreqd	r3, [r0], -r4
    3d90:	00083413 	andeq	r3, r8, r3, lsl r4
    3d94:	083b1300 	ldmeqda	fp!, {r8, r9, ip}
    3d98:	42130000 	andmis	r0, r3, #0	; 0x0
    3d9c:	00000008 	andeq	r0, r0, r8
    3da0:	00079816 	andeq	r9, r7, r6, lsl r8
    3da4:	2033d400 	eorcss	sp, r3, r0, lsl #8
    3da8:	2033dc00 	eorcss	sp, r3, r0, lsl #24
    3dac:	07db1300 	ldreqb	r1, [fp, r0, lsl #6]
    3db0:	e2130000 	ands	r0, r3, #0	; 0x0
    3db4:	13000007 	tstne	r0, #7	; 0x7
    3db8:	000007e9 	andeq	r0, r0, r9, ror #15
    3dbc:	80170000 	andhis	r0, r7, r0
    3dc0:	0100000b 	tsteq	r0, fp
    3dc4:	00000a1e 	andeq	r0, r0, lr, lsl sl
    3dc8:	80017e01 	andhi	r7, r1, r1, lsl #28
    3dcc:	0100000b 	tsteq	r0, fp
    3dd0:	000a0318 	andeq	r0, sl, r8, lsl r3
    3dd4:	877f0100 	ldrhib	r0, [pc, -r0, lsl #2]!
    3dd8:	0000000b 	andeq	r0, r0, fp
    3ddc:	746e691d 	strvcbt	r6, [lr], #-2333
    3de0:	04050400 	streq	r0, [r5], #-1024
    3de4:	000006c7 	andeq	r0, r0, r7, asr #13
    3de8:	000ba810 	andeq	sl, fp, r0, lsl r8
    3dec:	000b6200 	andeq	r6, fp, r0, lsl #4
    3df0:	2033f000 	eorcss	pc, r3, r0
    3df4:	20341c00 	eorcss	r1, r4, r0, lsl #24
    3df8:	1a5d0100 	bne	1744200 <_ram_end+0x153f6f4>
    3dfc:	00000b74 	andeq	r0, r0, r4, ror fp
    3e00:	00009102 	andeq	r9, r0, r2, lsl #2
    3e04:	000bed1e 	andeq	lr, fp, lr, lsl sp
    3e08:	09bb0100 	ldmeqib	fp!, {r8}
    3e0c:	76010000 	strvc	r0, [r1], -r0
    3e10:	20341c01 	eorcss	r1, r4, r1, lsl #24
    3e14:	20344400 	eorcss	r4, r4, r0, lsl #8
    3e18:	1f5d0100 	swine	0x005d0100
    3e1c:	00000bed 	andeq	r0, r0, sp, ror #23
    3e20:	000b6216 	andeq	r6, fp, r6, lsl r2
    3e24:	20342800 	eorcss	r2, r4, r0, lsl #16
    3e28:	20343c00 	eorcss	r3, r4, r0, lsl #24
    3e2c:	0b741a00 	bleq	1d0a634 <_ram_end+0x1b05b28>
    3e30:	91020000 	tstls	r2, r0
    3e34:	34282000 	strcct	r2, [r8]
    3e38:	343c0020 	ldrcct	r0, [ip], #-32
    3e3c:	741a0020 	ldrvc	r0, [sl], #-32
    3e40:	0200000b 	andeq	r0, r0, #11	; 0xb
    3e44:	00000091 	muleq	r0, r1, r0
    3e48:	1e012100 	adfnes	f2, f1, f0
    3e4c:	0100000a 	tsteq	r0, sl
    3e50:	0b80017e 	bleq	fe004450 <_ram_end+0xfddff944>
    3e54:	1e010000 	cdpne	0, 0, cr0, cr1, cr0, {0}
    3e58:	00000c50 	andeq	r0, r0, r0, asr ip
    3e5c:	00091f01 	andeq	r1, r9, r1, lsl #30
    3e60:	018f0100 	orreq	r0, pc, r0, lsl #2
    3e64:	00203444 	eoreq	r3, r0, r4, asr #8
    3e68:	002034a4 	eoreq	r3, r0, r4, lsr #9
    3e6c:	63225d01 	teqvs	r2, #64	; 0x40
    3e70:	808e0100 	addhi	r0, lr, r0, lsl #2
    3e74:	0100000b 	tsteq	r0, fp
    3e78:	0a032350 	beq	ccbc0 <.debug_info+0xccbc0>
    3e7c:	90010000 	andls	r0, r1, r0
    3e80:	00000b87 	andeq	r0, r0, r7, lsl #23
    3e84:	16049102 	strne	r9, [r4], -r2, lsl #2
    3e88:	00000c50 	andeq	r0, r0, r0, asr ip
    3e8c:	0020346c 	eoreq	r3, r0, ip, ror #8
    3e90:	00203480 	eoreq	r3, r0, r0, lsl #9
    3e94:	000c5b1a 	andeq	r5, ip, sl, lsl fp
    3e98:	00910200 	addeqs	r0, r1, r0, lsl #4
    3e9c:	0004c01c 	andeq	ip, r4, ip, lsl r0
    3ea0:	0c5b1a00 	mrrceq	10, 0, r1, fp, cr0
    3ea4:	91020000 	tstls	r2, r0
    3ea8:	00000000 	andeq	r0, r0, r0
    3eac:	000c6524 	andeq	r6, ip, r4, lsr #10
    3eb0:	01006400 	tsteq	r0, r0, lsl #8
    3eb4:	25010187 	strcs	r0, [r1, #-391]
    3eb8:	8801006c 	stmhida	r1, {r2, r3, r5, r6}
    3ebc:	00000c65 	andeq	r0, r0, r5, ror #24
    3ec0:	0c6a0400 	cfstrdeq	mvd0, [sl]
    3ec4:	54030000 	strpl	r0, [r3]
    3ec8:	0400000b 	streq	r0, [r0], #-11
    3ecc:	0c9b2605 	ldceq	6, cr2, [fp], {5}
    3ed0:	0b010000 	bleq	43ed8 <.debug_info+0x43ed8>
    3ed4:	01000003 	tsteq	r0, r3
    3ed8:	0b8001a1 	bleq	fe004564 <_ram_end+0xfddffa58>
    3edc:	34a40000 	strcct	r0, [r4]
    3ee0:	34c80020 	strccb	r0, [r8], #32
    3ee4:	5d010020 	stcpl	0, cr0, [r1, #-128]
    3ee8:	000a0323 	andeq	r0, sl, r3, lsr #6
    3eec:	87a20100 	strhi	r0, [r2, r0, lsl #2]!
    3ef0:	0200000b 	andeq	r0, r0, #11	; 0xb
    3ef4:	26000091 	undefined
    3ef8:	00000cc5 	andeq	r0, r0, r5, asr #25
    3efc:	0008ba01 	andeq	fp, r8, r1, lsl #20
    3f00:	01ab0100 	moveq	r0, r0, lsl #2
    3f04:	00000b80 	andeq	r0, r0, r0, lsl #23
    3f08:	002034c8 	eoreq	r3, r0, r8, asr #9
    3f0c:	002034fc 	streqd	r3, [r0], -ip
    3f10:	03235d01 	teqeq	r3, #64	; 0x40
    3f14:	0100000a 	tsteq	r0, sl
    3f18:	000b87ac 	andeq	r8, fp, ip, lsr #15
    3f1c:	00910200 	addeqs	r0, r1, r0, lsl #4
    3f20:	0cec1e00 	stceql	14, cr1, [ip]
    3f24:	a4010000 	strge	r0, [r1]
    3f28:	01000009 	tsteq	r0, r9
    3f2c:	34fc01b7 	ldrccbt	r0, [ip], #439
    3f30:	35000020 	strcc	r0, [r0, #-32]
    3f34:	5d010020 	stcpl	0, cr0, [r1, #-128]
    3f38:	00cf0127 	sbceq	r0, pc, r7, lsr #2
    3f3c:	b8010000 	stmltda	r1, {}
    3f40:	00000b80 	andeq	r0, r0, r0, lsl #23
    3f44:	00002801 	andeq	r2, r0, r1, lsl #16
    3f48:	000d131e 	andeq	r1, sp, lr, lsl r3
    3f4c:	0b8f0100 	bleq	fe3c4354 <_ram_end+0xfe1bf848>
    3f50:	be010000 	cdplt	0, 0, cr0, cr1, cr0, {0}
    3f54:	20350001 	eorcss	r0, r5, r1
    3f58:	20350400 	eorcss	r0, r5, r0, lsl #8
    3f5c:	275d0100 	ldrcsb	r0, [sp, -r0, lsl #2]
    3f60:	00008f01 	andeq	r8, r0, r1, lsl #30
    3f64:	80c00100 	sbchi	r0, r0, r0, lsl #2
    3f68:	0100000b 	tsteq	r0, fp
    3f6c:	1e000028 	cdpne	0, 0, cr0, cr0, cr8, {1}
    3f70:	00000d69 	andeq	r0, r0, r9, ror #26
    3f74:	000a0a01 	andeq	r0, sl, r1, lsl #20
    3f78:	01c50100 	biceq	r0, r5, r0, lsl #2
    3f7c:	00203504 	eoreq	r3, r0, r4, lsl #10
    3f80:	00203574 	eoreq	r3, r0, r4, ror r5
    3f84:	03235b01 	teqeq	r3, #1024	; 0x400
    3f88:	0100000a 	tsteq	r0, sl
    3f8c:	0006c7c6 	andeq	ip, r6, r6, asr #15
    3f90:	23540100 	cmpcs	r4, #0	; 0x0
    3f94:	0000076e 	andeq	r0, r0, lr, ror #14
    3f98:	004ac701 	subeq	ip, sl, r1, lsl #14
    3f9c:	55010000 	strpl	r0, [r1]
    3fa0:	20354c20 	eorcss	r4, r5, r0, lsr #24
    3fa4:	20355800 	eorcss	r5, r5, r0, lsl #16
    3fa8:	00632900 	rsbeq	r2, r3, r0, lsl #18
    3fac:	0025d001 	eoreq	sp, r5, r1
    3fb0:	50010000 	andpl	r0, r1, r0
    3fb4:	08930127 	ldmeqia	r3, {r0, r1, r2, r5, r8}
    3fb8:	d1010000 	tstle	r1, r0
    3fbc:	00000b80 	andeq	r0, r0, r0, lsl #23
    3fc0:	00002801 	andeq	r2, r0, r1, lsl #16
    3fc4:	0e6d1e00 	cdpeq	14, 6, cr1, cr13, cr0, {0}
    3fc8:	a5010000 	strge	r0, [r1]
    3fcc:	01000002 	tsteq	r0, r2
    3fd0:	357401eb 	ldrccb	r0, [r4, #-491]!
    3fd4:	36340020 	ldrcct	r0, [r4], -r0, lsr #32
    3fd8:	5d010020 	stcpl	0, cr0, [r1, #-128]
    3fdc:	000a0323 	andeq	r0, sl, r3, lsr #6
    3fe0:	87ec0100 	strhib	r0, [ip, r0, lsl #2]!
    3fe4:	0200000b 	andeq	r0, r0, #11	; 0xb
    3fe8:	68230091 	stmvsda	r3!, {r0, r4, r7}
    3fec:	01000006 	tsteq	r0, r6
    3ff0:	00037eed 	andeq	r7, r3, sp, ror #29
    3ff4:	23520100 	cmpcs	r2, #0	; 0x0
    3ff8:	000000ca 	andeq	r0, r0, sl, asr #1
    3ffc:	04e8ee01 	streqbt	lr, [r8], #3585
    4000:	5e010000 	cdppl	0, 0, cr0, cr1, cr0, {0}
    4004:	0009b316 	andeq	fp, r9, r6, lsl r3
    4008:	2035b400 	eorcss	fp, r5, r0, lsl #8
    400c:	20362000 	eorcss	r2, r6, r0
    4010:	0a7a1100 	beq	1e88418 <_ram_end+0x1c8390c>
    4014:	5c010000 	stcpl	0, cr0, [r1], {0}
    4018:	000a8113 	andeq	r8, sl, r3, lsl r1
    401c:	0a881100 	beq	fe208424 <_ram_end+0xfe003918>
    4020:	53010000 	tstpl	r1, #0	; 0x0
    4024:	000a8f13 	andeq	r8, sl, r3, lsl pc
    4028:	0a961300 	beq	fe588c30 <_ram_end+0xfe384124>
    402c:	eb150000 	bl	544034 <_ram_end+0x33f528>
    4030:	4a00000d 	bmi	406c <.debug_info+0x406c>
    4034:	cc000008 	stcgt	0, cr0, [r0], {8}
    4038:	d0002035 	andle	r2, r0, r5, lsr r0
    403c:	11002035 	tstne	r0, r5, lsr r0
    4040:	000008c7 	andeq	r0, r0, r7, asr #17
    4044:	15005101 	strne	r5, [r0, #-257]
    4048:	00000e0c 	andeq	r0, r0, ip, lsl #28
    404c:	0000073f 	andeq	r0, r0, pc, lsr r7
    4050:	002035ec 	eoreq	r3, r0, ip, ror #11
    4054:	002035f0 	streqd	r3, [r0], -r0
    4058:	00078213 	andeq	r8, r7, r3, lsl r2
    405c:	07891300 	streq	r1, [r9, r0, lsl #6]
    4060:	90130000 	andlss	r0, r3, r0
    4064:	00000007 	andeq	r0, r0, r7
    4068:	000e2d15 	andeq	r2, lr, r5, lsl sp
    406c:	0006d900 	andeq	sp, r6, r0, lsl #18
    4070:	2035f800 	eorcss	pc, r5, r0, lsl #16
    4074:	20360000 	eorcss	r0, r6, r0
    4078:	07291300 	streq	r1, [r9, -r0, lsl #6]!
    407c:	30130000 	andccs	r0, r3, r0
    4080:	13000007 	tstne	r0, #7	; 0x7
    4084:	00000737 	andeq	r0, r0, r7, lsr r7
    4088:	0e4e1500 	cdpeq	5, 4, cr1, cr14, cr0, {0}
    408c:	07f10000 	ldreqb	r0, [r1, r0]!
    4090:	36000000 	strcc	r0, [r0], -r0
    4094:	36080020 	strcc	r0, [r8], -r0, lsr #32
    4098:	34130020 	ldrcc	r0, [r3], #-32
    409c:	13000008 	tstne	r0, #8	; 0x8
    40a0:	0000083b 	andeq	r0, r0, fp, lsr r8
    40a4:	00084213 	andeq	r4, r8, r3, lsl r2
    40a8:	98160000 	ldmlsda	r6, {}
    40ac:	08000007 	stmeqda	r0, {r0, r1, r2}
    40b0:	10002036 	andne	r2, r0, r6, lsr r0
    40b4:	13002036 	tstne	r0, #54	; 0x36
    40b8:	000007db 	ldreqd	r0, [r0], -fp
    40bc:	0007e213 	andeq	lr, r7, r3, lsl r2
    40c0:	07e91300 	streqb	r1, [r9, r0, lsl #6]!
    40c4:	00000000 	andeq	r0, r0, r0
    40c8:	0a822a00 	beq	fe08e8d0 <_ram_end+0xfde89dc4>
    40cc:	0a010000 	beq	440d4 <.debug_info+0x440d4>
    40d0:	0000003e 	andeq	r0, r0, lr, lsr r0
    40d4:	08030501 	stmeqda	r3, {r0, r8, sl}
    40d8:	0000204b 	andeq	r2, r0, fp, asr #32
    40dc:	000004ca 	andeq	r0, r0, sl, asr #9
    40e0:	0f5e0002 	swieq	0x005e0002
    40e4:	01040000 	tsteq	r4, r0
    40e8:	00000d43 	andeq	r0, r0, r3, asr #26
    40ec:	00203b30 	eoreq	r3, r0, r0, lsr fp
    40f0:	00203634 	eoreq	r3, r0, r4, lsr r6
    40f4:	00000069 	andeq	r0, r0, r9, rrx
    40f8:	000c6601 	andeq	r6, ip, r1, lsl #12
    40fc:	00012d00 	andeq	r2, r1, r0, lsl #26
    4100:	0c6f0200 	sfmeq	f0, 2, [pc]
    4104:	2b020000 	blcs	8410c <.debug_info+0x8410c>
    4108:	00000030 	andeq	r0, r0, r0, lsr r0
    410c:	76020403 	strvc	r0, [r2], -r3, lsl #8
    4110:	0200000c 	andeq	r0, r0, #12	; 0xc
    4114:	00002569 	andeq	r2, r0, r9, ror #10
    4118:	012c0400 	teqeq	ip, r0, lsl #8
    411c:	bd010000 	stclt	0, cr0, [r1]
    4120:	01000001 	tsteq	r0, r1
    4124:	012c010c 	teqeq	ip, ip, lsl #2
    4128:	36340000 	ldrcct	r0, [r4], -r0
    412c:	38500020 	ldmccda	r0, {r5}^
    4130:	5b010020 	blpl	441b8 <.debug_info+0x441b8>
    4134:	000c7e05 	andeq	r7, ip, r5, lsl #28
    4138:	330b0100 	tstcc	fp, #0	; 0x0
    413c:	01000001 	tsteq	r0, r1
    4140:	68070657 	stmvsda	r7, {r0, r1, r2, r4, r6, r9, sl}
    4144:	01007865 	tsteq	r0, r5, ror #16
    4148:	00015c0d 	andeq	r5, r1, sp, lsl #24
    414c:	ac030500 	cfstr32ge	mvfx0, [r3], {0}
    4150:	08002043 	stmeqda	r0, {r0, r1, r6, sp}
    4154:	00000c3b 	andeq	r0, r0, fp, lsr ip
    4158:	013e0e01 	teqeq	lr, r1, lsl #28
    415c:	53010000 	tstpl	r1, #0	; 0x0
    4160:	000c4708 	andeq	r4, ip, r8, lsl #14
    4164:	610f0100 	tstvs	pc, r0, lsl #2
    4168:	01000001 	tsteq	r0, r1
    416c:	0c2d0854 	stceq	8, cr0, [sp], #-336
    4170:	0f010000 	swieq	0x00010000
    4174:	00000161 	andeq	r0, r0, r1, ror #2
    4178:	9c085501 	cfstr32ls	mvfx5, [r8], {1}
    417c:	0100000c 	tsteq	r0, ip
    4180:	0001610f 	andeq	r6, r1, pc, lsl #2
    4184:	09580100 	ldmeqdb	r8, {r8}^
    4188:	00000792 	muleq	r0, r2, r7
    418c:	01610f01 	cmneq	r1, r1, lsl #30
    4190:	70070000 	andvc	r0, r7, r0
    4194:	01007274 	tsteq	r0, r4, ror r2
    4198:	00016810 	andeq	r6, r1, r0, lsl r8
    419c:	07540100 	ldreqb	r0, [r4, -r0, lsl #2]
    41a0:	01007061 	tsteq	r0, r1, rrx
    41a4:	00003211 	andeq	r3, r0, r1, lsl r2
    41a8:	0a5a0100 	beq	16845b0 <_ram_end+0x147faa4>
    41ac:	00000c8c 	andeq	r0, r0, ip, lsl #25
    41b0:	37403201 	strccb	r3, [r0, -r1, lsl #4]
    41b4:	f70b0020 	strnv	r0, [fp, -r0, lsr #32]
    41b8:	5c000000 	stcpl	0, cr0, [r0], {0}
    41bc:	68002036 	stmvsda	r0, {r1, r2, r4, r5, sp}
    41c0:	0c002036 	stceq	0, cr2, [r0], {54}
    41c4:	00092501 	andeq	r2, r9, r1, lsl #10
    41c8:	2c1a0100 	ldfcss	f0, [sl], {0}
    41cc:	01000001 	tsteq	r0, r1
    41d0:	0d000006 	stceq	0, cr0, [r0, #-24]
    41d4:	00203704 	eoreq	r3, r0, r4, lsl #14
    41d8:	00203850 	eoreq	r3, r0, r0, asr r8
    41dc:	0001130e 	andeq	r1, r1, lr, lsl #6
    41e0:	09250100 	stmeqdb	r5!, {r8}
    41e4:	1a010000 	bne	441ec <.debug_info+0x441ec>
    41e8:	0000012c 	andeq	r0, r0, ip, lsr #2
    41ec:	0f000601 	swieq	0x00000601
    41f0:	000004d8 	ldreqd	r0, [r0], -r8
    41f4:	000c3508 	andeq	r3, ip, r8, lsl #10
    41f8:	6e3c0100 	rsfvse	f0, f4, f0
    41fc:	05000001 	streq	r0, [r0, #-1]
    4200:	20456803 	subcs	r6, r5, r3, lsl #16
    4204:	00000000 	andeq	r0, r0, r0
    4208:	746e6910 	strvcbt	r6, [lr], #-2320
    420c:	11050400 	tstne	r5, r0, lsl #8
    4210:	00013904 	andeq	r3, r1, r4, lsl #18
    4214:	013e1200 	teqeq	lr, r0, lsl #4
    4218:	28130000 	ldmcsda	r3, {}
    421c:	01000001 	tsteq	r0, r1
    4220:	01551407 	cmpeq	r5, r7, lsl #8
    4224:	01390000 	teqeq	r9, r0
    4228:	55150000 	ldrpl	r0, [r5]
    422c:	10000001 	andne	r0, r0, r1
    4230:	010d1300 	tsteq	sp, r0, lsl #6
    4234:	07040000 	streq	r0, [r4, -r0]
    4238:	00014512 	andeq	r4, r1, r2, lsl r5
    423c:	01121300 	tsteq	r2, r0, lsl #6
    4240:	07040000 	streq	r0, [r4, -r0]
    4244:	013e0411 	teqeq	lr, r1, lsl r4
    4248:	7e140000 	wxorvc	wr0, wr4, wr0
    424c:	2c000001 	stccs	0, cr0, [r0], {1}
    4250:	15000001 	strne	r0, [r0, #-1]
    4254:	00000155 	andeq	r0, r0, r5, asr r1
    4258:	e1040008 	tst	r4, r8
    425c:	01000001 	tsteq	r0, r1
    4260:	00000cab 	andeq	r0, r0, fp, lsr #25
    4264:	e1015c01 	tst	r1, r1, lsl #24
    4268:	50000001 	andpl	r0, r0, r1
    426c:	70002038 	andvc	r2, r0, r8, lsr r0
    4270:	01002038 	tsteq	r0, r8, lsr r0
    4274:	0074165d 	rsbeqs	r1, r4, sp, asr r6
    4278:	01e15b01 	mvneq	r5, r1, lsl #22
    427c:	50010000 	andpl	r0, r1, r0
    4280:	01006616 	tsteq	r0, r6, lsl r6
    4284:	0001e35b 	andeq	lr, r1, fp, asr r3
    4288:	16510100 	ldrneb	r0, [r1], -r0, lsl #2
    428c:	5b01006e 	blpl	4444c <.debug_info+0x4444c>
    4290:	000001ea 	andeq	r0, r0, sl, ror #3
    4294:	74075201 	strvc	r5, [r7], #-513
    4298:	5d01006f 	stcpl	0, cr0, [r1, #-444]
    429c:	00000168 	andeq	r0, r0, r8, ror #2
    42a0:	21085001 	tstcs	r8, r1
    42a4:	0100000c 	tsteq	r0, ip
    42a8:	0001685e 	andeq	r6, r1, lr, asr r8
    42ac:	07510100 	ldreqb	r0, [r1, -r0, lsl #2]
    42b0:	006e656c 	rsbeq	r6, lr, ip, ror #10
    42b4:	012c5f01 	teqeq	ip, r1, lsl #30
    42b8:	52010000 	andpl	r0, r1, #0	; 0x0
    42bc:	11040300 	tstne	r4, r0, lsl #6
    42c0:	0001e904 	andeq	lr, r1, r4, lsl #18
    42c4:	0d131700 	ldceq	7, cr1, [r3]
    42c8:	04000001 	streq	r0, [r0], #-1
    42cc:	02520407 	subeqs	r0, r2, #117440512	; 0x7000000
    42d0:	5f010000 	swipl	0x00010000
    42d4:	0100000c 	tsteq	r0, ip
    42d8:	01e10168 	mvneq	r0, r8, ror #2
    42dc:	38700000 	ldmccda	r0!, {}^
    42e0:	38940020 	ldmccia	r4, {r5}
    42e4:	5d010020 	stcpl	0, cr0, [r1, #-128]
    42e8:	01007416 	tsteq	r0, r6, lsl r4
    42ec:	0001e167 	andeq	lr, r1, r7, ror #2
    42f0:	16500100 	ldrneb	r0, [r0], -r0, lsl #2
    42f4:	67010063 	strvs	r0, [r1, -r3, rrx]
    42f8:	0000012c 	andeq	r0, r0, ip, lsr #2
    42fc:	6e165101 	mufvss	f5, f6, f1
    4300:	2c670100 	stfcse	f0, [r7]
    4304:	01000001 	tsteq	r0, r1
    4308:	6f740752 	swivs	0x00740752
    430c:	68690100 	stmvsda	r9!, {r8}^
    4310:	01000001 	tsteq	r0, r1
    4314:	0c1a0953 	ldceq	9, cr0, [sl], {83}
    4318:	6a010000 	bvs	44320 <.debug_info+0x44320>
    431c:	00000168 	andeq	r0, r0, r8, ror #2
    4320:	6e656c07 	cdpvs	12, 6, cr6, cr5, cr7, {0}
    4324:	2c6b0100 	stfcse	f0, [fp]
    4328:	01000001 	tsteq	r0, r1
    432c:	a1040052 	qaddge	r0, r2, r4
    4330:	01000002 	tsteq	r0, r2
    4334:	00000c4d 	andeq	r0, r0, sp, asr #24
    4338:	68017401 	stmvsda	r1, {r0, sl, ip, sp, lr}
    433c:	94000001 	strls	r0, [r0], #-1
    4340:	c8002038 	stmgtda	r0, {r3, r4, r5, sp}
    4344:	01002038 	tsteq	r0, r8, lsr r0
    4348:	6f74165d 	swivs	0x0074165d
    434c:	68730100 	ldmvsda	r3!, {r8}^
    4350:	01000001 	tsteq	r0, r1
    4354:	0c210550 	cfstr32eq	mvfx0, [r1], #-320
    4358:	73010000 	tstvc	r1, #0	; 0x0
    435c:	00000168 	andeq	r0, r0, r8, ror #2
    4360:	6c165101 	ldfvss	f5, [r6], {1}
    4364:	01006e65 	tsteq	r0, r5, ror #28
    4368:	00012c73 	andeq	r2, r1, r3, ror ip
    436c:	08520100 	ldmeqda	r2, {r8}^
    4370:	000007dd 	ldreqd	r0, [r0], -sp
    4374:	01687501 	cmneq	r8, r1, lsl #10
    4378:	5c010000 	stcpl	0, cr0, [r1], {0}
    437c:	02d50400 	sbceqs	r0, r5, #0	; 0x0
    4380:	85010000 	strhi	r0, [r1]
    4384:	0100000c 	tsteq	r0, ip
    4388:	012c017d 	teqeq	ip, sp, ror r1
    438c:	38c80000 	stmccia	r8, {}^
    4390:	39200020 	stmccdb	r0!, {r5}
    4394:	5d010020 	stcpl	0, cr0, [r1, #-128]
    4398:	00317316 	eoreqs	r7, r1, r6, lsl r3
    439c:	01687c01 	cmneq	r8, r1, lsl #24
    43a0:	5e010000 	cdppl	0, 0, cr0, cr1, cr0, {0}
    43a4:	00327316 	eoreqs	r7, r2, r6, lsl r3
    43a8:	01687c01 	cmneq	r8, r1, lsl #24
    43ac:	51010000 	tstpl	r1, r0
    43b0:	03140400 	tsteq	r4, #0	; 0x0
    43b4:	c7010000 	strgt	r0, [r1, -r0]
    43b8:	0100000c 	tsteq	r0, ip
    43bc:	012c0188 	smlawbeq	ip, r8, r1, r0
    43c0:	39200000 	stmccdb	r0!, {}
    43c4:	397c0020 	ldmccdb	ip!, {r5}^
    43c8:	5d010020 	stcpl	0, cr0, [r1, #-128]
    43cc:	00317316 	eoreqs	r7, r1, r6, lsl r3
    43d0:	01688701 	cmneq	r8, r1, lsl #14
    43d4:	54010000 	strpl	r0, [r1]
    43d8:	00327316 	eoreqs	r7, r2, r6, lsl r3
    43dc:	01688701 	cmneq	r8, r1, lsl #14
    43e0:	51010000 	tstpl	r1, r0
    43e4:	01006e16 	tsteq	r0, r6, lsl lr
    43e8:	00012c87 	andeq	r2, r1, r7, lsl #25
    43ec:	00520100 	subeqs	r0, r2, r0, lsl #2
    43f0:	00034804 	andeq	r4, r3, r4, lsl #16
    43f4:	05430100 	streqb	r0, [r3, #-256]
    43f8:	95010000 	strls	r0, [r1]
    43fc:	00012c01 	andeq	r2, r1, r1, lsl #24
    4400:	20397c00 	eorcss	r7, r9, r0, lsl #24
    4404:	2039a400 	eorcss	sl, r9, r0, lsl #8
    4408:	165d0100 	ldrneb	r0, [sp], -r0, lsl #2
    440c:	94010073 	strls	r0, [r1], #-115
    4410:	00000168 	andeq	r0, r0, r8, ror #2
    4414:	6c075001 	stcvs	0, cr5, [r7], {1}
    4418:	01006e65 	tsteq	r0, r5, ror #28
    441c:	00012c96 	muleq	r1, r6, ip
    4420:	00500100 	subeqs	r0, r0, r0, lsl #2
    4424:	00037d04 	andeq	r7, r3, r4, lsl #26
    4428:	0c260100 	stfeqs	f0, [r6]
    442c:	9c010000 	stcls	0, cr0, [r1], {0}
    4430:	00016801 	andeq	r6, r1, r1, lsl #16
    4434:	2039a400 	eorcss	sl, r9, r0, lsl #8
    4438:	2039c800 	eorcss	ip, r9, r0, lsl #16
    443c:	165d0100 	ldrneb	r0, [sp], -r0, lsl #2
    4440:	00727473 	rsbeqs	r7, r2, r3, ror r4
    4444:	01339b01 	teqeq	r3, r1, lsl #22
    4448:	50010000 	andpl	r0, r1, r0
    444c:	00686316 	rsbeq	r6, r8, r6, lsl r3
    4450:	012c9b01 	teqeq	ip, r1, lsl #22
    4454:	51010000 	tstpl	r1, r0
    4458:	03c71800 	biceq	r1, r7, #0	; 0x0
    445c:	bc010000 	stclt	0, cr0, [r1], {0}
    4460:	0100000c 	tsteq	r0, ip
    4464:	01ea01a9 	mvneq	r0, r9, lsr #3
    4468:	19010000 	stmnedb	r1, {}
    446c:	006d756e 	rsbeq	r7, sp, lr, ror #10
    4470:	01eaa801 	mvneq	sl, r1, lsl #16
    4474:	64190000 	ldrvs	r0, [r9]
    4478:	01006e65 	tsteq	r0, r5, ror #28
    447c:	0001eaa8 	andeq	lr, r1, r8, lsr #21
    4480:	0ca11a00 	fstmiaseq	r1!, {s2-s1}
    4484:	a8010000 	stmgeda	r1, {}
    4488:	0000012c 	andeq	r0, r0, ip, lsr #2
    448c:	7469621b 	strvcbt	r6, [r9], #-539
    4490:	eaaa0100 	b	fea84898 <_ram_end+0xfe87fd8c>
    4494:	1b000001 	blne	44a0 <.debug_info+0x44a0>
    4498:	00736572 	rsbeqs	r6, r3, r2, ror r5
    449c:	01eaab01 	mvneq	sl, r1, lsl #22
    44a0:	1c000000 	stcne	0, cr0, [r0], {0}
    44a4:	000003fe 	streqd	r0, [r0], -lr
    44a8:	0000037d 	andeq	r0, r0, sp, ror r3
    44ac:	002039c8 	eoreq	r3, r0, r8, asr #19
    44b0:	00203a58 	eoreq	r3, r0, r8, asr sl
    44b4:	8f1d5d01 	swihi	0x001d5d01
    44b8:	01000003 	tsteq	r0, r3
    44bc:	039a1d50 	orreqs	r1, sl, #5120	; 0x1400
    44c0:	51010000 	tstpl	r1, r0
    44c4:	0003a51d 	andeq	sl, r3, sp, lsl r5
    44c8:	1e520100 	rdfnes	f0, f2, f0
    44cc:	000003b0 	streqh	r0, [r0], -r0
    44d0:	bb1e5c01 	bllt	79b4dc <_ram_end+0x5969d0>
    44d4:	01000003 	tsteq	r0, r3
    44d8:	6504005e 	strvs	r0, [r4, #-94]
    44dc:	01000004 	tsteq	r0, r4
    44e0:	00000cb2 	streqh	r0, [r0], -r2
    44e4:	6501c201 	strvs	ip, [r1, #-513]
    44e8:	58000004 	stmplda	r0, {r2}
    44ec:	cc00203a 	stcgt	0, cr2, [r0], {58}
    44f0:	0100203a 	tsteq	r0, sl, lsr r0
    44f4:	0061165d 	rsbeq	r1, r1, sp, asr r6
    44f8:	0465c101 	streqbt	ip, [r5], #-257
    44fc:	5e010000 	cdppl	0, 0, cr0, cr1, cr0, {0}
    4500:	01006216 	tsteq	r0, r6, lsl r2
    4504:	000465c1 	andeq	r6, r4, r1, asr #11
    4508:	1f510100 	swine	0x00510100
    450c:	0000037d 	andeq	r0, r0, sp, ror r3
    4510:	00203a58 	eoreq	r3, r0, r8, asr sl
    4514:	00203a5c 	eoreq	r3, r0, ip, asr sl
    4518:	0003da1d 	andeq	sp, r3, sp, lsl sl
    451c:	1d5c0100 	ldfnee	f0, [ip]
    4520:	000003e1 	andeq	r0, r0, r1, ror #7
    4524:	e8205101 	stmda	r0!, {r0, r8, ip, lr}
    4528:	0f000003 	swieq	0x00000003
    452c:	000004f0 	streqd	r0, [r0], -r0
    4530:	0003b01e 	andeq	fp, r3, lr, lsl r0
    4534:	1e520100 	rdfnes	f0, f2, f0
    4538:	000003bb 	streqh	r0, [r0], -fp
    453c:	00005001 	andeq	r5, r0, r1
    4540:	0b541300 	bleq	1509148 <_ram_end+0x130463c>
    4544:	05040000 	streq	r0, [r4]
    4548:	0c550121 	ldfeqe	f0, [r5], {33}
    454c:	c8010000 	stmgtda	r1, {}
    4550:	00046501 	andeq	r6, r4, r1, lsl #10
    4554:	203acc00 	eorcss	ip, sl, r0, lsl #24
    4558:	203b3000 	eorcss	r3, fp, r0
    455c:	165d0100 	ldrneb	r0, [sp], -r0, lsl #2
    4560:	c7010061 	strgt	r0, [r1, -r1, rrx]
    4564:	00000465 	andeq	r0, r0, r5, ror #8
    4568:	62165c01 	andvss	r5, r6, #256	; 0x100
    456c:	65c70100 	strvsb	r0, [r7, #256]
    4570:	01000004 	tsteq	r0, r4
    4574:	037d1f51 	cmneq	sp, #324	; 0x144
    4578:	3acc0000 	bcc	ff304580 <_ram_end+0xff0ffa74>
    457c:	3ad00020 	bcc	ff404604 <_ram_end+0xff1ffaf8>
    4580:	da1d0020 	ble	744608 <_ram_end+0x53fafc>
    4584:	01000003 	tsteq	r0, r3
    4588:	03e11d50 	mvneq	r1, #5120	; 0x1400
    458c:	51010000 	tstpl	r1, r0
    4590:	0003e820 	andeq	lr, r3, r0, lsr #16
    4594:	05080f00 	streq	r0, [r8, #-3840]
    4598:	b01e0000 	andlts	r0, lr, r0
    459c:	01000003 	tsteq	r0, r3
    45a0:	03bb2252 	moveqs	r2, #536870917	; 0x20000005
    45a4:	00000000 	andeq	r0, r0, r0
    45a8:	05be0000 	ldreq	r0, [lr]!
    45ac:	00020000 	andeq	r0, r2, r0
    45b0:	00001103 	andeq	r1, r0, r3, lsl #2
    45b4:	0e8f0104 	rmfeqe	f0, f7, f4
    45b8:	43ac0000 	movmi	r0, #0	; 0x0
    45bc:	3b300020 	blcc	c04644 <_ram_end+0x9ffb38>
    45c0:	00690020 	rsbeq	r0, r9, r0, lsr #32
    45c4:	6d010000 	stcvs	0, cr0, [r1]
    45c8:	2d00000d 	stccs	0, cr0, [r0, #-52]
    45cc:	02000001 	andeq	r0, r0, #1	; 0x1
    45d0:	0000011f 	andeq	r0, r0, pc, lsl r1
    45d4:	75020801 	strvc	r0, [r2, #-2049]
    45d8:	02000001 	andeq	r0, r0, #1	; 0x1
    45dc:	010d0207 	tsteq	sp, r7, lsl #4
    45e0:	07040000 	streq	r0, [r4, -r0]
    45e4:	00008803 	andeq	r8, r0, r3, lsl #16
    45e8:	07110100 	ldreq	r0, [r1, -r0, lsl #2]
    45ec:	0d010000 	stceq	0, cr0, [r1]
    45f0:	00008801 	andeq	r8, r0, r1, lsl #16
    45f4:	203b3000 	eorcss	r3, fp, r0
    45f8:	203b6000 	eorcss	r6, fp, r0
    45fc:	045d0100 	ldreqb	r0, [sp], #-256
    4600:	0c010073 	stceq	0, cr0, [r1], {115}
    4604:	0000008f 	andeq	r0, r0, pc, lsl #1
    4608:	6c045001 	stcvs	0, cr5, [r4], {1}
    460c:	01006e65 	tsteq	r0, r5, ror #28
    4610:	0000880c 	andeq	r8, r0, ip, lsl #16
    4614:	04510100 	ldreqb	r0, [r1], #-256
    4618:	00727470 	rsbeqs	r7, r2, r0, ror r4
    461c:	008f0c01 	addeq	r0, pc, r1, lsl #24
    4620:	52010000 	andpl	r0, r1, #0	; 0x0
    4624:	000d6805 	andeq	r6, sp, r5, lsl #16
    4628:	880c0100 	stmhida	ip, {r8}
    462c:	01000000 	tsteq	r0, r0
    4630:	69060053 	stmvsdb	r6, {r0, r1, r4, r6}
    4634:	0400746e 	streq	r7, [r0], #-1134
    4638:	95040705 	strls	r0, [r4, #-1797]
    463c:	02000000 	andeq	r0, r0, #0	; 0x0
    4640:	00000128 	andeq	r0, r0, r8, lsr #2
    4644:	e6030801 	str	r0, [r3], -r1, lsl #16
    4648:	01000000 	tsteq	r0, r0
    464c:	0000069e 	muleq	r0, lr, r6
    4650:	88011601 	stmhida	r1, {r0, r9, sl, ip}
    4654:	60000000 	andvs	r0, r0, r0
    4658:	dc00203b 	stcle	0, cr2, [r0], {59}
    465c:	0100203b 	tsteq	r0, fp, lsr r0
    4660:	0073045d 	rsbeqs	r0, r3, sp, asr r4
    4664:	008f1501 	addeq	r1, pc, r1, lsl #10
    4668:	50010000 	andpl	r0, r1, r0
    466c:	6e656c04 	cdpvs	12, 6, cr6, cr5, cr4, {0}
    4670:	88150100 	ldmhida	r5, {r8}
    4674:	01000000 	tsteq	r0, r0
    4678:	006c045e 	rsbeq	r0, ip, lr, asr r4
    467c:	00881501 	addeq	r1, r8, r1, lsl #10
    4680:	52010000 	andpl	r0, r1, #0	; 0x0
    4684:	01007704 	tsteq	r0, r4, lsl #14
    4688:	0000e615 	andeq	lr, r0, r5, lsl r6
    468c:	005c0100 	subeqs	r0, ip, r0, lsl #2
    4690:	00011202 	andeq	r1, r1, r2, lsl #4
    4694:	08070400 	stmeqda	r7, {sl}
    4698:	0000011b 	andeq	r0, r0, fp, lsl r1
    469c:	000ccf01 	andeq	ip, ip, r1, lsl #30
    46a0:	012e0100 	teqeq	lr, r0, lsl #2
    46a4:	00203bdc 	ldreqd	r3, [r0], -ip
    46a8:	00203c08 	eoreq	r3, r0, r8, lsl #24
    46ac:	73045d01 	tstvc	r4, #64	; 0x40
    46b0:	8f2d0100 	swihi	0x002d0100
    46b4:	01000000 	tsteq	r0, r0
    46b8:	00630450 	rsbeq	r0, r3, r0, asr r4
    46bc:	00952d01 	addeqs	r2, r5, r1, lsl #26
    46c0:	51010000 	tstpl	r1, r0
    46c4:	013e0900 	teqeq	lr, r0, lsl #18
    46c8:	8f010000 	swihi	0x00010000
    46cc:	01000006 	tsteq	r0, r6
    46d0:	0a010138 	beq	44bb8 <.debug_info+0x44bb8>
    46d4:	37010073 	smlsdxcc	r1, r3, r0, r0
    46d8:	0000008f 	andeq	r0, r0, pc, lsl #1
    46dc:	000cd70b 	andeq	sp, ip, fp, lsl #14
    46e0:	3e370100 	rsfccs	f0, f7, f0
    46e4:	00000001 	andeq	r0, r0, r1
    46e8:	01440407 	cmpeq	r4, r7, lsl #8
    46ec:	950c0000 	strls	r0, [ip]
    46f0:	0d000000 	stceq	0, cr0, [r0]
    46f4:	0000016b 	andeq	r0, r0, fp, ror #2
    46f8:	0000011b 	andeq	r0, r0, fp, lsl r1
    46fc:	00203c08 	eoreq	r3, r0, r8, lsl #24
    4700:	00203c40 	eoreq	r3, r0, r0, asr #24
    4704:	290e5d01 	stmcsdb	lr, {r0, r8, sl, fp, ip, lr}
    4708:	01000001 	tsteq	r0, r1
    470c:	01320e50 	teqeq	r2, r0, asr lr
    4710:	51010000 	tstpl	r1, r0
    4714:	01af0800 	moveq	r0, r0, lsl #16
    4718:	a6010000 	strge	r0, [r1], -r0
    471c:	01000006 	tsteq	r0, r6
    4720:	3c400147 	stfcce	f0, [r0], {71}
    4724:	3c8c0020 	stccc	0, cr0, [ip], {32}
    4728:	5d010020 	stcpl	0, cr0, [r1, #-128]
    472c:	01007304 	tsteq	r0, r4, lsl #6
    4730:	00008f46 	andeq	r8, r0, r6, asr #30
    4734:	04500100 	ldreqb	r0, [r0], #-256
    4738:	46010069 	strmi	r0, [r1], -r9, rrx
    473c:	000000e6 	andeq	r0, r0, r6, ror #1
    4740:	6a0f5101 	bvs	3d8b4c <_ram_end+0x1d4040>
    4744:	88480100 	stmhida	r8, {r8}^
    4748:	01000000 	tsteq	r0, r0
    474c:	006b0f5c 	rsbeq	r0, fp, ip, asr pc
    4750:	00884901 	addeq	r4, r8, r1, lsl #18
    4754:	53010000 	tstpl	r1, #0	; 0x0
    4758:	03300800 	teqeq	r0, #0	; 0x0
    475c:	77010000 	strvc	r0, [r1, -r0]
    4760:	0100000d 	tsteq	r0, sp
    4764:	3c8c0168 	stfccs	f0, [ip], {104}
    4768:	3fa00020 	swicc	0x00a00020
    476c:	5b010020 	blpl	447f4 <.debug_info+0x447f4>
    4770:	01007304 	tsteq	r0, r4, lsl #6
    4774:	00008f67 	andeq	r8, r0, r7, ror #30
    4778:	04580100 	ldreqb	r0, [r8], #-256
    477c:	67010069 	strvs	r0, [r1, -r9, rrx]
    4780:	00000088 	andeq	r0, r0, r8, lsl #1
    4784:	30055501 	andcc	r5, r5, r1, lsl #10
    4788:	0100000d 	tsteq	r0, sp
    478c:	00008867 	andeq	r8, r0, r7, ror #16
    4790:	10560100 	subnes	r0, r6, r0, lsl #2
    4794:	00000d3b 	andeq	r0, r0, fp, lsr sp
    4798:	00886901 	addeq	r6, r8, r1, lsl #18
    479c:	50010000 	andpl	r0, r1, r0
    47a0:	000cf610 	andeq	pc, ip, r0, lsl r6
    47a4:	886a0100 	stmhida	sl!, {r8}^
    47a8:	01000000 	tsteq	r0, r0
    47ac:	006a0f5a 	rsbeq	r0, sl, sl, asr pc
    47b0:	00886b01 	addeq	r6, r8, r1, lsl #22
    47b4:	54010000 	strpl	r0, [r1]
    47b8:	0100630f 	tsteq	r0, pc, lsl #6
    47bc:	0000956c 	andeq	r9, r0, ip, ror #10
    47c0:	10530100 	subnes	r0, r3, r0, lsl #2
    47c4:	00000cdc 	ldreqd	r0, [r0], -ip
    47c8:	03306d01 	teqeq	r0, #64	; 0x40
    47cc:	91030000 	tstls	r3, r0
    47d0:	6f0f7fb8 	swivs	0x000f7fb8
    47d4:	8f6e0100 	swihi	0x006e0100
    47d8:	01000000 	tsteq	r0, r0
    47dc:	02531157 	subeqs	r1, r3, #-1073741803	; 0xc0000015
    47e0:	011b0000 	tsteq	fp, r0
    47e4:	3d080000 	stccc	0, cr0, [r8]
    47e8:	3d480020 	stcccl	0, cr0, [r8, #-128]
    47ec:	5c0e0020 	stcpl	0, cr0, [lr], {32}
    47f0:	01000001 	tsteq	r0, r1
    47f4:	01630e52 	cmneq	r3, r2, asr lr
    47f8:	51010000 	tstpl	r1, r0
    47fc:	02731100 	rsbeqs	r1, r3, #0	; 0x0
    4800:	011b0000 	tsteq	fp, r0
    4804:	3d580000 	ldcccl	0, cr0, [r8]
    4808:	3d980020 	ldccc	0, cr0, [r8, #128]
    480c:	5c0e0020 	stcpl	0, cr0, [lr], {32}
    4810:	01000001 	tsteq	r0, r1
    4814:	01630e52 	cmneq	r3, r2, asr lr
    4818:	51010000 	tstpl	r1, r0
    481c:	02931100 	addeqs	r1, r3, #0	; 0x0
    4820:	011b0000 	tsteq	fp, r0
    4824:	3de80000 	stcccl	0, cr0, [r8]
    4828:	3e280020 	cdpcc	0, 2, cr0, cr8, cr0, {1}
    482c:	5c0e0020 	stcpl	0, cr0, [lr], {32}
    4830:	01000001 	tsteq	r0, r1
    4834:	01630e50 	cmneq	r3, r0, asr lr
    4838:	52010000 	andpl	r0, r1, #0	; 0x0
    483c:	02b31100 	adceqs	r1, r3, #0	; 0x0
    4840:	011b0000 	tsteq	fp, r0
    4844:	3e300000 	cdpcc	0, 3, cr0, cr0, cr0, {0}
    4848:	3e380020 	cdpcc	0, 3, cr0, cr8, cr0, {1}
    484c:	5c0e0020 	stcpl	0, cr0, [lr], {32}
    4850:	01000001 	tsteq	r0, r1
    4854:	01630e52 	cmneq	r3, r2, asr lr
    4858:	51010000 	tstpl	r1, r0
    485c:	02d31100 	sbceqs	r1, r3, #0	; 0x0
    4860:	011b0000 	tsteq	fp, r0
    4864:	3e780000 	cdpcc	0, 7, cr0, cr8, cr0, {0}
    4868:	3eb00020 	cdpcc	0, 11, cr0, cr0, cr0, {1}
    486c:	5c0e0020 	stcpl	0, cr0, [lr], {32}
    4870:	01000001 	tsteq	r0, r1
    4874:	01630e52 	cmneq	r3, r2, asr lr
    4878:	51010000 	tstpl	r1, r0
    487c:	02f31100 	rsceqs	r1, r3, #0	; 0x0
    4880:	011b0000 	tsteq	fp, r0
    4884:	3ebc0000 	cdpcc	0, 11, cr0, cr12, cr0, {0}
    4888:	3ef40020 	cdpcc	0, 15, cr0, cr4, cr0, {1}
    488c:	5c0e0020 	stcpl	0, cr0, [lr], {32}
    4890:	01000001 	tsteq	r0, r1
    4894:	01630e52 	cmneq	r3, r2, asr lr
    4898:	51010000 	tstpl	r1, r0
    489c:	03131100 	tsteq	r3, #0	; 0x0
    48a0:	011b0000 	tsteq	fp, r0
    48a4:	3f000000 	swicc	0x00000000
    48a8:	3f380020 	swicc	0x00380020
    48ac:	5c0e0020 	stcpl	0, cr0, [lr], {32}
    48b0:	01000001 	tsteq	r0, r1
    48b4:	01630e52 	cmneq	r3, r2, asr lr
    48b8:	51010000 	tstpl	r1, r0
    48bc:	011b1200 	tsteq	fp, r0, lsl #4
    48c0:	3f440000 	swicc	0x00440000
    48c4:	3fa00020 	swicc	0x00a00020
    48c8:	5c0e0020 	stcpl	0, cr0, [lr], {32}
    48cc:	01000001 	tsteq	r0, r1
    48d0:	01630e52 	cmneq	r3, r2, asr lr
    48d4:	51010000 	tstpl	r1, r0
    48d8:	40130000 	andmis	r0, r3, r0
    48dc:	95000003 	strls	r0, [r0, #-3]
    48e0:	14000000 	strne	r0, [r0]
    48e4:	00000340 	andeq	r0, r0, r0, asr #6
    48e8:	0d020020 	stceq	0, cr0, [r2, #-128]
    48ec:	04000001 	streq	r0, [r0], #-1
    48f0:	03750807 	cmneq	r5, #458752	; 0x70000
    48f4:	e3010000 	tst	r1, #0	; 0x0
    48f8:	0100000c 	tsteq	r0, ip
    48fc:	3fa0015c 	swicc	0x00a0015c
    4900:	3fa80020 	swicc	0x00a80020
    4904:	5d010020 	stcpl	0, cr0, [r1, #-128]
    4908:	01007304 	tsteq	r0, r4, lsl #6
    490c:	00008f5b 	andeq	r8, r0, fp, asr pc
    4910:	04500100 	ldreqb	r0, [r0], #-256
    4914:	5b010069 	blpl	44ac0 <.debug_info+0x44ac0>
    4918:	00000088 	andeq	r0, r0, r8, lsl #1
    491c:	03005101 	tsteq	r0, #1073741824	; 0x40000000
    4920:	00000468 	andeq	r0, r0, r8, ror #8
    4924:	000ceb01 	andeq	lr, ip, r1, lsl #22
    4928:	01b20100 	moveqs	r0, r0, lsl #2
    492c:	00000088 	andeq	r0, r0, r8, lsl #1
    4930:	00203fa8 	eoreq	r3, r0, r8, lsr #31
    4934:	0020420c 	eoreq	r4, r0, ip, lsl #4
    4938:	73045b01 	tstvc	r4, #1024	; 0x400
    493c:	3eb10100 	frdccs	f0, f1, f0
    4940:	02000001 	andeq	r0, r0, #1	; 0x1
    4944:	11055491 	strneb	r5, [r5, -r1]
    4948:	0100000d 	tsteq	r0, sp
    494c:	000088b1 	streqh	r8, [r0], -r1
    4950:	05510100 	ldreqb	r0, [r1, #-256]
    4954:	00000d30 	andeq	r0, r0, r0, lsr sp
    4958:	0088b101 	addeq	fp, r8, r1, lsl #2
    495c:	57010000 	strpl	r0, [r1, -r0]
    4960:	000d2205 	andeq	r2, sp, r5, lsl #4
    4964:	68b10100 	ldmvsia	r1!, {r8}
    4968:	02000004 	andeq	r0, r0, #4	; 0x4
    496c:	740f5091 	strvc	r5, [pc], #145	; 4974 <.debug_info+0x4974>
    4970:	3eb30100 	frdccs	f0, f3, f0
    4974:	01000001 	tsteq	r0, r1
    4978:	0d361058 	ldceq	0, cr1, [r6, #-352]!
    497c:	b4010000 	strlt	r0, [r1]
    4980:	0000013e 	andeq	r0, r0, lr, lsr r1
    4984:	630f5901 	tstvs	pc, #16384	; 0x4000
    4988:	95b50100 	ldrls	r0, [r5, #256]!
    498c:	01000000 	tsteq	r0, r0
    4990:	00690f51 	rsbeq	r0, r9, r1, asr pc
    4994:	0088b601 	addeq	fp, r8, r1, lsl #12
    4998:	56010000 	strpl	r0, [r1], -r0
    499c:	00736e0f 	rsbeqs	r6, r3, pc, lsl #28
    49a0:	0088b701 	addeq	fp, r8, r1, lsl #14
    49a4:	91020000 	tstls	r2, r0
    49a8:	736e154c 	cmnvc	lr, #318767104	; 0x13000000
    49ac:	b8010032 	stmltda	r1, {r1, r4, r5}
    49b0:	00000088 	andeq	r0, r0, r8, lsl #1
    49b4:	00756e0f 	rsbeqs	r6, r5, pc, lsl #28
    49b8:	00e6b901 	rsceq	fp, r6, r1, lsl #18
    49bc:	91020000 	tstls	r2, r0
    49c0:	756e1548 	strvcb	r1, [lr, #-1352]!
    49c4:	ba010032 	blt	44a94 <.debug_info+0x44a94>
    49c8:	000000e6 	andeq	r0, r0, r6, ror #1
    49cc:	0100760f 	tsteq	r0, pc, lsl #12
    49d0:	000088bb 	streqh	r8, [r0], -fp
    49d4:	105a0100 	subnes	r0, sl, r0, lsl #2
    49d8:	00000d00 	andeq	r0, r0, r0, lsl #26
    49dc:	0088bc01 	addeq	fp, r8, r1, lsl #24
    49e0:	91020000 	tstls	r2, r0
    49e4:	0d171044 	ldceq	0, cr1, [r7, #-272]
    49e8:	bd010000 	stclt	0, cr0, [r1]
    49ec:	00000088 	andeq	r0, r0, r8, lsl #1
    49f0:	16409102 	strneb	r9, [r0], -r2, lsl #2
    49f4:	002041cc 	eoreq	r4, r0, ip, asr #3
    49f8:	002041dc 	ldreqd	r4, [r0], -ip
    49fc:	05430117 	streqb	r0, [r3, #-279]
    4a00:	00020000 	andeq	r0, r2, r0
    4a04:	00003301 	andeq	r3, r0, r1, lsl #6
    4a08:	3e180100 	mufcce	f0, f0, f0
    4a0c:	00000001 	andeq	r0, r0, r1
    4a10:	04070000 	streq	r0, [r7]
    4a14:	00000088 	andeq	r0, r0, r8, lsl #1
    4a18:	0004d819 	andeq	sp, r4, r9, lsl r8
    4a1c:	06ae0100 	streqt	r0, [lr], r0, lsl #2
    4a20:	1f010000 	swine	0x00010000
    4a24:	420c0101 	andmi	r0, ip, #1073741824	; 0x40000000
    4a28:	42a40020 	adcmi	r0, r4, #32	; 0x20
    4a2c:	5b010020 	blpl	44ab4 <.debug_info+0x44ab4>
    4a30:	0100731a 	tsteq	r0, sl, lsl r3
    4a34:	013e011e 	teqeq	lr, lr, lsl r1
    4a38:	55010000 	strpl	r0, [r1]
    4a3c:	0100611a 	tsteq	r0, sl, lsl r1
    4a40:	04d8011e 	ldreqb	r0, [r8], #286
    4a44:	57010000 	strpl	r0, [r1, -r0]
    4a48:	0100621a 	tsteq	r0, sl, lsl r2
    4a4c:	04d8011e 	ldreqb	r0, [r8], #286
    4a50:	58010000 	stmplda	r1, {}
    4a54:	0100711b 	tsteq	r0, fp, lsl r1
    4a58:	013e0120 	teqeq	lr, r0, lsr #2
    4a5c:	741b0000 	ldrvc	r0, [fp]
    4a60:	01210100 	teqeq	r1, r0, lsl #2
    4a64:	0000008f 	andeq	r0, r0, pc, lsl #1
    4a68:	0c260117 	stfeqs	f0, [r6], #-92
    4a6c:	00020000 	andeq	r0, r2, r0
    4a70:	00008f01 	andeq	r8, r0, r1, lsl #30
    4a74:	3e180100 	mufcce	f0, f0, f0
    4a78:	18000001 	stmneda	r0, {r0}
    4a7c:	00000088 	andeq	r0, r0, r8, lsl #1
    4a80:	04070000 	streq	r0, [r7]
    4a84:	000000e6 	andeq	r0, r0, r6, ror #1
    4a88:	0005af1c 	andeq	sl, r5, ip, lsl pc
    4a8c:	0d4d0100 	stfeqe	f0, [sp]
    4a90:	33010000 	tstcc	r1, #0	; 0x0
    4a94:	00880101 	addeq	r0, r8, r1, lsl #2
    4a98:	42a40000 	adcmi	r0, r4, #0	; 0x0
    4a9c:	43ac0020 	movmi	r0, #32	; 0x20
    4aa0:	5b010020 	blpl	44b28 <.debug_info+0x44b28>
    4aa4:	0100731a 	tsteq	r0, sl, lsl r3
    4aa8:	013e0132 	teqeq	lr, r2, lsr r1
    4aac:	54010000 	strpl	r0, [r1]
    4ab0:	74756f1a 	ldrvcbt	r6, [r5], #-3866
    4ab4:	01320100 	teqeq	r2, r0, lsl #2
    4ab8:	00000468 	andeq	r0, r0, r8, ror #8
    4abc:	091d5a01 	ldmeqdb	sp, {r0, r9, fp, ip, lr}
    4ac0:	01000007 	tsteq	r0, r7
    4ac4:	00880132 	addeq	r0, r8, r2, lsr r1
    4ac8:	58010000 	stmplda	r1, {}
    4acc:	000d221d 	andeq	r2, sp, sp, lsl r2
    4ad0:	01320100 	teqeq	r2, r0, lsl #2
    4ad4:	00000468 	andeq	r0, r0, r8, ror #8
    4ad8:	711b5701 	tstvc	fp, r1, lsl #14
    4adc:	01340100 	teqeq	r4, r0, lsl #2
    4ae0:	0000013e 	andeq	r0, r0, lr, lsr r1
    4ae4:	0100721e 	tsteq	r0, lr, lsl r2
    4ae8:	013e0135 	teqeq	lr, r5, lsr r1
    4aec:	51010000 	tstpl	r1, r0
    4af0:	0100691e 	tsteq	r0, lr, lsl r9
    4af4:	00880136 	addeq	r0, r8, r6, lsr r1
    4af8:	50010000 	andpl	r0, r1, r0
    4afc:	0100761e 	tsteq	r0, lr, lsl r6
    4b00:	00880137 	addeq	r0, r8, r7, lsr r1
    4b04:	91020000 	tstls	r2, r0
    4b08:	0d091f54 	stceq	15, cr1, [r9, #-336]
    4b0c:	38010000 	stmccda	r1, {}
    4b10:	00008801 	andeq	r8, r0, r1, lsl #16
    4b14:	20560100 	subcss	r0, r6, r0, lsl #2
    4b18:	00000590 	muleq	r0, r0, r5
    4b1c:	00000520 	andeq	r0, r0, r0, lsr #10
    4b20:	0c260117 	stfeqs	f0, [r6], #-92
    4b24:	00020000 	andeq	r0, r2, r0
    4b28:	00008f01 	andeq	r8, r0, r1, lsl #30
    4b2c:	3e180100 	mufcce	f0, f0, f0
    4b30:	18000001 	stmneda	r0, {r0}
    4b34:	00000088 	andeq	r0, r0, r8, lsl #1
    4b38:	94160000 	ldrls	r0, [r6]
    4b3c:	a4002043 	strge	r2, [r0], #-67
    4b40:	17002043 	strne	r2, [r0, -r3, asr #32]
    4b44:	00054301 	andeq	r4, r5, r1, lsl #6
    4b48:	01000200 	tsteq	r0, r0, lsl #4
    4b4c:	00000033 	andeq	r0, r0, r3, lsr r0
    4b50:	013e1801 	teqeq	lr, r1, lsl #16
    4b54:	00000000 	andeq	r0, r0, r0
    4b58:	0d282100 	stfeqs	f2, [r8]
    4b5c:	08010000 	stmeqda	r1, {}
    4b60:	000000e6 	andeq	r0, r0, r6, ror #1
    4b64:	8c030501 	cfstr32hi	mvfx0, [r3], {1}
    4b68:	00002045 	andeq	r2, r0, r5, asr #32
Disassembly of section .debug_line:

00000000 <.debug_line>:
       0:	00000070 	andeq	r0, r0, r0, ror r0
       4:	002f0002 	eoreq	r0, pc, r2
       8:	01020000 	tsteq	r2, r0
       c:	000a0efb 	streqd	r0, [sl], -fp
      10:	01010101 	tsteq	r1, r1, lsl #2
      14:	01000000 	tsteq	r0, r0
      18:	61747300 	cmnvs	r4, r0, lsl #6
      1c:	70757472 	rsbvcs	r7, r5, r2, ror r4
      20:	0000632e 	andeq	r6, r0, lr, lsr #6
      24:	54410000 	strplb	r0, [r1]
      28:	41533139 	cmpmi	r3, r9, lsr r1
      2c:	3153374d 	cmpcc	r3, sp, asr #14
      30:	682e3832 	stmvsda	lr!, {r1, r4, r5, fp, ip, sp}
      34:	00000000 	andeq	r0, r0, r0
      38:	02050000 	andeq	r0, r5, #0	; 0x0
      3c:	0020015c 	eoreq	r0, r0, ip, asr r1
      40:	28011503 	stmcsda	r1, {r0, r1, r8, sl, ip}
      44:	03303029 	teqeq	r0, #41	; 0x29
      48:	0c032b77 	stceq	11, cr2, [r3], {119}
      4c:	7003302b 	andvc	r3, r3, fp, lsr #32
      50:	03302e2b 	teqeq	r0, #688	; 0x2b0
      54:	0c032b77 	stceq	11, cr2, [r3], {119}
      58:	7803302b 	stmvcda	r3, {r0, r1, r3, r5, ip, sp}
      5c:	2e282e2b 	cdpcs	14, 2, cr2, cr8, cr11, {1}
      60:	0d032e30 	stceq	14, cr2, [r3, #-192]
      64:	6a668463 	bvs	19a11f8 <_ram_end+0x179c6ec>
      68:	86646649 	strhibt	r6, [r4], -r9, asr #12
      6c:	022b3230 	eoreq	r3, fp, #3	; 0x3
      70:	01010002 	tsteq	r1, r2
      74:	0000005f 	andeq	r0, r0, pc, asr r0
      78:	001b0002 	andeqs	r0, fp, r2
      7c:	01020000 	tsteq	r2, r0
      80:	000a0efb 	streqd	r0, [sl], -fp
      84:	01010101 	tsteq	r1, r1, lsl #2
      88:	01000000 	tsteq	r0, r0
      8c:	62656400 	rsbvs	r6, r5, #0	; 0x0
      90:	632e6775 	teqvs	lr, #30670848	; 0x1d40000
      94:	00000000 	andeq	r0, r0, r0
      98:	02050000 	andeq	r0, r5, #0	; 0x0
      9c:	0020021c 	eoreq	r0, r0, ip, lsl r2
      a0:	48010d03 	stmmida	r1, {r0, r1, r8, sl, fp}
      a4:	0b034667 	bleq	d1a48 <.debug_line+0xd1a48>
      a8:	2c2e4b2b 	stccs	11, cr4, [lr], #-172
      ac:	4849302c 	stmmida	r9, {r2, r3, r5, ip, sp}^
      b0:	037f1403 	cmneq	pc, #50331648	; 0x3000000
      b4:	4d1d080a 	ldcmi	8, cr0, [sp, #-40]
      b8:	7f090330 	swivc	0x00090330
      bc:	0903304d 	stmeqdb	r3, {r0, r2, r3, r6, ip, sp}
      c0:	03304d7f 	teqeq	r0, #8128	; 0x1fc0
      c4:	304d7f0a 	subcc	r7, sp, sl, lsl #30
      c8:	492e2c2c 	stmmidb	lr!, {r2, r3, r5, sl, fp, sp}
      cc:	0e038148 	mvfeqsm	f0, #0.0
      d0:	02021d08 	andeq	r1, r2, #512	; 0x200
      d4:	f0010100 	andnv	r0, r1, r0, lsl #2
      d8:	02000000 	andeq	r0, r0, #0	; 0x0
      dc:	00004400 	andeq	r4, r0, r0, lsl #8
      e0:	fb010200 	blx	408ea <.debug_line+0x408ea>
      e4:	01000a0e 	tsteq	r0, lr, lsl #20
      e8:	00010101 	andeq	r0, r1, r1, lsl #2
      ec:	00010000 	andeq	r0, r1, r0
      f0:	6e69616d 	powvsez	f6, f1, #5.0
      f4:	0000632e 	andeq	r6, r0, lr, lsr #6
      f8:	54410000 	strplb	r0, [r1]
      fc:	41533139 	cmpmi	r3, r9, lsr r1
     100:	3153374d 	cmpcc	r3, sp, asr #14
     104:	682e3832 	stmvsda	lr!, {r1, r4, r5, fp, ip, sp}
     108:	00000000 	andeq	r0, r0, r0
     10c:	6e69616d 	powvsez	f6, f1, #5.0
     110:	0000682e 	andeq	r6, r0, lr, lsr #16
     114:	693c0000 	ldmvsdb	ip!, {}
     118:	7265746e 	rsbvc	r7, r5, #1845493760	; 0x6e000000
     11c:	3e6c616e 	powccez	f6, f4, #0.5
     120:	00000000 	andeq	r0, r0, r0
     124:	02050000 	andeq	r0, r5, #0	; 0x0
     128:	0020034c 	eoreq	r0, r0, ip, asr #6
     12c:	31010f03 	tstcc	r1, r3, lsl #30
     130:	312b7a03 	teqcc	fp, r3, lsl #20
     134:	d64f6628 	strleb	r6, [pc], -r8, lsr #12
     138:	2e5f2c2f 	cdpcs	12, 5, cr2, cr15, cr15, {1}
     13c:	637a032c 	cmnvs	sl, #-1342177280	; 0xb0000000
     140:	79032c30 	stmvcdb	r3, {r4, r5, sl, fp, sp}
     144:	662c3163 	strvst	r3, [ip], -r3, ror #2
     148:	e6087f2d 	str	r7, [r8], -sp, lsr #30
     14c:	162202b2 	undefined
     150:	032c814c 	teqeq	ip, #19	; 0x13
     154:	03390871 	teqeq	r9, #7405568	; 0x710000
     158:	6afd080e 	bvs	fff42198 <_ram_end+0xffd3d68c>
     15c:	03814f26 	orreq	r4, r1, #152	; 0x98
     160:	032c2b74 	teqeq	ip, #118784	; 0x1d000
     164:	031d0871 	tsteq	sp, #7405568	; 0x710000
     168:	03fd080e 	mvneqs	r0, #917504	; 0xe0000
     16c:	442e630c 	strmit	r6, [lr], #-780
     170:	6b262c4d 	blvs	98b2ac <_ram_end+0x7867a0>
     174:	2c30d668 	ldccs	6, cr13, [r0], #-416
     178:	75038349 	strvc	r8, [r3, #-841]
     17c:	03464563 	cmpeq	r6, #415236096	; 0x18c00000
     180:	2c804712 	stccs	7, cr4, [r0], {18}
     184:	2c2c2c2c 	stccs	12, cr2, [ip], #-176
     188:	032e4933 	teqeq	lr, #835584	; 0xcc000
     18c:	2e2b7fa1 	cdpcs	15, 2, cr7, cr11, cr1, {5}
     190:	78032dd6 	stmvcda	r3, {r1, r2, r4, r6, r7, r8, sl, fp, sp}
     194:	472a032b 	strmi	r0, [sl, -fp, lsr #6]!
     198:	2c2b7403 	cfstrscs	mvf7, [fp], #-12
     19c:	1d087103 	stfnes	f7, [r8, #-12]
     1a0:	fd080e03 	stc2	14, cr0, [r8, #-12]
     1a4:	2e630c03 	cdpcs	12, 6, cr0, cr3, cr3, {0}
     1a8:	34034b44 	strcc	r4, [r3], #-2884
     1ac:	4757032b 	ldrmib	r0, [r7, -fp, lsr #6]
     1b0:	492c30d6 	stmmidb	ip!, {r1, r2, r4, r6, r7, ip, sp}
     1b4:	471e0383 	ldrmi	r0, [lr, -r3, lsl #7]
     1b8:	032c2c4a 	teqeq	ip, #18944	; 0x4a00
     1bc:	45477f9c 	strmib	r7, [r7, #-3996]
     1c0:	47390346 	ldrmi	r0, [r9, -r6, asr #6]!
     1c4:	0c024645 	stceq	6, cr4, [r2], {69}
     1c8:	08010100 	stmeqda	r1, {r8}
     1cc:	02000004 	andeq	r0, r0, #4	; 0x4
     1d0:	00004200 	andeq	r4, r0, r0, lsl #4
     1d4:	fb010200 	blx	409de <.debug_line+0x409de>
     1d8:	01000a0e 	tsteq	r0, lr, lsl #20
     1dc:	00010101 	andeq	r0, r1, r1, lsl #2
     1e0:	00010000 	andeq	r0, r1, r0
     1e4:	2e627375 	mcrcs	3, 3, r7, cr2, cr5, {3}
     1e8:	00000063 	andeq	r0, r0, r3, rrx
     1ec:	39544100 	ldmccdb	r4, {r8, lr}^
     1f0:	4d415331 	stcmil	3, cr5, [r1, #-196]
     1f4:	32315337 	eorccs	r5, r1, #-603979776	; 0xdc000000
     1f8:	00682e38 	rsbeq	r2, r8, r8, lsr lr
     1fc:	75000000 	strvc	r0, [r0]
     200:	682e6273 	stmvsda	lr!, {r0, r1, r4, r5, r6, r9, sp, lr}
     204:	00000000 	andeq	r0, r0, r0
     208:	746e693c 	strvcbt	r6, [lr], #-2364
     20c:	616e7265 	cmnvs	lr, r5, ror #4
     210:	00003e6c 	andeq	r3, r0, ip, ror #28
     214:	00000000 	andeq	r0, r0, r0
     218:	07ec0205 	streqb	r0, [ip, r5, lsl #4]!
     21c:	8c030020 	stchi	0, cr0, [r3], {32}
     220:	602f0101 	eorvs	r0, pc, r1, lsl #2
     224:	28272f2e 	stmcsda	r7!, {r1, r2, r3, r5, r8, r9, sl, fp, sp}
     228:	272b0b03 	strcs	r0, [fp, -r3, lsl #22]!
     22c:	2e2c2a48 	fnmulscs	s4, s24, s16
     230:	304b2c2c 	subcc	r2, fp, ip, lsr #24
     234:	2e282e29 	cdpcs	14, 2, cr2, cr8, cr9, {1}
     238:	272a2d29 	strcs	r2, [sl, -r9, lsr #26]!
     23c:	33282c2d 	teqcc	r8, #11520	; 0x2d00
     240:	03312a26 	teqeq	r1, #155648	; 0x26000
     244:	2b83b723 	blcs	fe0eded8 <_ram_end+0xfdee93cc>
     248:	4700cb03 	strmi	ip, [r0, -r3, lsl #22]
     24c:	2e446768 	cdpcs	7, 4, cr6, cr4, cr8, {3}
     250:	666480d5 	undefined
     254:	65674a9d 	strvsb	r4, [r7, #-2717]!
     258:	65648049 	strvsb	r8, [r4, #-73]!
     25c:	03477503 	cmpeq	r7, #12582912	; 0xc00000
     260:	659c9b0f 	ldrvs	r9, [ip, #2831]
     264:	659ca080 	ldrvs	sl, [ip, #128]
     268:	7b2f9f80 	blvc	be8070 <_ram_end+0x9e3564>
     26c:	2c2c2e2f 	stccs	14, cr2, [ip], #-188
     270:	2c2c2c2c 	stccs	12, cr2, [ip], #-176
     274:	272d282c 	strcs	r2, [sp, -ip, lsr #16]!
     278:	2d30282c 	ldccs	8, cr2, [r0, #-176]!
     27c:	31272d29 	teqcc	r7, r9, lsr #26
     280:	2d2b7803 	stccs	8, cr7, [fp, #-12]!
     284:	302d2d2d 	eorcc	r2, sp, sp, lsr #26
     288:	1e038480 	cfcvt32sne	mvf8, mvfx3
     28c:	9103a908 	tstls	r3, r8, lsl #18
     290:	6730637f 	undefined
     294:	80d52e44 	sbchis	r2, r5, r4, asr #28
     298:	4a9d6664 	bmi	fe759c30 <_ram_end+0xfe555124>
     29c:	80496567 	subhi	r6, r9, r7, ror #10
     2a0:	01a50364 	moveq	r0, r4, ror #6
     2a4:	7f830363 	swivc	0x00830363
     2a8:	09038047 	stmeqdb	r3, {r0, r1, r2, r6, pc}
     2ac:	00c0037f 	sbceq	r0, r0, pc, ror r3
     2b0:	3a083908 	bcc	20e6d8 <_ram_end+0x9bcc>
     2b4:	7f7f9303 	swivc	0x007f9303
     2b8:	7b806564 	blvc	fe019850 <_ram_end+0xfde14d44>
     2bc:	03806580 	orreq	r6, r0, #536870912	; 0x20000000
     2c0:	11037f28 	tstne	r3, r8, lsr #30
     2c4:	2b4303d3 	blcs	10c1218 <_ram_end+0xebc70c>
     2c8:	032b3d03 	teqeq	fp, #192	; 0xc0
     2cc:	65642b43 	strvsb	r2, [r4, #-2883]!
     2d0:	633b0380 	teqvs	fp, #2	; 0x2
     2d4:	48442d2c 	stmmida	r4, {r2, r3, r5, r8, sl, fp, sp}^
     2d8:	2c2c4548 	cfstr32cs	mvfx4, [ip], #-288
     2dc:	476a032c 	strmib	r0, [sl, -ip, lsr #6]!
     2e0:	037f5403 	cmneq	pc, #50331648	; 0x3000000
     2e4:	5d037f2c 	stcpl	15, cr7, [r3, #-176]
     2e8:	80658063 	rsbhi	r8, r5, r3, rrx
     2ec:	4c7f4e03 	ldcmil	14, cr4, [pc], #-12
     2f0:	d52e4467 	strle	r4, [lr, #-1127]!
     2f4:	9d666480 	cfstrdls	mvd6, [r6, #-512]!
     2f8:	4965674a 	stmmidb	r5!, {r1, r3, r6, r8, r9, sl, sp, lr}^
     2fc:	0f036480 	swieq	0x00036480
     300:	8065807f 	rsbhi	r8, r5, pc, ror r0
     304:	657f7403 	ldrvsb	r7, [pc, #-1027]!	; ffffff09 <_ram_end+0xffdfb3fd>
     308:	01890380 	orreq	r0, r9, r0, lsl #7
     30c:	f20364b7 	andnv	r6, r3, #-1224736768	; 0xb7000000
     310:	6580637e 	strvs	r6, [r0, #894]
     314:	65807b80 	strvs	r7, [r0, #2944]
     318:	63350380 	teqvs	r5, #2	; 0x2
     31c:	16034846 	strne	r4, [r3], -r6, asr #16
     320:	7f8c0347 	swivc	0x008c0347
     324:	44673047 	strmibt	r3, [r7], #-71
     328:	6480d52e 	strvs	sp, [r0], #1326
     32c:	674a9d66 	strvsb	r9, [sl, -r6, ror #26]
     330:	64804965 	strvs	r4, [r0], #2405
     334:	7f018403 	swivc	0x00018403
     338:	622c3a08 	eorvs	r3, ip, #32768	; 0x8000
     33c:	2d622c2d 	stccsl	12, cr2, [r2, #-180]!
     340:	7efc032c 	cdpvc	3, 15, cr0, cr12, cr12, {1}
     344:	80658063 	rsbhi	r8, r5, r3, rrx
     348:	037f6d03 	cmneq	pc, #192	; 0xc0
     34c:	49497f3b 	stmmidb	r9, {r0, r1, r3, r4, r5, r8, r9, sl, fp, ip, sp, lr}^
     350:	032b5903 	teqeq	fp, #49152	; 0xc000
     354:	5a037f27 	bpl	dfff8 <.debug_line+0xdfff8>
     358:	0380652b 	orreq	r6, r0, #180355072	; 0xac00000
     35c:	eb037f1f 	bl	dffe0 <.debug_line+0xdffe0>
     360:	e903ef00 	stmdb	r3, {r8, r9, sl, fp, sp, lr, pc}
     364:	97032b7e 	smlsdxls	r3, lr, fp, r2
     368:	e9032b01 	stmdb	r3, {r0, r8, r9, fp, sp}
     36c:	65642b7e 	strvsb	r2, [r4, #-2942]!
     370:	7f280380 	swivc	0x00280380
     374:	62472a03 	subvs	r2, r7, #12288	; 0x3000
     378:	8403642c 	strhi	r6, [r3], #-1068
     37c:	6730d37f 	undefined
     380:	80d52e44 	sbchis	r2, r5, r4, asr #28
     384:	4a9d6664 	bmi	fe759d1c <_ram_end+0xfe555210>
     388:	80496567 	subhi	r6, r9, r7, ror #10
     38c:	7f0f0364 	swivc	0x000f0364
     390:	7b806580 	blvc	fe019998 <_ram_end+0xfde14e8c>
     394:	03806580 	orreq	r6, r0, #536870912	; 0x20000000
     398:	67687f4e 	strvsb	r7, [r8, -lr, asr #30]!
     39c:	80d52e44 	sbchis	r2, r5, r4, asr #28
     3a0:	4a9d6664 	bmi	fe759d38 <_ram_end+0xfe55522c>
     3a4:	80496567 	subhi	r6, r9, r7, ror #10
     3a8:	00e00364 	rsceq	r0, r0, r4, ror #6
     3ac:	8003b87f 	andhi	fp, r3, pc, ror r8
     3b0:	6730b77f 	undefined
     3b4:	80d52e44 	sbchis	r2, r5, r4, asr #28
     3b8:	4a9d6664 	bmi	fe759d50 <_ram_end+0xfe555244>
     3bc:	80496567 	subhi	r6, r9, r7, ror #10
     3c0:	7f0f0364 	swivc	0x000f0364
     3c4:	7b806580 	blvc	fe0199cc <_ram_end+0xfde14ec0>
     3c8:	038065b8 	orreq	r6, r0, #771751936	; 0x2e000000
     3cc:	67687f4e 	strvsb	r7, [r8, -lr, asr #30]!
     3d0:	80d52e44 	sbchis	r2, r5, r4, asr #28
     3d4:	4a9d6664 	bmi	fe759d6c <_ram_end+0xfe555260>
     3d8:	80496567 	subhi	r6, r9, r7, ror #10
     3dc:	7f610364 	swivc	0x00610364
     3e0:	2e446768 	cdpcs	7, 4, cr6, cr4, cr8, {3}
     3e4:	666480d5 	undefined
     3e8:	65674a9d 	strvsb	r4, [r7, #-2717]!
     3ec:	03648049 	cmneq	r4, #73	; 0x49
     3f0:	39087ef4 	stmccdb	r8, {r2, r4, r5, r6, r7, r9, sl, fp, ip, sp, lr}
     3f4:	65482a48 	strvsb	r2, [r8, #-2632]
     3f8:	03470e03 	cmpeq	r7, #48	; 0x30
     3fc:	2c262b77 	stccs	11, cr2, [r6], #-476
     400:	2f2e282e 	swics	0x002e282e
     404:	2b7a032e 	blcs	1e810c4 <_ram_end+0x1c7c5b8>
     408:	332e2e2e 	teqcc	lr, #736	; 0x2e0
     40c:	85477a03 	strhib	r7, [r7, #-2563]
     410:	30034842 	andcc	r4, r3, r2, asr #16
     414:	03664b9b 	cmneq	r6, #158720	; 0x26c00
     418:	034e2b79 	cmpeq	lr, #123904	; 0x1e400
     41c:	49302b79 	ldmmidb	r0!, {r0, r3, r4, r5, r6, r8, r9, fp, sp}
     420:	471003f1 	undefined
     424:	032b7003 	teqeq	fp, #3	; 0x3
     428:	74034710 	strvc	r4, [r3], #-1808
     42c:	2d45662b 	stccsl	6, cr6, [r5, #-172]
     430:	7fab03d7 	swivc	0x00ab03d7
     434:	2f2e1d08 	swics	0x002e1d08
     438:	2b76032e 	blcs	1d810f8 <_ram_end+0x1b7c5ec>
     43c:	2e2e2c2e 	cdpcs	12, 2, cr2, cr14, cr14, {1}
     440:	6a03302e 	bvs	cc500 <.debug_line+0xcc500>
     444:	00d9032b 	sbceqs	r0, r9, fp, lsr #6
     448:	7fa80347 	swivc	0x00a80347
     44c:	1003497f 	andne	r4, r3, pc, ror r9
     450:	2c486463 	cfstrdcs	mvd6, [r8], {99}
     454:	032b6a03 	teqeq	fp, #12288	; 0x3000
     458:	034700ea 	cmpeq	r7, #234	; 0xea
     45c:	a1034779 	tstge	r3, r9, ror r7
     460:	2e1d087f 	mrccs	8, 0, r0, cr13, cr15, {3}
     464:	76032e2f 	strvc	r2, [r3], -pc, lsr #28
     468:	2e2c2e2b 	cdpcs	14, 2, cr2, cr12, cr11, {1}
     46c:	03302e2e 	teqeq	r0, #736	; 0x2e0
     470:	e3032b6a 	tst	r3, #108544	; 0x1a800
     474:	9e034700 	cdpls	7, 0, cr4, cr3, cr0, {0}
     478:	03497f7f 	cmpeq	r9, #508	; 0x1fc
     47c:	48646310 	stmmida	r4!, {r4, r8, r9, sp, lr}^
     480:	4700c603 	strmi	ip, [r0, -r3, lsl #12]
     484:	7f090380 	swivc	0x00090380
     488:	bb036681 	bllt	d9e94 <.debug_line+0xd9e94>
     48c:	2a487f7f 	bcs	1220290 <_ram_end+0x101b784>
     490:	03471703 	cmpeq	r7, #786432	; 0xc0000
     494:	032c2b69 	teqeq	ip, #107520	; 0x1a400
     498:	45034716 	strmi	r4, [r3, #-1814]
     49c:	2e64657f 	mcrcs	5, 3, r6, cr4, cr15, {3}
     4a0:	76032e2f 	strvc	r2, [r3], -pc, lsr #28
     4a4:	2e2c2e2b 	cdpcs	14, 2, cr2, cr12, cr11, {1}
     4a8:	03302e2e 	teqeq	r0, #736	; 0x2e0
     4ac:	2c032b6a 	stccs	11, cr2, [r3], {106}
     4b0:	2ea08047 	cdpcs	0, 10, cr8, cr0, cr7, {2}
     4b4:	1f084a28 	swine	0x00084a28
     4b8:	492e2866 	stmmidb	lr!, {r1, r2, r5, r6, fp, sp}
     4bc:	2d292d4b 	stccs	13, cr2, [r9, #-300]!
     4c0:	642b5103 	strvst	r5, [fp], #-259
     4c4:	02a00348 	adceq	r0, r0, #536870913	; 0x20000001
     4c8:	032c7f9b 	teqeq	ip, #620	; 0x26c
     4cc:	662b7e93 	undefined
     4d0:	03f14945 	mvneqs	r4, #1130496	; 0x114000
     4d4:	70034710 	andvc	r4, r3, r0, lsl r7
     4d8:	4710032b 	ldrmi	r0, [r0, -fp, lsr #6]
     4dc:	662b7403 	strvst	r7, [fp], -r3, lsl #8
     4e0:	44032d45 	strmi	r2, [r3], #-3397
     4e4:	086b03d3 	stmeqda	fp!, {r0, r1, r4, r6, r7, r8, r9}^
     4e8:	2e2f2e1d 	mcrcs	14, 1, r2, cr15, cr13, {0}
     4ec:	2e2b7603 	cfmadda32cs	mvax0, mvax7, mvfx11, mvfx3
     4f0:	2e2e2e2c 	cdpcs	14, 2, cr2, cr14, cr12, {1}
     4f4:	2b6a0330 	blcs	1a811bc <_ram_end+0x187c6b0>
     4f8:	03471903 	cmpeq	r7, #49152	; 0xc000
     4fc:	03497f68 	cmpeq	r9, #416	; 0x1a0
     500:	48646310 	stmmida	r4!, {r4, r8, r9, sp, lr}^
     504:	2b6a032c 	blcs	1a811bc <_ram_end+0x187c6b0>
     508:	03631903 	cmneq	r3, #49152	; 0xc000
     50c:	2e1d086b 	cdpcs	8, 1, cr0, cr13, cr11, {3}
     510:	76032e2f 	strvc	r2, [r3], -pc, lsr #28
     514:	2e2c2e2b 	cdpcs	14, 2, cr2, cr12, cr11, {1}
     518:	03302e2e 	teqeq	r0, #736	; 0x2e0
     51c:	19032b6a 	stmnedb	r3, {r1, r3, r5, r6, r8, r9, fp, sp}
     520:	7f680347 	swivc	0x00680347
     524:	63100349 	tstvs	r0, #603979777	; 0x24000001
     528:	032c4864 	teqeq	ip, #6553600	; 0x640000
     52c:	db032b6a 	blle	cb2dc <.debug_line+0xcb2dc>
     530:	03806300 	orreq	r6, r0, #0	; 0x0
     534:	03817f09 	orreq	r7, r1, #36	; 0x24
     538:	80b701da 	ldrhisb	r0, [r7], sl
     53c:	7dbf032b 	ldcvc	3, cr0, [pc, #172]!
     540:	2e64819b 	mcrcs	1, 3, r8, cr4, cr11, {4}
     544:	032b0a03 	teqeq	fp, #12288	; 0x3000
     548:	27322b73 	undefined
     54c:	2b7a0332 	blcs	1e8121c <_ram_end+0x1c7c710>
     550:	302e2e2e 	eorcc	r2, lr, lr, lsr #28
     554:	032b6a03 	teqeq	fp, #12288	; 0x3000
     558:	032b02c5 	teqeq	fp, #1342177292	; 0x5000000c
     55c:	65477dbc 	strvsb	r7, [r7, #-3516]
     560:	2f282e64 	swics	0x00282e64
     564:	032e2f2a 	teqeq	lr, #168	; 0xa8
     568:	2e2e2b7a 	mcrcs	11, 1, r2, cr14, cr10, {3}
     56c:	6a03302e 	bvs	cc62c <.debug_line+0xcc62c>
     570:	4726032b 	strmi	r0, [r6, -fp, lsr #6]!
     574:	03462c46 	cmpeq	r6, #17920	; 0x4600
     578:	64652b5c 	strvsbt	r2, [r5], #-2908
     57c:	032e2f2e 	teqeq	lr, #184	; 0xb8
     580:	2c2e2b76 	stccs	11, cr2, [lr], #-472
     584:	302e2e2e 	eorcc	r2, lr, lr, lsr #28
     588:	032b6a03 	teqeq	fp, #12288	; 0x3000
     58c:	a080472c 	addge	r4, r0, ip, lsr #14
     590:	084a282e 	stmeqda	sl, {r1, r2, r3, r5, fp, sp}^
     594:	2e28661f 	cfmadda32cs	mvax0, mvax6, mvfx8, mvfx15
     598:	47450349 	strmib	r0, [r5, -r9, asr #6]
     59c:	2b3d0365 	blcs	f41338 <_ram_end+0xd3c82c>
     5a0:	032b4303 	teqeq	fp, #201326592	; 0xc000000
     5a4:	43032b3d 	tstmi	r3, #62464	; 0xf400
     5a8:	282e2c2b 	stmcsda	lr!, {r0, r1, r3, r5, sl, fp, sp}
     5ac:	2e2f2a2f 	fmulscs	s4, s30, s31
     5b0:	2e2b7a03 	fmulscs	s14, s22, s6
     5b4:	03302e2e 	teqeq	r0, #736	; 0x2e0
     5b8:	d1032b6a 	tstle	r3, sl, ror #22
     5bc:	c2034702 	andgt	r4, r3, #524288	; 0x80000
     5c0:	4864637d 	stmmida	r4!, {r0, r2, r3, r4, r5, r6, r8, r9, sp, lr}^
     5c4:	2c486445 	cfstrdcs	mvd6, [r8], {69}
     5c8:	032b6a03 	teqeq	fp, #12288	; 0x3000
     5cc:	48f06313 	ldmmiia	r0!, {r0, r1, r4, r8, r9, sp, lr}^
     5d0:	10024846 	andne	r4, r2, r6, asr #16
     5d4:	cf010100 	swigt	0x00010100
     5d8:	02000000 	andeq	r0, r0, #0	; 0x0
     5dc:	00003300 	andeq	r3, r0, r0, lsl #6
     5e0:	fb010200 	blx	40dea <.debug_line+0x40dea>
     5e4:	01000a0e 	tsteq	r0, lr, lsl #20
     5e8:	00010101 	andeq	r0, r1, r1, lsl #2
     5ec:	00010000 	andeq	r0, r1, r0
     5f0:	626d6173 	rsbvs	r6, sp, #-1073741796	; 0xc000001c
     5f4:	00632e61 	rsbeq	r2, r3, r1, ror #28
     5f8:	3c000000 	stccc	0, cr0, [r0], {0}
     5fc:	65746e69 	ldrvsb	r6, [r4, #-3689]!
     600:	6c616e72 	stcvsl	14, cr6, [r1], #-456
     604:	0000003e 	andeq	r0, r0, lr, lsr r0
     608:	69616d00 	stmvsdb	r1!, {r8, sl, fp, sp, lr}^
     60c:	00682e6e 	rsbeq	r2, r8, lr, ror #28
     610:	00000000 	andeq	r0, r0, r0
     614:	24020500 	strcs	r0, [r2], #-1280
     618:	03002020 	tsteq	r0, #32	; 0x20
     61c:	6b47011a 	blvs	11c0a8c <_ram_end+0xfbbf80>
     620:	2c2f47a2 	stccs	7, cr4, [pc], #-648
     624:	2a2c2f26 	bcs	b0c2c4 <_ram_end+0x9077b8>
     628:	2d292d2d 	stccs	13, cr2, [r9, #-180]!
     62c:	29034929 	stmcsdb	r3, {r0, r3, r5, r8, fp, lr}
     630:	2c016802 	stccs	8, cr6, [r1], {2}
     634:	2a2d292c 	bcs	b4aaec <_ram_end+0x945fe0>
     638:	482c7b30 	stmmida	ip!, {r4, r5, r8, r9, fp, ip, sp, lr}
     63c:	032b1303 	teqeq	fp, #201326592	; 0xc000000
     640:	4b644737 	blmi	1912324 <_ram_end+0x170d818>
     644:	0364446b 	cmneq	r4, #1795162112	; 0x6b000000
     648:	2c637f8c 	stccsl	15, cr7, [r3], #-560
     64c:	7c2e2c2a 	stcvc	12, cr2, [lr], #-168
     650:	00ca032c 	sbceq	r0, sl, ip, lsr #6
     654:	635d0363 	cmpvs	sp, #-1946157055	; 0x8c000001
     658:	677f2a03 	ldrvsb	r2, [pc, -r3, lsl #20]!
     65c:	7f7fbe03 	swivc	0x007fbe03
     660:	467f2b03 	ldrmibt	r2, [pc], -r3, lsl #22
     664:	482c2d2a 	stmmida	ip!, {r1, r3, r5, r8, sl, fp, sp}
     668:	74034864 	strvc	r4, [r3], #-2148
     66c:	2c464847 	mcrrcs	8, 4, r4, r6, cr7
     670:	67472303 	strvsb	r2, [r7, -r3, lsl #6]
     674:	4e032a48 	fnmacsmi	s4, s6, s16
     678:	2c292d47 	stccs	13, cr2, [r9], #-284
     67c:	7b302a2c 	blvc	c0af34 <_ram_end+0xa06428>
     680:	4703482c 	strmi	r4, [r3, -ip, lsr #16]
     684:	cc036447 	cfstrsgt	mvf6, [r3], {71}
     688:	45034700 	strmi	r4, [r3, #-1792]
     68c:	00cc0347 	sbceq	r0, ip, r7, asr #6
     690:	47190347 	ldrmi	r0, [r9, -r7, asr #6]
     694:	7fb6035e 	swivc	0x00b6035e
     698:	2b25037f 	blcs	94149c <_ram_end+0x73c990>
     69c:	1d081703 	stcne	7, cr1, [r8, #-12]
     6a0:	7f760364 	swivc	0x00760364
     6a4:	001a0264 	andeqs	r0, sl, r4, ror #4
     6a8:	01390101 	teqeq	r9, r1, lsl #2
     6ac:	00020000 	andeq	r0, r2, r0
     6b0:	00000037 	andeq	r0, r0, r7, lsr r0
     6b4:	0efb0102 	cdpeq	1, 15, cr0, cr11, cr2, {0}
     6b8:	0101000a 	tsteq	r1, sl
     6bc:	00000101 	andeq	r0, r0, r1, lsl #2
     6c0:	66000100 	strvs	r0, [r0], -r0, lsl #2
     6c4:	6873616c 	ldmvsda	r3!, {r2, r3, r5, r6, r8, sp, lr}^
     6c8:	0000632e 	andeq	r6, r0, lr, lsr #6
     6cc:	54410000 	strplb	r0, [r1]
     6d0:	41533139 	cmpmi	r3, r9, lsr r1
     6d4:	3153374d 	cmpcc	r3, sp, asr #14
     6d8:	682e3832 	stmvsda	lr!, {r1, r4, r5, fp, ip, sp}
     6dc:	00000000 	andeq	r0, r0, r0
     6e0:	6e69616d 	powvsez	f6, f1, #5.0
     6e4:	0000682e 	andeq	r6, r0, lr, lsr #16
     6e8:	00000000 	andeq	r0, r0, r0
     6ec:	23cc0205 	biccs	r0, ip, #1342177280	; 0x50000000
     6f0:	0a030020 	beq	c0778 <.debug_line+0xc0778>
     6f4:	63332f01 	teqvs	r3, #4	; 0x4
     6f8:	2f67304b 	swics	0x0067304b
     6fc:	842e4748 	strhit	r4, [lr], #-1864
     700:	b779032e 	ldrltb	r0, [r9, -lr, lsr #6]!
     704:	476c0332 	undefined
     708:	03631903 	cmneq	r3, #49152	; 0xc000
     70c:	14032b6f 	strne	r2, [r3], #-2927
     710:	2e82662b 	cdpcs	6, 8, cr6, cr2, cr11, {1}
     714:	1d085b03 	fstdne	d5, [r8, #-12]
     718:	03632a03 	cmneq	r3, #12288	; 0x3000
     71c:	25032b5e 	strcs	r2, [r3, #-2910]
     720:	4603672b 	strmi	r6, [r3], -fp, lsr #14
     724:	2b3a032b 	blcs	e813d8 <_ram_end+0xc7c8cc>
     728:	032b4603 	teqeq	fp, #3145728	; 0x300000
     72c:	032a2b3b 	teqeq	sl, #60416	; 0xec00
     730:	3f032b46 	swicc	0x00032b46
     734:	47032e2b 	strmi	r2, [r3, -fp, lsr #28]
     738:	633e037f 	teqvs	lr, #-67108863	; 0xfc000001
     73c:	0366482e 	cmneq	r6, #3014656	; 0x2e0000
     740:	03477fb2 	cmpeq	r7, #712	; 0x2c8
     744:	034700ce 	cmpeq	r7, #206	; 0xce
     748:	75032b0d 	strvc	r2, [r3, #-2829]
     74c:	2b090347 	blcs	241470 <_ram_end+0x3c964>
     750:	477fa703 	ldrmib	sl, [pc, -r3, lsl #14]!
     754:	2b00ce03 	blcs	33f68 <.debug_line+0x33f68>
     758:	492b0d03 	stmmidb	fp!, {r0, r1, r8, sl, fp}
     75c:	2c2ab829 	stccs	8, cr11, [sl], #-164
     760:	032e302a 	teqeq	lr, #42	; 0x2a
     764:	03ef7fa6 	mvneq	r7, #664	; 0x298
     768:	2e6300df 	mcrcs	0, 3, r0, cr3, cr15, {6}
     76c:	6309032f 	tstvs	r9, #-1140850688	; 0xbc000000
     770:	09032c2b 	stmeqdb	r3, {r0, r1, r3, r5, sl, fp, sp}
     774:	4648479b 	undefined
     778:	2c4b2a2c 	mcrrcs	10, 2, r2, fp, cr12
     77c:	18034e27 	stmneda	r3, {r0, r1, r2, r5, r9, sl, fp, lr}
     780:	2b68032b 	blcs	1a01434 <_ram_end+0x17fc928>
     784:	2b7a0331 	blcs	1e81450 <_ram_end+0x1c7c944>
     788:	032b1803 	teqeq	fp, #196608	; 0x30000
     78c:	032c2b6f 	teqeq	ip, #113664	; 0x1bc00
     790:	78032b10 	stmvcda	r3, {r4, r8, r9, fp, sp}
     794:	7f94032b 	swivc	0x0094032b
     798:	032e4447 	teqeq	lr, #1191182336	; 0x47000000
     79c:	03b700ea 	moveqs	r0, #234	; 0xea
     7a0:	037f7ef1 	cmneq	pc, #3856	; 0xf10
     7a4:	4d037f2a 	stcmi	15, cr7, [r3, #-168]
     7a8:	00db032b 	sbceqs	r0, fp, fp, lsr #6
     7ac:	7fb60347 	swivc	0x00b60347
     7b0:	00ca032b 	sbceq	r0, sl, fp, lsr #6
     7b4:	7fa5032b 	swivc	0x00a5032b
     7b8:	00ce032b 	sbceq	r0, lr, fp, lsr #6
     7bc:	2b0b032b 	blcs	2c1470 <_ram_end+0xbc964>
     7c0:	312b7503 	teqcc	fp, r3, lsl #10
     7c4:	b8292d32 	stmltda	r9!, {r1, r4, r5, r8, sl, fp, sp}
     7c8:	302a2c2a 	eorcc	r2, sl, sl, lsr #24
     7cc:	7fa6032e 	swivc	0x00a6032e
     7d0:	df031d08 	swile	0x00031d08
     7d4:	032e6300 	teqeq	lr, #0	; 0x0
     7d8:	d2032b63 	andle	r2, r3, #101376	; 0x18c00
     7dc:	7e2d4700 	cdpvc	7, 2, cr4, cr13, cr0, {0}
     7e0:	02024b2c 	andeq	r4, r2, #45056	; 0xb000
     7e4:	02010100 	andeq	r0, r1, #0	; 0x0
     7e8:	02000002 	andeq	r0, r0, #2	; 0x2
     7ec:	00005e00 	andeq	r5, r0, r0, lsl #28
     7f0:	fb010200 	blx	40ffa <.debug_line+0x40ffa>
     7f4:	01000a0e 	tsteq	r0, lr, lsl #20
     7f8:	00010101 	andeq	r0, r1, r1, lsl #2
     7fc:	2e010000 	cdpcs	0, 0, cr0, cr1, cr0, {0}
     800:	6f632f2e 	swivs	0x00632f2e
     804:	2e336564 	cdpcs	5, 3, cr6, cr3, cr4, {3}
     808:	0077656e 	rsbeqs	r6, r7, lr, ror #10
     80c:	64656c00 	strvsbt	r6, [r5], #-3072
     810:	0000632e 	andeq	r6, r0, lr, lsr #6
     814:	75620000 	strvcb	r0, [r2]!
     818:	00632e73 	rsbeq	r2, r3, r3, ror lr
     81c:	62000001 	andvs	r0, r0, #1	; 0x1
     820:	682e7375 	stmvsda	lr!, {r0, r2, r4, r5, r6, r8, r9, ip, sp, lr}
     824:	00000100 	andeq	r0, r0, r0, lsl #2
     828:	31395441 	teqcc	r9, r1, asr #8
     82c:	374d4153 	smlsldcc	r4, sp, r3, r1
     830:	38323153 	ldmccda	r2!, {r0, r1, r4, r6, r8, ip, sp}
     834:	0000682e 	andeq	r6, r0, lr, lsr #16
     838:	70630000 	rsbvc	r0, r3, r0
     83c:	682e646c 	stmvsda	lr!, {r2, r3, r5, r6, sl, sp, lr}
     840:	00000100 	andeq	r0, r0, r0, lsl #2
     844:	6e69616d 	powvsez	f6, f1, #5.0
     848:	0000682e 	andeq	r6, r0, lr, lsr #16
     84c:	00000000 	andeq	r0, r0, r0
     850:	27440205 	strcsb	r0, [r4, -r5, lsl #4]
     854:	0b030020 	bleq	c08dc <.debug_line+0xc08dc>
     858:	2d292d01 	stccs	13, cr2, [r9, #-4]!
     85c:	2aee0204 	bcs	ffb81074 <_ram_end+0xff97c568>
     860:	01042e2c 	tsteq	r4, ip, lsr #28
     864:	2d020429 	cfstrscs	mvf0, [r2, #-164]
     868:	63290104 	teqvs	r9, #1	; 0x1
     86c:	86d80204 	ldrhib	r0, [r8], r4, lsl #4
     870:	2b0a032d 	blcs	28152c <_ram_end+0x7ca20>
     874:	462b7503 	strmit	r7, [fp], -r3, lsl #10
     878:	042b0c03 	streqt	r0, [fp], #-3075
     87c:	47680301 	strmib	r0, [r8, -r1, lsl #6]!
     880:	12030204 	andne	r0, r3, #1073741824	; 0x40000000
     884:	2c2c2c2b 	stccs	12, cr2, [ip], #-172
     888:	0301042e 	tsteq	r1, #771751936	; 0x2e000000
     88c:	02042b68 	andeq	r2, r4, #106496	; 0x1a000
     890:	04470e03 	streqb	r0, [r7], #-3587
     894:	2b720301 	blcs	1c814a0 <_ram_end+0x1a7c994>
     898:	0e030204 	cdpeq	2, 0, cr0, cr3, cr4, {0}
     89c:	0301042b 	tsteq	r1, #721420288	; 0x2b000000
     8a0:	02042b72 	andeq	r2, r4, #116736	; 0x1c800
     8a4:	03d31f03 	biceqs	r1, r3, #12	; 0xc
     8a8:	76037f0d 	strvc	r7, [r3], -sp, lsl #30
     8ac:	2b5d032b 	blcs	1741560 <_ram_end+0x153ca54>
     8b0:	032b2303 	teqeq	fp, #201326592	; 0xc000000
     8b4:	53032b0a 	tstpl	r3, #10240	; 0x2800
     8b8:	01042e2b 	tsteq	r4, fp, lsr #28
     8bc:	03020429 	tsteq	r2, #687865856	; 0x29000000
     8c0:	56032b2c 	strpl	r2, [r3], -ip, lsr #22
     8c4:	2901042b 	stmcsdb	r1, {r0, r1, r3, r5, sl}
     8c8:	33030204 	tstcc	r3, #1073741824	; 0x40000000
     8cc:	2a2c3908 	bcs	b0ecf4 <_ram_end+0x90a1e8>
     8d0:	032b5203 	teqeq	fp, #805306368	; 0x30000000
     8d4:	31282b2f 	teqcc	r8, pc, lsr #22
     8d8:	032b4e03 	teqeq	fp, #48	; 0x30
     8dc:	2d2c2b2b 	fstmdbxcs	ip!, {d2-d22}
     8e0:	2c2c2e2c 	stccs	14, cr2, [ip], #-176
     8e4:	51030104 	tstpl	r3, r4, lsl #2
     8e8:	2f020463 	swics	0x00020463
     8ec:	2b0b032a 	blcs	2c159c <_ram_end+0xbca90>
     8f0:	042b7503 	streqt	r7, [fp], #-1283
     8f4:	02042801 	andeq	r2, r4, #65536	; 0x10000
     8f8:	042b0e03 	streqt	r0, [fp], #-3587
     8fc:	47680301 	strmib	r0, [r8, -r1, lsl #6]!
     900:	12030204 	andne	r0, r3, #1073741824	; 0x40000000
     904:	2c2c2c2b 	stccs	12, cr2, [ip], #-172
     908:	0301042e 	tsteq	r1, #771751936	; 0x2e000000
     90c:	02042b68 	andeq	r2, r4, #106496	; 0x1a000
     910:	04470e03 	streqb	r0, [r7], #-3587
     914:	2b720301 	blcs	1c81520 <_ram_end+0x1a7ca14>
     918:	0e030204 	cdpeq	2, 0, cr0, cr3, cr4, {0}
     91c:	0301042b 	tsteq	r1, #721420288	; 0x2b000000
     920:	02042b72 	andeq	r2, r4, #116736	; 0x1c800
     924:	03d31f03 	biceqs	r1, r3, #12	; 0xc
     928:	73032b0d 	tstvc	r3, #13312	; 0x3400
     92c:	2b0d032b 	blcs	3415e0 <_ram_end+0x13cad4>
     930:	032b5303 	teqeq	fp, #201326592	; 0xc000000
     934:	03282b23 	teqeq	r8, #35840	; 0x8c00
     938:	042e4760 	streqt	r4, [lr], #-1888
     93c:	02042901 	andeq	r2, r4, #16384	; 0x4000
     940:	032b2203 	teqeq	fp, #805306368	; 0x30000000
     944:	56032b0a 	strpl	r2, [r3], -sl, lsl #22
     948:	2901042b 	stmcsdb	r1, {r0, r1, r3, r5, sl}
     94c:	33030204 	tstcc	r3, #1073741824	; 0x40000000
     950:	2a2c3908 	bcs	b0ed78 <_ram_end+0x90a26c>
     954:	2b51032c 	blcs	144160c <_ram_end+0x123cb00>
     958:	032b2c03 	teqeq	fp, #768	; 0x300
     95c:	03312b4e 	teqeq	r1, #79872	; 0x13800
     960:	79032b32 	stmvcdb	r3, {r1, r4, r5, r8, r9, fp, sp}
     964:	2b4f032b 	blcs	13c1618 <_ram_end+0x11bcb0c>
     968:	042b3203 	streqt	r3, [fp], #-515
     96c:	2b4f0301 	blcs	13c1578 <_ram_end+0x11bca6c>
     970:	33030204 	tstcc	r3, #1073741824	; 0x40000000
     974:	2c2e2c2b 	stccs	12, cr2, [lr], #-172
     978:	2b49032c 	blcs	1241630 <_ram_end+0x103cb24>
     97c:	04450104 	streqb	r0, [r5], #-260
     980:	0104bc02 	tsteq	r4, r2, lsl #24
     984:	047f0d03 	ldreqbt	r0, [pc], #3331	; 98c <.debug_line+0x98c>
     988:	019e0303 	orreqs	r0, lr, r3, lsl #6
     98c:	03010463 	tsteq	r1, #1660944384	; 0x63000000
     990:	2c2b7ee5 	stccs	14, cr7, [fp], #-916
     994:	9a030304 	bls	c15ac <.debug_line+0xc15ac>
     998:	01042b01 	tsteq	r4, r1, lsl #22
     99c:	2b7ee203 	blcs	1fb91b0 <_ram_end+0x1db46a4>
     9a0:	03042c2e 	tsteq	r4, #11776	; 0x2e00
     9a4:	47019903 	strmi	r9, [r1, -r3, lsl #18]
     9a8:	e7030104 	str	r0, [r3, -r4, lsl #2]
     9ac:	0304477e 	tsteq	r4, #33030144	; 0x1f80000
     9b0:	2b019903 	blcs	66dc4 <.debug_line+0x66dc4>
     9b4:	7edb0330 	mrcvc	3, 6, r0, cr11, cr0, {1}
     9b8:	01a70363 	moveq	r0, r3, ror #6
     9bc:	7ed9032b 	cdpvc	3, 13, cr0, cr9, cr11, {1}
     9c0:	a8032a63 	stmgeda	r3, {r0, r1, r5, r6, r9, fp, sp}
     9c4:	2c2c2b01 	stccs	11, cr2, [ip], #-4
     9c8:	7ed5032c 	cdpvc	3, 13, cr0, cr5, cr12, {1}
     9cc:	af032c2b 	swige	0x00032c2b
     9d0:	2c2c2b01 	stccs	11, cr2, [ip], #-4
     9d4:	2c2c482d 	stccs	8, cr4, [ip], #-180
     9d8:	2d2c2c2c 	stccs	12, cr2, [ip, #-176]!
     9dc:	032e2c2c 	teqeq	lr, #11264	; 0x2c00
     9e0:	03477ecd 	cmpeq	r7, #3280	; 0xcd0
     9e4:	2e2b01b3 	mcrcs	1, 1, r0, cr11, cr3, {5}
     9e8:	01000c02 	tsteq	r0, r2, lsl #24
     9ec:	0001db01 	andeq	sp, r1, r1, lsl #22
     9f0:	23000200 	tstcs	r0, #0	; 0x0
     9f4:	02000000 	andeq	r0, r0, #0	; 0x0
     9f8:	0a0efb01 	beq	3bf604 <_ram_end+0x1baaf8>
     9fc:	01010100 	tsteq	r1, r0, lsl #2
     a00:	00000001 	andeq	r0, r0, r1
     a04:	6c630001 	stcvsl	0, cr0, [r3], #-4
     a08:	00632e69 	rsbeq	r2, r3, r9, ror #28
     a0c:	6d000000 	stcvs	0, cr0, [r0]
     a10:	2e6e6961 	cdpcs	9, 6, cr6, cr14, cr1, {3}
     a14:	00000068 	andeq	r0, r0, r8, rrx
     a18:	05000000 	streq	r0, [r0]
     a1c:	202ae402 	eorcs	lr, sl, r2, lsl #8
     a20:	01180300 	tsteq	r8, r0, lsl #6
     a24:	2a652a2c 	bcs	194b2dc <_ram_end+0x17467d0>
     a28:	424d622d 	submi	r6, sp, #-805306366	; 0xd0000002
     a2c:	2c45264c 	mcrrcs	6, 4, r2, r5, cr12
     a30:	0a032d2a 	beq	cbee0 <.debug_line+0xcbee0>
     a34:	4775039b 	undefined
     a38:	2b471003 	blcs	11c4a4c <_ram_end+0xfbff40>
     a3c:	032d484d 	teqeq	sp, #5046272	; 0x4d0000
     a40:	312c2b09 	teqcc	ip, r9, lsl #22
     a44:	49477903 	stmmidb	r7, {r0, r1, r8, fp, ip, sp, lr}^
     a48:	14038230 	strne	r8, [r3], #-560
     a4c:	46464547 	strmib	r4, [r6], -r7, asr #10
     a50:	2d292e2c 	stccs	14, cr2, [r9, #-176]!
     a54:	2e2c274f 	cdpcs	7, 2, cr2, cr12, cr15, {2}
     a58:	032b6403 	teqeq	fp, #50331648	; 0x3000000
     a5c:	5f037f0b 	swipl	0x00037f0b
     a60:	292d469b 	stmcsdb	sp!, {r0, r1, r3, r4, r7, r9, sl, lr}
     a64:	662b1c03 	strvst	r1, [fp], -r3, lsl #24
     a68:	032b6103 	teqeq	fp, #-1073741824	; 0xc0000000
     a6c:	2a282b20 	bcs	a0b6f4 <_ram_end+0x806be8>
     a70:	032d482e 	teqeq	sp, #3014656	; 0x2e0000
     a74:	47307f16 	undefined
     a78:	497d2f82 	ldmmidb	sp!, {r1, r7, r8, r9, sl, fp, sp}^
     a7c:	7a032e85 	bvc	cc498 <.debug_line+0xcc498>
     a80:	2e492c47 	cdpcs	12, 4, cr2, cr9, cr7, {2}
     a84:	4709034d 	strmi	r0, [r9, -sp, asr #6]
     a88:	03637703 	cmneq	r3, #786432	; 0xc0000
     a8c:	462f2b09 	strmit	r2, [pc], -r9, lsl #22
     a90:	0330264c 	teqeq	r0, #79691776	; 0x4c00000
     a94:	267f7f8d 	ldrcsbt	r7, [pc], -sp, lsl #31
     a98:	2a2c3708 	bcs	b0e6c0 <_ram_end+0x909bb4>
     a9c:	f8032c2c 	stmnvda	r3, {r2, r3, r5, sl, fp, sp}
     aa0:	9703b700 	strls	fp, [r3, -r0, lsl #14]
     aa4:	f703477f 	smlsdxnv	r3, pc, r7, r4
     aa8:	89032b00 	stmhidb	r3, {r8, r9, fp, sp}
     aac:	71032b7f 	tstvc	r3, pc, ror fp
     ab0:	90032bb7 	strlsh	r2, [r3], -r7
     ab4:	1c032b01 	stcne	11, cr2, [r3], {1}
     ab8:	9b640347 	blls	19017dc <_ram_end+0x16fccd0>
     abc:	032b1c03 	teqeq	fp, #768	; 0x300
     ac0:	2a2d9b68 	bcs	b67868 <_ram_end+0x962d5c>
     ac4:	312a282f 	teqcc	sl, pc, lsr #16
     ac8:	7a033026 	bvc	ccb68 <.debug_line+0xccb68>
     acc:	0329312b 	teqeq	r9, #-1073741814	; 0xc000000a
     ad0:	03807f0e 	orreq	r7, r0, #56	; 0x38
     ad4:	03477ed6 	cmpeq	r7, #3424	; 0xd60
     ad8:	032b01aa 	teqeq	fp, #-2147483606	; 0x8000002a
     adc:	2d477ed6 	stccsl	14, cr7, [r7, #-856]
     ae0:	4701ac03 	strmi	sl, [r1, -r3, lsl #24]
     ae4:	4db76d03 	ldcmi	13, cr6, [r7, #12]!
     ae8:	7f7ee603 	swivc	0x007ee603
     aec:	01a20326 	moveq	r0, r6, lsr #6
     af0:	7ede032b 	cdpvc	3, 13, cr0, cr14, cr11, {1}
     af4:	2a2c6147 	bcs	b19018 <_ram_end+0x91450c>
     af8:	7e489a2d 	fmacsvc	s19, s16, s27
     afc:	0801b403 	stmeqda	r1, {r0, r1, sl, ip, sp, pc}
     b00:	292d2c39 	stmcsdb	sp!, {r0, r3, r4, r5, sl, fp, sp}
     b04:	2c2a2a2d 	stccs	10, cr2, [sl], #-180
     b08:	2c2c292c 	stccs	9, cr2, [ip], #-176
     b0c:	4f2b48a1 	swimi	0x002b48a1
     b10:	2c284a28 	stccs	10, cr4, [r8], #-160
     b14:	2c452c2c 	mcrrcs	12, 2, r2, r5, cr12
     b18:	080a032c 	stmeqda	sl, {r2, r3, r5, r8, r9}
     b1c:	0368671d 	cmneq	r8, #7602176	; 0x740000
     b20:	26d37ead 	ldrcsb	r7, [r3], sp, lsr #29
     b24:	2d2a2c7d 	stccs	12, cr2, [sl, #-500]!
     b28:	9b01db03 	blls	7773c <.debug_line+0x7773c>
     b2c:	7ead0360 	cdpvc	3, 10, cr0, cr13, cr0, {3}
     b30:	2c7d2647 	ldccsl	6, cr2, [sp], #-284
     b34:	e2032d2a 	and	r2, r3, #2688	; 0xa80
     b38:	8e039b01 	fmacdhi	d9, d3, d1
     b3c:	f2037f7f 	andnv	r7, r3, #508	; 0x1fc
     b40:	8e032b00 	fmacdhi	d2, d3, d0
     b44:	2a2f2b7f 	bcs	bcb948 <_ram_end+0x9c6e3c>
     b48:	03302630 	teqeq	r0, #50331648	; 0x3000000
     b4c:	267f7f8d 	ldrcsbt	r7, [pc], -sp, lsl #31
     b50:	2d2a2c7d 	stccs	12, cr2, [sl, #-500]!
     b54:	9b01d403 	blls	75b68 <.debug_line+0x75b68>
     b58:	2d2b6003 	stccs	0, cr6, [fp, #-12]!
     b5c:	462a2d29 	strmit	r2, [sl], -r9, lsr #26
     b60:	2b22032d 	blcs	88181c <_ram_end+0x67cd10>
     b64:	032b5c03 	teqeq	fp, #768	; 0x300
     b68:	5d032b24 	fstdpl	d2, [r3, #-144]
     b6c:	22032c47 	andcs	r2, r3, #18176	; 0x4700
     b70:	2b11032b 	blcs	441824 <_ram_end+0x23cd18>
     b74:	032b7503 	teqeq	fp, #12582912	; 0xc00000
     b78:	032b7ea1 	teqeq	fp, #2576	; 0xa10
     b7c:	d6034710 	undefined
     b80:	2a2c4701 	bcs	b1278c <_ram_end+0x90dc80>
     b84:	477e9a03 	ldrmib	r9, [lr, -r3, lsl #20]!
     b88:	7f00f903 	swivc	0x0000f903
     b8c:	0800f603 	stmeqda	r0, {r0, r1, r9, sl, ip, sp, lr, pc}
     b90:	2c482ca9 	mcrrcs	12, 10, r2, r8, cr9
     b94:	264c2f2b 	strcsb	r2, [ip], -fp, lsr #30
     b98:	03471f03 	cmpeq	r7, #12	; 0xc
     b9c:	032f2b61 	teqeq	pc, #99328	; 0x18400
     ba0:	6b032b1b 	blvs	cb814 <.debug_line+0xcb814>
     ba4:	822e627f 	eorhi	r6, lr, #-268435449	; 0xf0000007
     ba8:	2c2b6a03 	stccs	10, cr6, [fp], #-12
     bac:	2c464929 	mcrrcs	9, 2, r4, r6, cr9
     bb0:	03452d29 	cmpeq	r5, #2624	; 0xa40
     bb4:	65032b1b 	strvs	r2, [r3, #-2843]
     bb8:	471a039b 	undefined
     bbc:	644e5e2c 	strvsb	r5, [lr], #-3628
     bc0:	494a482c 	stmmidb	sl, {r2, r3, r5, fp, lr}^
     bc4:	022d2c62 	eoreq	r2, sp, #25088	; 0x6200
     bc8:	0101000e 	tsteq	r1, lr
     bcc:	00000173 	andeq	r0, r0, r3, ror r1
     bd0:	00370002 	eoreqs	r0, r7, r2
     bd4:	01020000 	tsteq	r2, r0
     bd8:	000a0efb 	streqd	r0, [sl], -fp
     bdc:	01010101 	tsteq	r1, r1, lsl #2
     be0:	01000000 	tsteq	r0, r0
     be4:	61737500 	cmnvs	r3, r0, lsl #10
     be8:	632e7472 	teqvs	lr, #1912602624	; 0x72000000
     bec:	00000000 	andeq	r0, r0, r0
     bf0:	31395441 	teqcc	r9, r1, asr #8
     bf4:	374d4153 	smlsldcc	r4, sp, r3, r1
     bf8:	38323153 	ldmccda	r2!, {r0, r1, r4, r6, r8, ip, sp}
     bfc:	0000682e 	andeq	r6, r0, lr, lsr #16
     c00:	616d0000 	cmnvs	sp, r0
     c04:	682e6e69 	stmvsda	lr!, {r0, r3, r5, r6, r9, sl, fp, sp, lr}
     c08:	00000000 	andeq	r0, r0, r0
     c0c:	02050000 	andeq	r0, r5, #0	; 0x0
     c10:	00203280 	eoreq	r3, r0, r0, lsl #5
     c14:	2c011603 	stccs	6, cr1, [r1], {3}
     c18:	2c4f2c4f 	mcrrcs	12, 4, r2, pc, cr15
     c1c:	6c032c4f 	stcvs	12, cr2, [r3], {79}
     c20:	2b1b0347 	blcs	6c1944 <_ram_end+0x4bce38>
     c24:	03470a03 	cmpeq	r7, #12288	; 0x3000
     c28:	0a032b77 	beq	cba0c <.debug_line+0xcba0c>
     c2c:	2b76032b 	blcs	1d818e0 <_ram_end+0x1b7cdd4>
     c30:	2c2b6503 	cfstr32cs	mvfx6, [fp], #-12
     c34:	2c2b7603 	stccs	6, cr7, [fp], #-12
     c38:	2c2b1a03 	stccs	10, cr1, [fp], #-12
     c3c:	2c2b7603 	stccs	6, cr7, [fp], #-12
     c40:	2c2b1a03 	stccs	10, cr1, [fp], #-12
     c44:	2c2a484e 	stccs	8, cr4, [sl], #-312
     c48:	2d2db864 	stccs	8, cr11, [sp, #-400]!
     c4c:	03470a03 	cmpeq	r7, #12288	; 0x3000
     c50:	12036370 	andne	r6, r3, #-1073741823	; 0xc0000001
     c54:	6b032e2b 	blvs	cc508 <.debug_line+0xcc508>
     c58:	2b10032b 	blcs	40190c <_ram_end+0x1fce00>
     c5c:	2b6e032d 	blcs	1b81918 <_ram_end+0x197ce0c>
     c60:	262b1503 	strcst	r1, [fp], -r3, lsl #10
     c64:	2c2b7003 	stccs	0, cr7, [fp], #-12
     c68:	03b71c03 	moveqs	r1, #768	; 0x300
     c6c:	262d2b65 	strcst	r2, [sp], -r5, ror #22
     c70:	032b6c03 	teqeq	fp, #768	; 0x300
     c74:	51032b32 	tstpl	r3, r2, lsr fp
     c78:	65032a2b 	strvs	r2, [r3, #-2603]
     c7c:	2b1c0347 	blcs	7019a0 <_ram_end+0x4fce94>
     c80:	2c2b0903 	stccs	9, cr0, [fp], #-12
     c84:	2c2b5b03 	stccs	11, cr5, [fp], #-12
     c88:	2c2b7603 	stccs	6, cr7, [fp], #-12
     c8c:	2c2b1a03 	stccs	10, cr1, [fp], #-12
     c90:	2c2b7603 	stccs	6, cr7, [fp], #-12
     c94:	2c2b1a03 	stccs	10, cr1, [fp], #-12
     c98:	032b2b03 	teqeq	fp, #3072	; 0xc00
     c9c:	2c2a630f 	stccs	3, cr6, [sl], #-60
     ca0:	03476749 	cmpeq	r7, #19136512	; 0x1240000
     ca4:	09034771 	stmeqdb	r3, {r0, r4, r5, r6, r8, r9, sl, lr}
     ca8:	037c2d63 	cmneq	ip, #6336	; 0x18c0
     cac:	2c2a4712 	stccs	7, cr4, [sl], #-72
     cb0:	7003644f 	andvc	r6, r3, pc, asr #8
     cb4:	7a03a163 	bvc	e9248 <.debug_line+0xe9248>
     cb8:	ef19032b 	swi	0x0019032b
     cbc:	4a492c2a 	bmi	124bd6c <_ram_end+0x1047260>
     cc0:	2c2a4c2b 	stccs	12, cr4, [sl], #-172
     cc4:	4d648249 	sfmmi	f0, 3, [r4, #-292]!
     cc8:	284b3033 	stmcsda	fp, {r0, r1, r4, r5, ip, sp}^
     ccc:	31282e4a 	teqcc	r8, sl, asr #28
     cd0:	2f2b7603 	swics	0x002b7603
     cd4:	2b120331 	blcs	4819a0 <_ram_end+0x27ce94>
     cd8:	2f272f2c 	swics	0x00272f2c
     cdc:	48476a03 	stmmida	r7, {r0, r1, r9, fp, sp, lr}^
     ce0:	2c2b1003 	stccs	0, cr1, [fp], #-12
     ce4:	682f272f 	stmvsda	pc!, {r0, r1, r2, r3, r5, r8, r9, sl, sp}
     ce8:	2c2c2a2c 	stccs	10, cr2, [ip], #-176
     cec:	2631292c 	ldrcst	r2, [r1], -ip, lsr #18
     cf0:	7803302f 	stmvcda	r3, {r0, r1, r2, r3, r5, ip, sp}
     cf4:	2c2c2e2b 	stccs	14, cr2, [ip], #-172
     cf8:	7ee7032e 	cdpvc	3, 14, cr0, cr7, cr14, {1}
     cfc:	6d032d2b 	stcvs	13, cr2, [r3, #-172]
     d00:	2b160347 	blcs	581a24 <_ram_end+0x37cf18>
     d04:	03475603 	cmpeq	r7, #3145728	; 0x300000
     d08:	6e032b14 	mcrvs	11, 0, r2, cr3, cr4, {0}
     d0c:	2b30032b 	blcs	c019c0 <_ram_end+0x9fceb4>
     d10:	2a2b5103 	bcs	ad5124 <_ram_end+0x8d0618>
     d14:	032b0a03 	teqeq	fp, #12288	; 0x3000
     d18:	65032b77 	strvs	r2, [r3, #-2935]
     d1c:	2b25032b 	blcs	9419d0 <_ram_end+0x73cec4>
     d20:	032b5c03 	teqeq	fp, #768	; 0x300
     d24:	032c2b76 	teqeq	ip, #120832	; 0x1d800
     d28:	032c2b1a 	teqeq	ip, #26624	; 0x6800
     d2c:	032c2b76 	teqeq	ip, #120832	; 0x1d800
     d30:	032b00c6 	teqeq	fp, #198	; 0xc6
     d34:	032c2b54 	teqeq	ip, #86016	; 0x15000
     d38:	8d032b2b 	fstdhi	d2, [r3, #-172]
     d3c:	0a022b01 	beq	8b948 <.debug_line+0x8b948>
     d40:	48010100 	stmmida	r1, {r8}
     d44:	02000001 	andeq	r0, r0, #1	; 0x1
     d48:	00006900 	andeq	r6, r0, r0, lsl #18
     d4c:	fb010200 	blx	41556 <.debug_line+0x41556>
     d50:	01000a0e 	tsteq	r0, lr, lsl #20
     d54:	00010101 	andeq	r0, r1, r1, lsl #2
     d58:	2f010000 	swics	0x00010000
     d5c:	2f74706f 	swics	0x0074706f
     d60:	6c6f6f74 	stcvsl	15, cr6, [pc], #-464
     d64:	72612f73 	rsbvc	r2, r1, #460	; 0x1cc
     d68:	6e672f6d 	cdpvs	15, 6, cr2, cr7, cr13, {3}
     d6c:	6d726175 	ldfvse	f6, [r2, #-468]!
     d70:	342e332d 	strcct	r3, [lr], #-813
     d74:	622f332e 	eorvs	r3, pc, #-1207959552	; 0xb8000000
     d78:	2e2f6e69 	cdpcs	14, 2, cr6, cr15, cr9, {3}
     d7c:	696c2f2e 	stmvsdb	ip!, {r1, r2, r3, r5, r8, r9, sl, fp, sp}^
     d80:	63672f62 	cmnvs	r7, #392	; 0x188
     d84:	72612f63 	rsbvc	r2, r1, #396	; 0x18c
     d88:	6c652d6d 	stcvsl	13, cr2, [r5], #-436
     d8c:	2e332f66 	cdpcs	15, 3, cr2, cr3, cr6, {3}
     d90:	2f332e34 	swics	0x00332e34
     d94:	6c636e69 	stcvsl	14, cr6, [r3], #-420
     d98:	00656475 	rsbeq	r6, r5, r5, ror r4
     d9c:	69727000 	ldmvsdb	r2!, {ip, sp, lr}^
     da0:	2e66746e 	cdpcs	4, 6, cr7, cr6, cr14, {3}
     da4:	00000063 	andeq	r0, r0, r3, rrx
     da8:	64747300 	ldrvsbt	r7, [r4], #-768
     dac:	2e677261 	cdpcs	2, 6, cr7, cr7, cr1, {3}
     db0:	00010068 	andeq	r0, r1, r8, rrx
     db4:	05000000 	streq	r0, [r0]
     db8:	20363402 	eorcss	r3, r6, r2, lsl #8
     dbc:	010b0300 	tsteq	fp, r0, lsl #6
     dc0:	7b32327f 	blvc	c8d7c4 <_ram_end+0xa88cb8>
     dc4:	692c824b 	stmvsdb	ip!, {r0, r1, r3, r6, r9, pc}
     dc8:	032d2e42 	teqeq	sp, #1056	; 0x420
     dcc:	0134022a 	teqeq	r4, sl, lsr #4
     dd0:	48475703 	stmmida	r7, {r0, r1, r8, r9, sl, ip, lr}^
     dd4:	2c2a2c4a 	stccs	12, cr2, [sl], #-296
     dd8:	2c2a4cbc 	stccs	12, cr4, [sl], #-752
     ddc:	452d4932 	strmi	r4, [sp, #-2354]!
     de0:	9c9b0b03 	fldmiaxls	fp, {d0}
     de4:	482c2a64 	stmmida	ip!, {r2, r5, r6, r9, fp, sp}
     de8:	4e636203 	cdpmi	2, 6, cr6, cr3, cr3, {0}
     dec:	2b7a032a 	blcs	1e81a9c <_ram_end+0x1c7cf90>
     df0:	4b2c2c4d 	blmi	b0bf2c <_ram_end+0x907420>
     df4:	39087703 	stmccdb	r8, {r0, r1, r8, r9, sl, ip, sp, lr}
     df8:	49630e03 	stmmidb	r3!, {r0, r1, r9, sl, fp}^
     dfc:	77034a60 	strvc	r4, [r3, -r0, ror #20]
     e00:	032c2a63 	teqeq	ip, #405504	; 0x63000
     e04:	ba2b9b2b 	blt	ae7ab8 <_ram_end+0x8e2fac>
     e08:	432b0903 	teqmi	fp, #49152	; 0xc000
     e0c:	44329e2f 	ldrmit	r9, [r2], #-3631
     e10:	2a482a2e 	bcs	120b6d0 <_ram_end+0x1006bc4>
     e14:	2f4a4948 	swics	0x004a4948
     e18:	49992f5f 	ldmmiib	r9, {r0, r1, r2, r3, r4, r6, r8, r9, sl, fp, sp}
     e1c:	4f262cba 	swimi	0x00262cba
     e20:	477a0331 	undefined
     e24:	452d7b31 	strmi	r7, [sp, #-2865]!
     e28:	2c9e492d 	ldccs	9, cr4, [lr], {45}
     e2c:	470a0326 	strmi	r0, [sl, -r6, lsr #6]
     e30:	339d2c62 	orrccs	r2, sp, #25088	; 0x6200
     e34:	654a2d26 	strvsb	r2, [sl, #-3366]
     e38:	2b0c032c 	blcs	301af0 <_ram_end+0xfcfe4>
     e3c:	2c2b7903 	stccs	9, cr7, [fp], #-12
     e40:	2cb6302c 	ldccs	0, cr3, [r6], #176
     e44:	4bd30a03 	blmi	ff4c3658 <_ram_end+0xff2beb4c>
     e48:	2d637603 	stccsl	6, cr7, [r3, #-12]!
     e4c:	7a032e2c 	bvc	cc704 <.debug_line+0xcc704>
     e50:	2e2c2d63 	cdpcs	13, 2, cr2, cr12, cr3, {3}
     e54:	037f7603 	cmneq	pc, #3145728	; 0x300000
     e58:	67032b12 	smladvs	r3, r2, fp, r2
     e5c:	2b19032b 	blcs	641b10 <_ram_end+0x43d004>
     e60:	2c2b6803 	stccs	8, cr6, [fp], #-12
     e64:	032cb630 	teqeq	ip, #50331648	; 0x3000000
     e68:	7a03d30a 	bvc	f5a98 <.debug_line+0xf5a98>
     e6c:	2e2c2d47 	cdpcs	13, 2, cr2, cr12, cr7, {2}
     e70:	03630a03 	cmneq	r3, #12288	; 0x3000
     e74:	18032b6c 	stmneda	r3, {r2, r3, r5, r6, r8, r9, fp, sp}
     e78:	2b62032b 	blcs	1881b2c <_ram_end+0x167d020>
     e7c:	032cb631 	teqeq	ip, #51380224	; 0x3100000
     e80:	7a03d30a 	bvc	f5ab0 <.debug_line+0xf5ab0>
     e84:	032f2d47 	teqeq	pc, #4544	; 0x11c0
     e88:	02026310 	andeq	r6, r2, #1073741824	; 0x40000000
     e8c:	d8010100 	stmleda	r1, {r8}
     e90:	02000001 	andeq	r0, r0, #1	; 0x1
     e94:	00002b00 	andeq	r2, r0, r0, lsl #22
     e98:	fb010200 	blx	416a2 <.debug_line+0x416a2>
     e9c:	01000a0e 	tsteq	r0, lr, lsl #20
     ea0:	00010101 	andeq	r0, r1, r1, lsl #2
     ea4:	00010000 	andeq	r0, r1, r0
     ea8:	70707573 	rsbvcs	r7, r0, r3, ror r5
     eac:	2e74726f 	cdpcs	2, 7, cr7, cr4, cr15, {3}
     eb0:	00000063 	andeq	r0, r0, r3, rrx
     eb4:	6e693c00 	cdpvs	12, 6, cr3, cr9, cr0, {0}
     eb8:	6e726574 	mrcvs	5, 3, r6, cr2, cr4, {3}
     ebc:	003e6c61 	eoreqs	r6, lr, r1, ror #24
     ec0:	00000000 	andeq	r0, r0, r0
     ec4:	30020500 	andcc	r0, r2, r0, lsl #10
     ec8:	0300203b 	tsteq	r0, #59	; 0x3b
     ecc:	2c440110 	stfcse	f0, [r4], {16}
     ed0:	2d4ab92d 	stccsl	9, cr11, [sl, #-180]
     ed4:	03322c29 	teqeq	r2, #10496	; 0x2900
     ed8:	2d332b78 	fldmdbdcs	r3!, {d2-d61}
     edc:	2b79032a 	blcs	1e41b8c <_ram_end+0x1c3d080>
     ee0:	037f1303 	cmneq	pc, #201326592	; 0xc000000
     ee4:	034a476d 	cmpeq	sl, #28573696	; 0x1b40000
     ee8:	6f032b10 	swivs	0x00032b10
     eec:	2b11032b 	blcs	441ba0 <_ram_end+0x23d094>
     ef0:	2f2b7803 	swics	0x002b7803
     ef4:	33292c28 	teqcc	r9, #10240	; 0x2800
     ef8:	312c2926 	teqcc	ip, r6, lsr #18
     efc:	822d4530 	eorhi	r4, sp, #201326592	; 0xc000000
     f00:	29322c46 	ldmcsdb	r2!, {r1, r2, r6, sl, fp, sp}
     f04:	03b9662d 	moveqs	r6, #47185920	; 0x2d00000
     f08:	3026630d 	eorcc	r6, r6, sp, lsl #6
     f0c:	2c482c65 	mcrrcs	12, 6, r2, r8, cr5
     f10:	262d292d 	strcst	r2, [sp], -sp, lsr #18
     f14:	2b790332 	blcs	1e41be4 <_ram_end+0x1c3d0d8>
     f18:	032b0903 	teqeq	fp, #49152	; 0xc000
     f1c:	09036311 	stmeqdb	r3, {r0, r4, r8, r9, sp, lr}
     f20:	2b770347 	blcs	1dc1c44 <_ram_end+0x1bbd138>
     f24:	032b0a03 	teqeq	fp, #12288	; 0x3000
     f28:	0a032b76 	beq	cbd08 <.debug_line+0xcbd08>
     f2c:	75032d2b 	strvc	r2, [r3, #-3371]
     f30:	2b0c032b 	blcs	301be4 <_ram_end+0xfd0d8>
     f34:	2d2b7303 	stccs	3, cr7, [fp, #-12]!
     f38:	2d2b0c03 	stccs	12, cr0, [fp, #-12]!
     f3c:	032b7703 	teqeq	fp, #786432	; 0xc0000
     f40:	2e2c2b0a 	fmuldcs	d2, d12, d10
     f44:	312b6b03 	teqcc	fp, r3, lsl #22
     f48:	302b0f03 	eorcc	r0, fp, r3, lsl #30
     f4c:	49494948 	stmmidb	r9, {r3, r6, r8, fp, lr}^
     f50:	477fb103 	ldrmib	fp, [pc, -r3, lsl #2]!
     f54:	b9824945 	stmltib	r2, {r0, r2, r6, r8, fp, lr}
     f58:	4700ce03 	strmi	ip, [r0, -r3, lsl #28]
     f5c:	7f7fad03 	swivc	0x007fad03
     f60:	b9824945 	stmltib	r2, {r0, r2, r6, r8, fp, lr}
     f64:	4700d403 	strmi	sp, [r0, -r3, lsl #8]
     f68:	482c2a64 	stmmida	ip!, {r2, r5, r6, r9, fp, sp}
     f6c:	2f462d2a 	swics	0x00462d2a
     f70:	2d292e2a 	stccs	14, cr2, [r9, #-168]!
     f74:	032c2a2f 	teqeq	ip, #192512	; 0x2f000
     f78:	452b7f9b 	strmi	r7, [fp, #-3995]!
     f7c:	7ab98249 	bvc	fee618a8 <_ram_end+0xfec5cd9c>
     f80:	4700c403 	strmi	ip, [r0, -r3, lsl #8]
     f84:	2b7fba03 	blcs	1fef798 <_ram_end+0x1deac8c>
     f88:	5eb98249 	cdppl	2, 11, cr8, cr9, cr9, {2}
     f8c:	b9824945 	stmltib	r2, {r0, r2, r6, r8, fp, lr}
     f90:	8249455e 	subhi	r4, r9, #394264576	; 0x17800000
     f94:	49455eb9 	stmmidb	r5, {r0, r3, r4, r5, r7, r9, sl, fp, ip, lr}^
     f98:	455eb982 	ldrmib	fp, [lr, #-2434]
     f9c:	20038249 	andcs	r8, r3, r9, asr #4
     fa0:	032bc508 	teqeq	fp, #33554432	; 0x2000000
     fa4:	032b00d5 	teqeq	fp, #213	; 0xd5
     fa8:	7303470d 	tstvc	r3, #3407872	; 0x340000
     fac:	2b09032b 	blcs	241c60 <_ram_end+0x3d154>
     fb0:	4c2b2627 	stcmi	6, cr2, [fp], #-156
     fb4:	2e312c26 	cdpcs	12, 3, cr2, cr1, cr6, {1}
     fb8:	312a2e2c 	teqcc	sl, ip, lsr #28
     fbc:	0e032e9c 	mcreq	14, 0, r2, cr3, cr12, {4}
     fc0:	302a2c47 	eorcc	r2, sl, r7, asr #24
     fc4:	2a2a652c 	bcs	a9a47c <_ram_end+0x895970>
     fc8:	2a2a2d2d 	bcs	a8c484 <_ram_end+0x887978>
     fcc:	2e292e2d 	cdpcs	14, 2, cr2, cr9, cr13, {1}
     fd0:	09034833 	stmeqdb	r3, {r0, r1, r4, r5, fp, lr}
     fd4:	47770363 	ldrmib	r0, [r7, -r3, ror #6]!
     fd8:	63790380 	cmnvs	r9, #2	; 0x2
     fdc:	2b790332 	blcs	1e41cac <_ram_end+0x1c3d1a0>
     fe0:	2c2b0a03 	stccs	10, cr0, [fp], #-12
     fe4:	477a0330 	undefined
     fe8:	9f2c302c 	swils	0x002c302c
     fec:	4b2c462c 	blmi	b128a4 <_ram_end+0x90dd98>
     ff0:	0d0364b8 	cfstrseq	mvf6, [r3, #-736]
     ff4:	642e4863 	strvst	r4, [lr], #-2147
     ff8:	476c032f 	strmib	r0, [ip, -pc, lsr #6]!
     ffc:	2b7803a3 	blcs	1e01e90 <_ram_end+0x1bfd384>
    1000:	2a2c462d 	bcs	b128bc <_ram_end+0x90ddb0>
    1004:	0a03292e 	beq	cb4c4 <.debug_line+0xcb4c4>
    1008:	7fb9032b 	swivc	0x00b9032b
    100c:	822c4647 	eorhi	r4, ip, #74448896	; 0x4700000
    1010:	032cd49e 	teqeq	ip, #-1644167168	; 0x9e000000
    1014:	0c03476f 	stceq	7, cr4, [r3], {111}
    1018:	292c487f 	stmcsdb	ip!, {r0, r1, r2, r3, r4, r5, r6, fp, lr}
    101c:	292c4844 	stmcsdb	ip!, {r2, r6, fp, lr}
    1020:	4700d403 	strmi	sp, [r0, -r3, lsl #8]
    1024:	4a282e63 	bmi	a0c9b8 <_ram_end+0x807eac>
    1028:	264c2c2c 	strcsb	r2, [ip], -ip, lsr #24
    102c:	482c292c 	stmmida	ip!, {r2, r3, r5, r8, fp, sp}
    1030:	2a492c2a 	bcs	124c0e0 <_ram_end+0x10475d4>
    1034:	652c6248 	strvs	r6, [ip, #-584]!
    1038:	4709039c 	undefined
    103c:	79032ba2 	stmvcdb	r3, {r1, r5, r7, r8, r9, fp, sp}
    1040:	2b0a032b 	blcs	281cf4 <_ram_end+0x7d1e8>
    1044:	4c477603 	mcrrmi	6, 0, r7, r7, cr3
    1048:	2a488030 	bcs	1221110 <_ram_end+0x101c604>
    104c:	2c649c4d 	stccsl	12, cr9, [r4], #-308
    1050:	9cf0312a 	ldflse	f3, [r0], #168
    1054:	2d2d292e 	stccs	9, cr2, [sp, #-184]!
    1058:	2e2c2f27 	cdpcs	15, 2, cr2, cr12, cr7, {1}
    105c:	6d032c2a 	stcvs	12, cr2, [r3, #-168]
    1060:	10034c47 	andne	r4, r3, r7, asr #24
    1064:	02022c7f 	andeq	r2, r2, #32512	; 0x7f00
    1068:	Address 0x1068 is out of bounds.

Disassembly of section .debug_frame:

00000000 <.debug_frame>:
   0:	0000000c 	andeq	r0, r0, ip
   4:	ffffffff 	swinv	0x00ffffff
   8:	7c010001 	stcvc	0, cr0, [r1], {1}
   c:	000d0c0e 	andeq	r0, sp, lr, lsl #24
  10:	00000014 	andeq	r0, r0, r4, lsl r0
  14:	00000000 	andeq	r0, r0, r0
  18:	0020015c 	eoreq	r0, r0, ip, asr r1
  1c:	000000b0 	streqh	r0, [r0], -r0
  20:	8e080e4c 	cdphi	14, 0, cr0, cr8, cr12, {2}
  24:	00028401 	andeq	r8, r2, r1, lsl #8
  28:	0000000c 	andeq	r0, r0, ip
  2c:	00000000 	andeq	r0, r0, r0
  30:	0020020c 	eoreq	r0, r0, ip, lsl #4
  34:	00000004 	andeq	r0, r0, r4
  38:	0000000c 	andeq	r0, r0, ip
  3c:	00000000 	andeq	r0, r0, r0
  40:	00200210 	eoreq	r0, r0, r0, lsl r2
  44:	00000004 	andeq	r0, r0, r4
  48:	0000000c 	andeq	r0, r0, ip
  4c:	00000000 	andeq	r0, r0, r0
  50:	00200214 	eoreq	r0, r0, r4, lsl r2
  54:	00000008 	andeq	r0, r0, r8
  58:	0000000c 	andeq	r0, r0, ip
  5c:	ffffffff 	swinv	0x00ffffff
  60:	7c010001 	stcvc	0, cr0, [r1], {1}
  64:	000d0c0e 	andeq	r0, sp, lr, lsl #24
  68:	0000000c 	andeq	r0, r0, ip
  6c:	00000058 	andeq	r0, r0, r8, asr r0
  70:	0020021c 	eoreq	r0, r0, ip, lsl r2
  74:	00000020 	andeq	r0, r0, r0, lsr #32
  78:	0000000c 	andeq	r0, r0, ip
  7c:	00000058 	andeq	r0, r0, r8, asr r0
  80:	0020023c 	eoreq	r0, r0, ip, lsr r2
  84:	0000005c 	andeq	r0, r0, ip, asr r0
  88:	0000000c 	andeq	r0, r0, ip
  8c:	00000058 	andeq	r0, r0, r8, asr r0
  90:	00200298 	mlaeq	r0, r8, r2, r0
  94:	0000001c 	andeq	r0, r0, ip, lsl r0
  98:	0000000c 	andeq	r0, r0, ip
  9c:	00000058 	andeq	r0, r0, r8, asr r0
  a0:	002002b4 	streqh	r0, [r0], -r4
  a4:	0000001c 	andeq	r0, r0, ip, lsl r0
  a8:	0000000c 	andeq	r0, r0, ip
  ac:	00000058 	andeq	r0, r0, r8, asr r0
  b0:	002002d0 	ldreqd	r0, [r0], -r0
  b4:	0000001c 	andeq	r0, r0, ip, lsl r0
  b8:	0000000c 	andeq	r0, r0, ip
  bc:	00000058 	andeq	r0, r0, r8, asr r0
  c0:	002002ec 	eoreq	r0, r0, ip, ror #5
  c4:	0000005c 	andeq	r0, r0, ip, asr r0
  c8:	0000000c 	andeq	r0, r0, ip
  cc:	00000058 	andeq	r0, r0, r8, asr r0
  d0:	00200348 	eoreq	r0, r0, r8, asr #6
  d4:	00000004 	andeq	r0, r0, r4
  d8:	0000000c 	andeq	r0, r0, ip
  dc:	ffffffff 	swinv	0x00ffffff
  e0:	7c010001 	stcvc	0, cr0, [r1], {1}
  e4:	000d0c0e 	andeq	r0, sp, lr, lsl #24
  e8:	0000000c 	andeq	r0, r0, ip
  ec:	000000d8 	ldreqd	r0, [r0], -r8
  f0:	0020034c 	eoreq	r0, r0, ip, asr #6
  f4:	00000024 	andeq	r0, r0, r4, lsr #32
  f8:	0000000c 	andeq	r0, r0, ip
  fc:	000000d8 	ldreqd	r0, [r0], -r8
 100:	00200370 	eoreq	r0, r0, r0, ror r3
 104:	0000006c 	andeq	r0, r0, ip, rrx
 108:	00000010 	andeq	r0, r0, r0, lsl r0
 10c:	000000d8 	ldreqd	r0, [r0], -r8
 110:	002003dc 	ldreqd	r0, [r0], -ip
 114:	00000054 	andeq	r0, r0, r4, asr r0
 118:	00040e44 	andeq	r0, r4, r4, asr #28
 11c:	00000010 	andeq	r0, r0, r0, lsl r0
 120:	000000d8 	ldreqd	r0, [r0], -r8
 124:	00200430 	eoreq	r0, r0, r0, lsr r4
 128:	00000064 	andeq	r0, r0, r4, rrx
 12c:	00040e44 	andeq	r0, r4, r4, asr #28
 130:	0000001c 	andeq	r0, r0, ip, lsl r0
 134:	000000d8 	ldreqd	r0, [r0], -r8
 138:	00200494 	mlaeq	r0, r4, r4, r0
 13c:	00000098 	muleq	r0, r8, r0
 140:	440c0d44 	strmi	r0, [ip], #-3396
 144:	038d028e 	orreq	r0, sp, #-536870904	; 0xe0000008
 148:	0584048b 	streq	r0, [r4, #1163]
 14c:	040b0c44 	streq	r0, [fp], #-3140
 150:	00000020 	andeq	r0, r0, r0, lsr #32
 154:	000000d8 	ldreqd	r0, [r0], -r8
 158:	0020052c 	eoreq	r0, r0, ip, lsr #10
 15c:	000000b4 	streqh	r0, [r0], -r4
 160:	440c0d44 	strmi	r0, [ip], #-3396
 164:	038d028e 	orreq	r0, sp, #-536870904	; 0xe0000008
 168:	0585048b 	streq	r0, [r5, #1163]
 16c:	0c440684 	mcrreq	6, 8, r0, r4, cr4
 170:	0000040b 	andeq	r0, r0, fp, lsl #8
 174:	0000001c 	andeq	r0, r0, ip, lsl r0
 178:	000000d8 	ldreqd	r0, [r0], -r8
 17c:	002005e0 	eoreq	r0, r0, r0, ror #11
 180:	0000006c 	andeq	r0, r0, ip, rrx
 184:	440c0d44 	strmi	r0, [ip], #-3396
 188:	038d028e 	orreq	r0, sp, #-536870904	; 0xe0000008
 18c:	0c44048b 	cfstrdeq	mvd0, [r4], {139}
 190:	0000040b 	andeq	r0, r0, fp, lsl #8
 194:	00000020 	andeq	r0, r0, r0, lsr #32
 198:	000000d8 	ldreqd	r0, [r0], -r8
 19c:	0020064c 	eoreq	r0, r0, ip, asr #12
 1a0:	000001a0 	andeq	r0, r0, r0, lsr #3
 1a4:	440c0d44 	strmi	r0, [ip], #-3396
 1a8:	038d028e 	orreq	r0, sp, #-536870904	; 0xe0000008
 1ac:	0586048b 	streq	r0, [r6, #1163]
 1b0:	07840685 	streq	r0, [r4, r5, lsl #13]
 1b4:	040b0c44 	streq	r0, [fp], #-3140
 1b8:	0000000c 	andeq	r0, r0, ip
 1bc:	ffffffff 	swinv	0x00ffffff
 1c0:	7c010001 	stcvc	0, cr0, [r1], {1}
 1c4:	000d0c0e 	andeq	r0, sp, lr, lsl #24
 1c8:	00000014 	andeq	r0, r0, r4, lsl r0
 1cc:	000001b8 	streqh	r0, [r0], -r8
 1d0:	002007ec 	eoreq	r0, r0, ip, ror #15
 1d4:	0000004c 	andeq	r0, r0, ip, asr #32
 1d8:	8e040e44 	cdphi	14, 0, cr0, cr4, cr4, {2}
 1dc:	00000001 	andeq	r0, r0, r1
 1e0:	00000014 	andeq	r0, r0, r4, lsl r0
 1e4:	000001b8 	streqh	r0, [r0], -r8
 1e8:	00200838 	eoreq	r0, r0, r8, lsr r8
 1ec:	00000058 	andeq	r0, r0, r8, asr r0
 1f0:	8e040e44 	cdphi	14, 0, cr0, cr4, cr4, {2}
 1f4:	00000001 	andeq	r0, r0, r1
 1f8:	0000000c 	andeq	r0, r0, ip
 1fc:	000001b8 	streqh	r0, [r0], -r8
 200:	00200890 	mlaeq	r0, r0, r8, r0
 204:	0000001c 	andeq	r0, r0, ip, lsl r0
 208:	00000014 	andeq	r0, r0, r4, lsl r0
 20c:	000001b8 	streqh	r0, [r0], -r8
 210:	002008ac 	eoreq	r0, r0, ip, lsr #17
 214:	000000e8 	andeq	r0, r0, r8, ror #1
 218:	8e040e44 	cdphi	14, 0, cr0, cr4, cr4, {2}
 21c:	080e4801 	stmeqda	lr, {r0, fp, lr}
 220:	0000000c 	andeq	r0, r0, ip
 224:	000001b8 	streqh	r0, [r0], -r8
 228:	00200994 	mlaeq	r0, r4, r9, r0
 22c:	00000044 	andeq	r0, r0, r4, asr #32
 230:	0000000c 	andeq	r0, r0, ip
 234:	000001b8 	streqh	r0, [r0], -r8
 238:	002009d8 	ldreqd	r0, [r0], -r8
 23c:	00000044 	andeq	r0, r0, r4, asr #32
 240:	0000001c 	andeq	r0, r0, ip, lsl r0
 244:	000001b8 	streqh	r0, [r0], -r8
 248:	00200a1c 	eoreq	r0, r0, ip, lsl sl
 24c:	00000d34 	andeq	r0, r0, r4, lsr sp
 250:	8e140e44 	cdphi	14, 1, cr0, cr4, cr4, {2}
 254:	86028701 	strhi	r8, [r2], -r1, lsl #14
 258:	84048503 	strhi	r8, [r4], #-1283
 25c:	1c0e5405 	cfstrsne	mvf5, [lr], {5}
 260:	0000001c 	andeq	r0, r0, ip, lsl r0
 264:	000001b8 	streqh	r0, [r0], -r8
 268:	00201750 	eoreq	r1, r0, r0, asr r7
 26c:	00000098 	muleq	r0, r8, r0
 270:	440c0d44 	strmi	r0, [ip], #-3396
 274:	038d028e 	orreq	r0, sp, #-536870904	; 0xe0000008
 278:	0c48048b 	cfstrdeq	mvd0, [r8], {139}
 27c:	0000040b 	andeq	r0, r0, fp, lsl #8
 280:	00000024 	andeq	r0, r0, r4, lsr #32
 284:	000001b8 	streqh	r0, [r0], -r8
 288:	002017e8 	eoreq	r1, r0, r8, ror #15
 28c:	00000228 	andeq	r0, r0, r8, lsr #4
 290:	440c0d44 	strmi	r0, [ip], #-3396
 294:	038d028e 	orreq	r0, sp, #-536870904	; 0xe0000008
 298:	0588048b 	streq	r0, [r8, #1163]
 29c:	07860687 	streq	r0, [r6, r7, lsl #13]
 2a0:	09840885 	stmeqib	r4, {r0, r2, r7, fp}
 2a4:	040b0c54 	streq	r0, [fp], #-3156
 2a8:	00000028 	andeq	r0, r0, r8, lsr #32
 2ac:	000001b8 	streqh	r0, [r0], -r8
 2b0:	00201a10 	eoreq	r1, r0, r0, lsl sl
 2b4:	00000134 	andeq	r0, r0, r4, lsr r1
 2b8:	440c0d44 	strmi	r0, [ip], #-3396
 2bc:	038d028e 	orreq	r0, sp, #-536870904	; 0xe0000008
 2c0:	058a048b 	streq	r0, [sl, #1163]
 2c4:	07880689 	streq	r0, [r8, r9, lsl #13]
 2c8:	09860887 	stmeqib	r6, {r0, r1, r2, r7, fp}
 2cc:	0b840a85 	bleq	fe102ce8 <_ram_end+0xfdefe1dc>
 2d0:	040b0c48 	streq	r0, [fp], #-3144
 2d4:	00000024 	andeq	r0, r0, r4, lsr #32
 2d8:	000001b8 	streqh	r0, [r0], -r8
 2dc:	00201b44 	eoreq	r1, r0, r4, asr #22
 2e0:	00000230 	andeq	r0, r0, r0, lsr r2
 2e4:	440c0d44 	strmi	r0, [ip], #-3396
 2e8:	038d028e 	orreq	r0, sp, #-536870904	; 0xe0000008
 2ec:	0588048b 	streq	r0, [r8, #1163]
 2f0:	07860687 	streq	r0, [r6, r7, lsl #13]
 2f4:	09840885 	stmeqib	r4, {r0, r2, r7, fp}
 2f8:	040b0c44 	streq	r0, [fp], #-3140
 2fc:	00000028 	andeq	r0, r0, r8, lsr #32
 300:	000001b8 	streqh	r0, [r0], -r8
 304:	00201d74 	eoreq	r1, r0, r4, ror sp
 308:	000002b0 	streqh	r0, [r0], -r0
 30c:	440c0d44 	strmi	r0, [ip], #-3396
 310:	038d028e 	orreq	r0, sp, #-536870904	; 0xe0000008
 314:	058a048b 	streq	r0, [sl, #1163]
 318:	07880689 	streq	r0, [r8, r9, lsl #13]
 31c:	09860887 	stmeqib	r6, {r0, r1, r2, r7, fp}
 320:	0b840a85 	bleq	fe102d3c <_ram_end+0xfdefe230>
 324:	040b0c44 	streq	r0, [fp], #-3140
 328:	0000000c 	andeq	r0, r0, ip
 32c:	ffffffff 	swinv	0x00ffffff
 330:	7c010001 	stcvc	0, cr0, [r1], {1}
 334:	000d0c0e 	andeq	r0, sp, lr, lsl #24
 338:	0000000c 	andeq	r0, r0, ip
 33c:	00000328 	andeq	r0, r0, r8, lsr #6
 340:	00202024 	eoreq	r2, r0, r4, lsr #32
 344:	00000014 	andeq	r0, r0, r4, lsl r0
 348:	00000028 	andeq	r0, r0, r8, lsr #32
 34c:	00000328 	andeq	r0, r0, r8, lsr #6
 350:	00202038 	eoreq	r2, r0, r8, lsr r0
 354:	00000394 	muleq	r0, r4, r3
 358:	440c0d44 	strmi	r0, [ip], #-3396
 35c:	038d028e 	orreq	r0, sp, #-536870904	; 0xe0000008
 360:	058a048b 	streq	r0, [sl, #1163]
 364:	07870688 	streq	r0, [r7, r8, lsl #13]
 368:	09850886 	stmeqib	r5, {r1, r2, r7, fp}
 36c:	0c440a84 	mcrreq	10, 8, r0, r4, cr4
 370:	0000040b 	andeq	r0, r0, fp, lsl #8
 374:	0000000c 	andeq	r0, r0, ip
 378:	ffffffff 	swinv	0x00ffffff
 37c:	7c010001 	stcvc	0, cr0, [r1], {1}
 380:	000d0c0e 	andeq	r0, sp, lr, lsl #24
 384:	0000000c 	andeq	r0, r0, ip
 388:	00000374 	andeq	r0, r0, r4, ror r3
 38c:	002023cc 	eoreq	r2, r0, ip, asr #7
 390:	00000004 	andeq	r0, r0, r4
 394:	0000000c 	andeq	r0, r0, ip
 398:	00000374 	andeq	r0, r0, r4, ror r3
 39c:	002023d0 	ldreqd	r2, [r0], -r0
 3a0:	00000004 	andeq	r0, r0, r4
 3a4:	0000000c 	andeq	r0, r0, ip
 3a8:	00000374 	andeq	r0, r0, r4, ror r3
 3ac:	002023d4 	ldreqd	r2, [r0], -r4
 3b0:	00000014 	andeq	r0, r0, r4, lsl r0
 3b4:	0000000c 	andeq	r0, r0, ip
 3b8:	00000374 	andeq	r0, r0, r4, ror r3
 3bc:	002023e8 	eoreq	r2, r0, r8, ror #7
 3c0:	00000014 	andeq	r0, r0, r4, lsl r0
 3c4:	0000000c 	andeq	r0, r0, ip
 3c8:	00000374 	andeq	r0, r0, r4, ror r3
 3cc:	002023fc 	streqd	r2, [r0], -ip
 3d0:	00000014 	andeq	r0, r0, r4, lsl r0
 3d4:	0000001c 	andeq	r0, r0, ip, lsl r0
 3d8:	00000374 	andeq	r0, r0, r4, ror r3
 3dc:	00202410 	eoreq	r2, r0, r0, lsl r4
 3e0:	00000058 	andeq	r0, r0, r8, asr r0
 3e4:	440c0d44 	strmi	r0, [ip], #-3396
 3e8:	038d028e 	orreq	r0, sp, #-536870904	; 0xe0000008
 3ec:	0584048b 	streq	r0, [r4, #1163]
 3f0:	040b0c48 	streq	r0, [fp], #-3144
 3f4:	0000001c 	andeq	r0, r0, ip, lsl r0
 3f8:	00000374 	andeq	r0, r0, r4, ror r3
 3fc:	00202468 	eoreq	r2, r0, r8, ror #8
 400:	00000058 	andeq	r0, r0, r8, asr r0
 404:	440c0d44 	strmi	r0, [ip], #-3396
 408:	038d028e 	orreq	r0, sp, #-536870904	; 0xe0000008
 40c:	0584048b 	streq	r0, [r4, #1163]
 410:	040b0c48 	streq	r0, [fp], #-3144
 414:	0000001c 	andeq	r0, r0, ip, lsl r0
 418:	00000374 	andeq	r0, r0, r4, ror r3
 41c:	002024c0 	eoreq	r2, r0, r0, asr #9
 420:	00000054 	andeq	r0, r0, r4, asr r0
 424:	480c0d44 	stmmida	ip, {r2, r6, r8, sl, fp}
 428:	038d028e 	orreq	r0, sp, #-536870904	; 0xe0000008
 42c:	0584048b 	streq	r0, [r4, #1163]
 430:	040b0c4c 	streq	r0, [fp], #-3148
 434:	00000020 	andeq	r0, r0, r0, lsr #32
 438:	00000374 	andeq	r0, r0, r4, ror r3
 43c:	00202514 	eoreq	r2, r0, r4, lsl r5
 440:	000000a8 	andeq	r0, r0, r8, lsr #1
 444:	440c0d44 	strmi	r0, [ip], #-3396
 448:	038d028e 	orreq	r0, sp, #-536870904	; 0xe0000008
 44c:	0585048b 	streq	r0, [r5, #1163]
 450:	0c4c0684 	mcrreq	6, 8, r0, ip, cr4
 454:	0000040b 	andeq	r0, r0, fp, lsl #8
 458:	0000000c 	andeq	r0, r0, ip
 45c:	00000374 	andeq	r0, r0, r4, ror r3
 460:	002025bc 	streqh	r2, [r0], -ip
 464:	0000001c 	andeq	r0, r0, ip, lsl r0
 468:	0000000c 	andeq	r0, r0, ip
 46c:	00000374 	andeq	r0, r0, r4, ror r3
 470:	002025d8 	ldreqd	r2, [r0], -r8
 474:	00000038 	andeq	r0, r0, r8, lsr r0
 478:	00000028 	andeq	r0, r0, r8, lsr #32
 47c:	00000374 	andeq	r0, r0, r4, ror r3
 480:	00202610 	eoreq	r2, r0, r0, lsl r6
 484:	00000134 	andeq	r0, r0, r4, lsr r1
 488:	480c0d44 	stmmida	ip, {r2, r6, r8, sl, fp}
 48c:	038d028e 	orreq	r0, sp, #-536870904	; 0xe0000008
 490:	058a048b 	streq	r0, [sl, #1163]
 494:	07880689 	streq	r0, [r8, r9, lsl #13]
 498:	09860887 	stmeqib	r6, {r0, r1, r2, r7, fp}
 49c:	0b840a85 	bleq	fe102eb8 <_ram_end+0xfdefe3ac>
 4a0:	040b0c48 	streq	r0, [fp], #-3144
 4a4:	0000000c 	andeq	r0, r0, ip
 4a8:	ffffffff 	swinv	0x00ffffff
 4ac:	7c010001 	stcvc	0, cr0, [r1], {1}
 4b0:	000d0c0e 	andeq	r0, sp, lr, lsl #24
 4b4:	00000010 	andeq	r0, r0, r0, lsl r0
 4b8:	000004a4 	andeq	r0, r0, r4, lsr #9
 4bc:	00202744 	eoreq	r2, r0, r4, asr #14
 4c0:	0000002c 	andeq	r0, r0, ip, lsr #32
 4c4:	00040e44 	andeq	r0, r4, r4, asr #28
 4c8:	00000010 	andeq	r0, r0, r0, lsl r0
 4cc:	000004a4 	andeq	r0, r0, r4, lsr #9
 4d0:	00202770 	eoreq	r2, r0, r0, ror r7
 4d4:	00000050 	andeq	r0, r0, r0, asr r0
 4d8:	00040e48 	andeq	r0, r4, r8, asr #28
 4dc:	00000018 	andeq	r0, r0, r8, lsl r0
 4e0:	000004a4 	andeq	r0, r0, r4, lsr #9
 4e4:	002027c0 	eoreq	r2, r0, r0, asr #15
 4e8:	0000010c 	andeq	r0, r0, ip, lsl #2
 4ec:	8e080e44 	cdphi	14, 0, cr0, cr8, cr4, {2}
 4f0:	54028401 	strpl	r8, [r2], #-1025
 4f4:	00000c0e 	andeq	r0, r0, lr, lsl #24
 4f8:	00000018 	andeq	r0, r0, r8, lsl r0
 4fc:	000004a4 	andeq	r0, r0, r4, lsr #9
 500:	002028cc 	eoreq	r2, r0, ip, asr #17
 504:	00000140 	andeq	r0, r0, r0, asr #2
 508:	8e0c0e44 	cdphi	14, 0, cr0, cr12, cr4, {2}
 50c:	84028501 	strhi	r8, [r2], #-1281
 510:	100e5403 	andne	r5, lr, r3, lsl #8
 514:	0000000c 	andeq	r0, r0, ip
 518:	000004a4 	andeq	r0, r0, r4, lsr #9
 51c:	00202a0c 	eoreq	r2, r0, ip, lsl #20
 520:	000000d8 	ldreqd	r0, [r0], -r8
 524:	0000000c 	andeq	r0, r0, ip
 528:	ffffffff 	swinv	0x00ffffff
 52c:	7c010001 	stcvc	0, cr0, [r1], {1}
 530:	000d0c0e 	andeq	r0, sp, lr, lsl #24
 534:	0000001c 	andeq	r0, r0, ip, lsl r0
 538:	00000524 	andeq	r0, r0, r4, lsr #10
 53c:	00202ae4 	eoreq	r2, r0, r4, ror #21
 540:	00000030 	andeq	r0, r0, r0, lsr r0
 544:	480c0d44 	stmmida	ip, {r2, r6, r8, sl, fp}
 548:	038d028e 	orreq	r0, sp, #-536870904	; 0xe0000008
 54c:	0584048b 	streq	r0, [r4, #1163]
 550:	040b0c48 	streq	r0, [fp], #-3144
 554:	00000020 	andeq	r0, r0, r0, lsr #32
 558:	00000524 	andeq	r0, r0, r4, lsr #10
 55c:	00202b14 	eoreq	r2, r0, r4, lsl fp
 560:	0000004c 	andeq	r0, r0, ip, asr #32
 564:	440c0d44 	strmi	r0, [ip], #-3396
 568:	038d028e 	orreq	r0, sp, #-536870904	; 0xe0000008
 56c:	0585048b 	streq	r0, [r5, #1163]
 570:	0c4c0684 	mcrreq	6, 8, r0, ip, cr4
 574:	0000040b 	andeq	r0, r0, fp, lsl #8
 578:	0000000c 	andeq	r0, r0, ip
 57c:	00000524 	andeq	r0, r0, r4, lsr #10
 580:	00202b60 	eoreq	r2, r0, r0, ror #22
 584:	0000000c 	andeq	r0, r0, ip
 588:	0000000c 	andeq	r0, r0, ip
 58c:	00000524 	andeq	r0, r0, r4, lsr #10
 590:	00202b6c 	eoreq	r2, r0, ip, ror #22
 594:	00000010 	andeq	r0, r0, r0, lsl r0
 598:	00000018 	andeq	r0, r0, r8, lsl r0
 59c:	00000524 	andeq	r0, r0, r4, lsr #10
 5a0:	00202b7c 	eoreq	r2, r0, ip, ror fp
 5a4:	000000e8 	andeq	r0, r0, r8, ror #1
 5a8:	8e0c0e44 	cdphi	14, 0, cr0, cr12, cr4, {2}
 5ac:	84028501 	strhi	r8, [r2], #-1281
 5b0:	00000003 	andeq	r0, r0, r3
 5b4:	0000000c 	andeq	r0, r0, ip
 5b8:	00000524 	andeq	r0, r0, r4, lsr #10
 5bc:	00202c64 	eoreq	r2, r0, r4, ror #24
 5c0:	0000006c 	andeq	r0, r0, ip, rrx
 5c4:	00000020 	andeq	r0, r0, r0, lsr #32
 5c8:	00000524 	andeq	r0, r0, r4, lsr #10
 5cc:	00202cd0 	ldreqd	r2, [r0], -r0
 5d0:	000000c0 	andeq	r0, r0, r0, asr #1
 5d4:	440c0d44 	strmi	r0, [ip], #-3396
 5d8:	038d028e 	orreq	r0, sp, #-536870904	; 0xe0000008
 5dc:	0585048b 	streq	r0, [r5, #1163]
 5e0:	0c500684 	mrrceq	6, 8, r0, r0, cr4
 5e4:	0000040b 	andeq	r0, r0, fp, lsl #8
 5e8:	0000000c 	andeq	r0, r0, ip
 5ec:	00000524 	andeq	r0, r0, r4, lsr #10
 5f0:	00202d90 	mlaeq	r0, r0, sp, r2
 5f4:	00000008 	andeq	r0, r0, r8
 5f8:	00000028 	andeq	r0, r0, r8, lsr #32
 5fc:	00000524 	andeq	r0, r0, r4, lsr #10
 600:	00202d98 	mlaeq	r0, r8, sp, r2
 604:	0000014c 	andeq	r0, r0, ip, asr #2
 608:	440c0d44 	strmi	r0, [ip], #-3396
 60c:	038d028e 	orreq	r0, sp, #-536870904	; 0xe0000008
 610:	058a048b 	streq	r0, [sl, #1163]
 614:	07870688 	streq	r0, [r7, r8, lsl #13]
 618:	09850886 	stmeqib	r5, {r1, r2, r7, fp}
 61c:	0c580a84 	mrrceq	10, 8, r0, r8, cr4
 620:	0000040b 	andeq	r0, r0, fp, lsl #8
 624:	00000014 	andeq	r0, r0, r4, lsl r0
 628:	00000524 	andeq	r0, r0, r4, lsr #10
 62c:	00202ee4 	eoreq	r2, r0, r4, ror #29
 630:	00000040 	andeq	r0, r0, r0, asr #32
 634:	8e080e44 	cdphi	14, 0, cr0, cr8, cr4, {2}
 638:	00028401 	andeq	r8, r2, r1, lsl #8
 63c:	0000000c 	andeq	r0, r0, ip
 640:	00000524 	andeq	r0, r0, r4, lsr #10
 644:	00202f24 	eoreq	r2, r0, r4, lsr #30
 648:	00000014 	andeq	r0, r0, r4, lsl r0
 64c:	0000000c 	andeq	r0, r0, ip
 650:	00000524 	andeq	r0, r0, r4, lsr #10
 654:	00202f38 	eoreq	r2, r0, r8, lsr pc
 658:	00000050 	andeq	r0, r0, r0, asr r0
 65c:	00000024 	andeq	r0, r0, r4, lsr #32
 660:	00000524 	andeq	r0, r0, r4, lsr #10
 664:	00202f88 	eoreq	r2, r0, r8, lsl #31
 668:	000001d0 	ldreqd	r0, [r0], -r0
 66c:	440c0d44 	strmi	r0, [ip], #-3396
 670:	038d028e 	orreq	r0, sp, #-536870904	; 0xe0000008
 674:	0587048b 	streq	r0, [r7, #1163]
 678:	07850686 	streq	r0, [r5, r6, lsl #13]
 67c:	0c440884 	mcrreq	8, 8, r0, r4, cr4
 680:	0000040b 	andeq	r0, r0, fp, lsl #8
 684:	0000000c 	andeq	r0, r0, ip
 688:	00000524 	andeq	r0, r0, r4, lsr #10
 68c:	00203158 	eoreq	r3, r0, r8, asr r1
 690:	00000018 	andeq	r0, r0, r8, lsl r0
 694:	00000028 	andeq	r0, r0, r8, lsr #32
 698:	00000524 	andeq	r0, r0, r4, lsr #10
 69c:	00203170 	eoreq	r3, r0, r0, ror r1
 6a0:	00000110 	andeq	r0, r0, r0, lsl r1
 6a4:	440c0d44 	strmi	r0, [ip], #-3396
 6a8:	038d028e 	orreq	r0, sp, #-536870904	; 0xe0000008
 6ac:	058a048b 	streq	r0, [sl, #1163]
 6b0:	07880689 	streq	r0, [r8, r9, lsl #13]
 6b4:	09860887 	stmeqib	r6, {r0, r1, r2, r7, fp}
 6b8:	0b840a85 	bleq	fe1030d4 <_ram_end+0xfdefe5c8>
 6bc:	040b0c48 	streq	r0, [fp], #-3144
 6c0:	0000000c 	andeq	r0, r0, ip
 6c4:	ffffffff 	swinv	0x00ffffff
 6c8:	7c010001 	stcvc	0, cr0, [r1], {1}
 6cc:	000d0c0e 	andeq	r0, sp, lr, lsl #24
 6d0:	0000000c 	andeq	r0, r0, ip
 6d4:	000006c0 	andeq	r0, r0, r0, asr #13
 6d8:	00203280 	eoreq	r3, r0, r0, lsl #5
 6dc:	0000000c 	andeq	r0, r0, ip
 6e0:	0000000c 	andeq	r0, r0, ip
 6e4:	000006c0 	andeq	r0, r0, r0, asr #13
 6e8:	0020328c 	eoreq	r3, r0, ip, lsl #5
 6ec:	0000000c 	andeq	r0, r0, ip
 6f0:	0000000c 	andeq	r0, r0, ip
 6f4:	000006c0 	andeq	r0, r0, r0, asr #13
 6f8:	00203298 	mlaeq	r0, r8, r2, r3
 6fc:	0000000c 	andeq	r0, r0, ip
 700:	0000000c 	andeq	r0, r0, ip
 704:	000006c0 	andeq	r0, r0, r0, asr #13
 708:	002032a4 	eoreq	r3, r0, r4, lsr #5
 70c:	0000000c 	andeq	r0, r0, ip
 710:	0000000c 	andeq	r0, r0, ip
 714:	000006c0 	andeq	r0, r0, r0, asr #13
 718:	002032b0 	streqh	r3, [r0], -r0
 71c:	00000048 	andeq	r0, r0, r8, asr #32
 720:	0000001c 	andeq	r0, r0, ip, lsl r0
 724:	000006c0 	andeq	r0, r0, r0, asr #13
 728:	002032f8 	streqd	r3, [r0], -r8
 72c:	00000044 	andeq	r0, r0, r4, asr #32
 730:	440c0d44 	strmi	r0, [ip], #-3396
 734:	038d028e 	orreq	r0, sp, #-536870904	; 0xe0000008
 738:	0c48048b 	cfstrdeq	mvd0, [r8], {139}
 73c:	0000040b 	andeq	r0, r0, fp, lsl #8
 740:	00000020 	andeq	r0, r0, r0, lsr #32
 744:	000006c0 	andeq	r0, r0, r0, asr #13
 748:	0020333c 	eoreq	r3, r0, ip, lsr r3
 74c:	000000b4 	streqh	r0, [r0], -r4
 750:	440c0d44 	strmi	r0, [ip], #-3396
 754:	038d028e 	orreq	r0, sp, #-536870904	; 0xe0000008
 758:	0585048b 	streq	r0, [r5, #1163]
 75c:	0c580684 	mrrceq	6, 8, r0, r8, cr4
 760:	0000040b 	andeq	r0, r0, fp, lsl #8
 764:	00000010 	andeq	r0, r0, r0, lsl r0
 768:	000006c0 	andeq	r0, r0, r0, asr #13
 76c:	002033f0 	streqd	r3, [r0], -r0
 770:	0000002c 	andeq	r0, r0, ip, lsr #32
 774:	00040e48 	andeq	r0, r4, r8, asr #28
 778:	00000010 	andeq	r0, r0, r0, lsl r0
 77c:	000006c0 	andeq	r0, r0, r0, asr #13
 780:	0020341c 	eoreq	r3, r0, ip, lsl r4
 784:	00000028 	andeq	r0, r0, r8, lsr #32
 788:	00040e48 	andeq	r0, r4, r8, asr #28
 78c:	00000010 	andeq	r0, r0, r0, lsl r0
 790:	000006c0 	andeq	r0, r0, r0, asr #13
 794:	00203444 	eoreq	r3, r0, r4, asr #8
 798:	00000060 	andeq	r0, r0, r0, rrx
 79c:	00080e48 	andeq	r0, r8, r8, asr #28
 7a0:	00000010 	andeq	r0, r0, r0, lsl r0
 7a4:	000006c0 	andeq	r0, r0, r0, asr #13
 7a8:	002034a4 	eoreq	r3, r0, r4, lsr #9
 7ac:	00000024 	andeq	r0, r0, r4, lsr #32
 7b0:	00040e48 	andeq	r0, r4, r8, asr #28
 7b4:	00000010 	andeq	r0, r0, r0, lsl r0
 7b8:	000006c0 	andeq	r0, r0, r0, asr #13
 7bc:	002034c8 	eoreq	r3, r0, r8, asr #9
 7c0:	00000034 	andeq	r0, r0, r4, lsr r0
 7c4:	00040e48 	andeq	r0, r4, r8, asr #28
 7c8:	0000000c 	andeq	r0, r0, ip
 7cc:	000006c0 	andeq	r0, r0, r0, asr #13
 7d0:	002034fc 	streqd	r3, [r0], -ip
 7d4:	00000004 	andeq	r0, r0, r4
 7d8:	0000000c 	andeq	r0, r0, ip
 7dc:	000006c0 	andeq	r0, r0, r0, asr #13
 7e0:	00203500 	eoreq	r3, r0, r0, lsl #10
 7e4:	00000004 	andeq	r0, r0, r4
 7e8:	00000020 	andeq	r0, r0, r0, lsr #32
 7ec:	000006c0 	andeq	r0, r0, r0, asr #13
 7f0:	00203504 	eoreq	r3, r0, r4, lsl #10
 7f4:	00000070 	andeq	r0, r0, r0, ror r0
 7f8:	440c0d44 	strmi	r0, [ip], #-3396
 7fc:	038d028e 	orreq	r0, sp, #-536870904	; 0xe0000008
 800:	0585048b 	streq	r0, [r5, #1163]
 804:	0c600684 	stceql	6, cr0, [r0], #-528
 808:	0000040b 	andeq	r0, r0, fp, lsl #8
 80c:	00000014 	andeq	r0, r0, r4, lsl r0
 810:	000006c0 	andeq	r0, r0, r0, asr #13
 814:	00203574 	eoreq	r3, r0, r4, ror r5
 818:	000000c0 	andeq	r0, r0, r0, asr #1
 81c:	48040e44 	stmmida	r4, {r2, r6, r9, sl, fp}
 820:	018e080e 	orreq	r0, lr, lr, lsl #16
 824:	0000000c 	andeq	r0, r0, ip
 828:	ffffffff 	swinv	0x00ffffff
 82c:	7c010001 	stcvc	0, cr0, [r1], {1}
 830:	000d0c0e 	andeq	r0, sp, lr, lsl #24
 834:	00000030 	andeq	r0, r0, r0, lsr r0
 838:	00000824 	andeq	r0, r0, r4, lsr #16
 83c:	00203634 	eoreq	r3, r0, r4, lsr r6
 840:	0000021c 	andeq	r0, r0, ip, lsl r2
 844:	480c0d44 	stmmida	ip, {r2, r6, r8, sl, fp}
 848:	078d068e 	streq	r0, [sp, lr, lsl #13]
 84c:	098a088b 	stmeqib	sl, {r0, r1, r3, r7, fp}
 850:	0b870a88 	bleq	fe1c3278 <_ram_end+0xfdfbe76c>
 854:	0d850c86 	stceq	12, cr0, [r5, #536]
 858:	01830e84 	orreq	r0, r3, r4, lsl #29
 85c:	03810282 	orreq	r0, r1, #536870920	; 0x20000008
 860:	0c440480 	cfstrdeq	mvd0, [r4], {128}
 864:	0000140b 	andeq	r1, r0, fp, lsl #8
 868:	0000000c 	andeq	r0, r0, ip
 86c:	00000824 	andeq	r0, r0, r4, lsr #16
 870:	00203850 	eoreq	r3, r0, r0, asr r8
 874:	00000020 	andeq	r0, r0, r0, lsr #32
 878:	0000000c 	andeq	r0, r0, ip
 87c:	00000824 	andeq	r0, r0, r4, lsr #16
 880:	00203870 	eoreq	r3, r0, r0, ror r8
 884:	00000024 	andeq	r0, r0, r4, lsr #32
 888:	0000000c 	andeq	r0, r0, ip
 88c:	00000824 	andeq	r0, r0, r4, lsr #16
 890:	00203894 	mlaeq	r0, r4, r8, r3
 894:	00000034 	andeq	r0, r0, r4, lsr r0
 898:	00000014 	andeq	r0, r0, r4, lsl r0
 89c:	00000824 	andeq	r0, r0, r4, lsr #16
 8a0:	002038c8 	eoreq	r3, r0, r8, asr #17
 8a4:	00000058 	andeq	r0, r0, r8, asr r0
 8a8:	8e040e44 	cdphi	14, 0, cr0, cr4, cr4, {2}
 8ac:	00000001 	andeq	r0, r0, r1
 8b0:	00000014 	andeq	r0, r0, r4, lsl r0
 8b4:	00000824 	andeq	r0, r0, r4, lsr #16
 8b8:	00203920 	eoreq	r3, r0, r0, lsr #18
 8bc:	0000005c 	andeq	r0, r0, ip, asr r0
 8c0:	8e080e44 	cdphi	14, 0, cr0, cr8, cr4, {2}
 8c4:	00028401 	andeq	r8, r2, r1, lsl #8
 8c8:	0000000c 	andeq	r0, r0, ip
 8cc:	00000824 	andeq	r0, r0, r4, lsr #16
 8d0:	0020397c 	eoreq	r3, r0, ip, ror r9
 8d4:	00000028 	andeq	r0, r0, r8, lsr #32
 8d8:	0000000c 	andeq	r0, r0, ip
 8dc:	00000824 	andeq	r0, r0, r4, lsr #16
 8e0:	002039a4 	eoreq	r3, r0, r4, lsr #19
 8e4:	00000024 	andeq	r0, r0, r4, lsr #32
 8e8:	00000014 	andeq	r0, r0, r4, lsl r0
 8ec:	00000824 	andeq	r0, r0, r4, lsr #16
 8f0:	002039c8 	eoreq	r3, r0, r8, asr #19
 8f4:	00000090 	muleq	r0, r0, r0
 8f8:	8e040e48 	cdphi	14, 0, cr0, cr4, cr8, {2}
 8fc:	00000001 	andeq	r0, r0, r1
 900:	00000014 	andeq	r0, r0, r4, lsl r0
 904:	00000824 	andeq	r0, r0, r4, lsr #16
 908:	00203a58 	eoreq	r3, r0, r8, asr sl
 90c:	00000074 	andeq	r0, r0, r4, ror r0
 910:	8e040e48 	cdphi	14, 0, cr0, cr4, cr8, {2}
 914:	00000001 	andeq	r0, r0, r1
 918:	0000000c 	andeq	r0, r0, ip
 91c:	00000824 	andeq	r0, r0, r4, lsr #16
 920:	00203acc 	eoreq	r3, r0, ip, asr #21
 924:	00000064 	andeq	r0, r0, r4, rrx
 928:	0000000c 	andeq	r0, r0, ip
 92c:	ffffffff 	swinv	0x00ffffff
 930:	7c010001 	stcvc	0, cr0, [r1], {1}
 934:	000d0c0e 	andeq	r0, sp, lr, lsl #24
 938:	0000000c 	andeq	r0, r0, ip
 93c:	00000928 	andeq	r0, r0, r8, lsr #18
 940:	00203b30 	eoreq	r3, r0, r0, lsr fp
 944:	00000030 	andeq	r0, r0, r0, lsr r0
 948:	00000014 	andeq	r0, r0, r4, lsl r0
 94c:	00000928 	andeq	r0, r0, r8, lsr #18
 950:	00203b60 	eoreq	r3, r0, r0, ror #22
 954:	0000007c 	andeq	r0, r0, ip, ror r0
 958:	8e080e44 	cdphi	14, 0, cr0, cr8, cr4, {2}
 95c:	00028401 	andeq	r8, r2, r1, lsl #8
 960:	0000000c 	andeq	r0, r0, ip
 964:	00000928 	andeq	r0, r0, r8, lsr #18
 968:	00203bdc 	ldreqd	r3, [r0], -ip
 96c:	0000002c 	andeq	r0, r0, ip, lsr #32
 970:	0000000c 	andeq	r0, r0, ip
 974:	00000928 	andeq	r0, r0, r8, lsr #18
 978:	00203c08 	eoreq	r3, r0, r8, lsl #24
 97c:	00000038 	andeq	r0, r0, r8, lsr r0
 980:	0000000c 	andeq	r0, r0, ip
 984:	00000928 	andeq	r0, r0, r8, lsr #18
 988:	00203c40 	eoreq	r3, r0, r0, asr #24
 98c:	0000004c 	andeq	r0, r0, ip, asr #32
 990:	00000028 	andeq	r0, r0, r8, lsr #32
 994:	00000928 	andeq	r0, r0, r8, lsr #18
 998:	00203c8c 	eoreq	r3, r0, ip, lsl #25
 99c:	00000314 	andeq	r0, r0, r4, lsl r3
 9a0:	440c0d44 	strmi	r0, [ip], #-3396
 9a4:	038d028e 	orreq	r0, sp, #-536870904	; 0xe0000008
 9a8:	058a048b 	streq	r0, [sl, #1163]
 9ac:	07870688 	streq	r0, [r7, r8, lsl #13]
 9b0:	09850886 	stmeqib	r5, {r1, r2, r7, fp}
 9b4:	0c480a84 	mcrreq	10, 8, r0, r8, cr4
 9b8:	0000040b 	andeq	r0, r0, fp, lsl #8
 9bc:	0000000c 	andeq	r0, r0, ip
 9c0:	00000928 	andeq	r0, r0, r8, lsr #18
 9c4:	00203fa0 	eoreq	r3, r0, r0, lsr #31
 9c8:	00000008 	andeq	r0, r0, r8
 9cc:	00000028 	andeq	r0, r0, r8, lsr #32
 9d0:	00000928 	andeq	r0, r0, r8, lsr #18
 9d4:	00203fa8 	eoreq	r3, r0, r8, lsr #31
 9d8:	00000264 	andeq	r0, r0, r4, ror #4
 9dc:	440c0d44 	strmi	r0, [ip], #-3396
 9e0:	038d028e 	orreq	r0, sp, #-536870904	; 0xe0000008
 9e4:	058a048b 	streq	r0, [sl, #1163]
 9e8:	07880689 	streq	r0, [r8, r9, lsl #13]
 9ec:	09860887 	stmeqib	r6, {r0, r1, r2, r7, fp}
 9f0:	0b840a85 	bleq	fe10340c <_ram_end+0xfdefe900>
 9f4:	040b0c48 	streq	r0, [fp], #-3144
 9f8:	00000024 	andeq	r0, r0, r4, lsr #32
 9fc:	00000928 	andeq	r0, r0, r8, lsr #18
 a00:	0020420c 	eoreq	r4, r0, ip, lsl #4
 a04:	00000098 	muleq	r0, r8, r0
 a08:	440c0d44 	strmi	r0, [ip], #-3396
 a0c:	038d028e 	orreq	r0, sp, #-536870904	; 0xe0000008
 a10:	0588048b 	streq	r0, [r8, #1163]
 a14:	07860687 	streq	r0, [r6, r7, lsl #13]
 a18:	09840885 	stmeqib	r4, {r0, r2, r7, fp}
 a1c:	040b0c44 	streq	r0, [fp], #-3140
 a20:	00000028 	andeq	r0, r0, r8, lsr #32
 a24:	00000928 	andeq	r0, r0, r8, lsr #18
 a28:	002042a4 	eoreq	r4, r0, r4, lsr #5
 a2c:	00000108 	andeq	r0, r0, r8, lsl #2
 a30:	440c0d44 	strmi	r0, [ip], #-3396
 a34:	038d028e 	orreq	r0, sp, #-536870904	; 0xe0000008
 a38:	058a048b 	streq	r0, [sl, #1163]
 a3c:	07880689 	streq	r0, [r8, r9, lsl #13]
 a40:	09860887 	stmeqib	r6, {r0, r1, r2, r7, fp}
 a44:	0b840a85 	bleq	fe103460 <_ram_end+0xfdefe954>
 a48:	040b0c48 	streq	r0, [fp], #-3144
Disassembly of section .debug_pubnames:

00000000 <.debug_pubnames>:
   0:	0000005c 	andeq	r0, r0, ip, asr r0
   4:	00000002 	andeq	r0, r0, r2
   8:	02ab0000 	adceq	r0, fp, #0	; 0x0
   c:	02340000 	eoreqs	r0, r4, #0	; 0x0
  10:	74730000 	ldrvcbt	r0, [r3]
  14:	75747261 	ldrvcb	r7, [r4, #-609]!
  18:	02660070 	rsbeq	r0, r6, #112	; 0x70
  1c:	69640000 	stmvsdb	r4!, {}^
  20:	6c626173 	stfvse	f6, [r2], #-460
  24:	6e695f65 	cdpvs	15, 6, cr5, cr9, cr5, {3}
  28:	72726574 	rsbvcs	r6, r2, #486539264	; 0x1d000000
  2c:	73747075 	cmnvc	r4, #117	; 0x75
  30:	00027900 	andeq	r7, r2, r0, lsl #18
  34:	616e6500 	cmnvs	lr, r0, lsl #10
  38:	5f656c62 	swipl	0x00656c62
  3c:	65746e69 	ldrvsb	r6, [r4, #-3689]!
  40:	70757272 	rsbvcs	r7, r5, r2, ror r2
  44:	8c007374 	stchi	3, cr7, [r0], {116}
  48:	69000002 	stmvsdb	r0, {r1}
  4c:	5f73746e 	swipl	0x0073746e
  50:	5f657261 	swipl	0x00657261
  54:	62616e65 	rsbvs	r6, r1, #1616	; 0x650
  58:	0064656c 	rsbeq	r6, r4, ip, ror #10
  5c:	00000000 	andeq	r0, r0, r0
  60:	0000009f 	muleq	r0, pc, r0
  64:	02ab0002 	adceq	r0, fp, #2	; 0x2
  68:	01de0000 	biceqs	r0, lr, r0
  6c:	00480000 	subeq	r0, r8, r0
  70:	616d0000 	cmnvs	sp, r0
  74:	70756b72 	rsbvcs	r6, r5, r2, ror fp
  78:	6d61725f 	sfmvs	f7, 2, [r1, #-380]!
  7c:	00008100 	andeq	r8, r0, r0, lsl #2
  80:	645f5f00 	ldrvsb	r5, [pc], #3840	; 88 <.debug_pubnames+0x88>
  84:	5f617461 	swipl	0x00617461
  88:	726f6261 	rsbvc	r6, pc, #268435462	; 0x10000006
  8c:	00d50074 	sbceqs	r0, r5, r4, ror r0
  90:	5f5f0000 	swipl	0x005f0000
  94:	66657270 	undefined
  98:	68637465 	stmvsda	r3!, {r0, r2, r5, r6, sl, ip, sp, lr}^
  9c:	6f62615f 	swivs	0x0062615f
  a0:	09007472 	stmeqdb	r0, {r1, r4, r5, r6, sl, ip, sp, lr}
  a4:	5f000001 	swipl	0x00000001
  a8:	646e755f 	strvsbt	r7, [lr], #-1375
  ac:	6e696665 	cdpvs	6, 6, cr6, cr9, cr5, {3}
  b0:	695f6465 	ldmvsdb	pc, {r0, r2, r5, r6, sl, sp, lr}^
  b4:	7274736e 	rsbvcs	r7, r4, #-1207959551	; 0xb8000001
  b8:	69746375 	ldmvsdb	r4!, {r0, r2, r4, r5, r6, r8, r9, sp, lr}^
  bc:	3d006e6f 	stccc	14, cr6, [r0, #-444]
  c0:	5f000001 	swipl	0x00000001
  c4:	666f735f 	undefined
  c8:	72617774 	rsbvc	r7, r1, #30408704	; 0x1d00000
  cc:	6e695f65 	cdpvs	15, 6, cr5, cr9, cr5, {3}
  d0:	72726574 	rsbvcs	r6, r2, #486539264	; 0x1d000000
  d4:	00747075 	rsbeqs	r7, r4, r5, ror r0
  d8:	00000171 	andeq	r0, r0, r1, ror r1
  dc:	70735f5f 	rsbvcs	r5, r3, pc, asr pc
  e0:	6f697275 	swivs	0x00697275
  e4:	685f7375 	ldmvsda	pc, {r0, r2, r4, r5, r6, r8, r9, ip, sp, lr}^
  e8:	6c646e61 	stcvsl	14, cr6, [r4], #-388
  ec:	bf007265 	swilt	0x00007265
  f0:	64000001 	strvs	r0, [r0], #-1
  f4:	67756265 	ldrvsb	r6, [r5, -r5, ror #4]!
  f8:	7465735f 	strvcbt	r7, [r5], #-863
  fc:	00007075 	andeq	r7, r0, r5, ror r0
 100:	6f000000 	swivs	0x00000000
 104:	02000000 	andeq	r0, r0, #0	; 0x0
 108:	00048900 	andeq	r8, r4, r0, lsl #18
 10c:	00070800 	andeq	r0, r7, r0, lsl #16
 110:	00014300 	andeq	r4, r1, r0, lsl #6
 114:	62657200 	rsbvs	r7, r5, #0	; 0x0
 118:	00746f6f 	rsbeqs	r6, r4, pc, ror #30
 11c:	000001a9 	andeq	r0, r0, r9, lsr #3
 120:	676f7270 	undefined
 124:	6d6d6172 	stfvse	f6, [sp, #-456]!
 128:	e8006465 	stmda	r0, {r0, r2, r5, r6, sl, sp, lr}
 12c:	77000001 	strvc	r0, [r0, -r1]
 130:	5f746961 	swipl	0x00746961
 134:	2a007375 	bcs	1cf10 <.debug_pubnames+0x1cf10>
 138:	77000002 	strvc	r0, [r0, -r2]
 13c:	5f746961 	swipl	0x00746961
 140:	b800736d 	stmltda	r0, {r0, r2, r3, r5, r6, r8, r9, ip, sp, lr}
 144:	77000002 	strvc	r0, [r0, -r2]
 148:	5f746961 	swipl	0x00746961
 14c:	8e007331 	mcrhi	3, 0, r7, cr0, cr1, {1}
 150:	77000003 	strvc	r0, [r0, -r3]
 154:	00746961 	rsbeqs	r6, r4, r1, ror #18
 158:	00000485 	andeq	r0, r0, r5, lsl #9
 15c:	79706f63 	ldmvcdb	r0!, {r0, r1, r5, r6, r8, r9, sl, fp, sp, lr}^
 160:	646e615f 	strvsbt	r6, [lr], #-351
 164:	6e75725f 	mrcvs	2, 3, r7, cr5, cr15, {2}
 168:	0004bf00 	andeq	fp, r4, r0, lsl #30
 16c:	69616d00 	stmvsdb	r1!, {r8, sl, fp, sp, lr}^
 170:	0000006e 	andeq	r0, r0, lr, rrx
 174:	015c0000 	cmpeq	ip, r0
 178:	00020000 	andeq	r0, r2, r0
 17c:	00000b91 	muleq	r0, r1, fp
 180:	00000cee 	andeq	r0, r0, lr, ror #25
 184:	0000046d 	andeq	r0, r0, sp, ror #8
 188:	5f627375 	swipl	0x00627375
 18c:	75746573 	ldrvcb	r6, [r4, #-1395]!
 190:	04920070 	ldreq	r0, [r2], #112
 194:	73750000 	cmnvc	r5, #0	; 0x0
 198:	706f5f62 	rsbvc	r5, pc, r2, ror #30
 19c:	b7006e65 	strlt	r6, [r0, -r5, ror #28]
 1a0:	75000004 	strvc	r0, [r0, #-4]
 1a4:	645f6273 	ldrvsb	r6, [pc], #627	; 1ac <.debug_pubnames+0x1ac>
 1a8:	72617461 	rsbvc	r7, r1, #1627389952	; 0x61000000
 1ac:	79646165 	stmvcdb	r4!, {r0, r2, r5, r6, r8, sp, lr}^
 1b0:	00051a00 	andeq	r1, r5, r0, lsl #20
 1b4:	62737500 	rsbvss	r7, r3, #0	; 0x0
 1b8:	6e65735f 	mcrvs	3, 3, r7, cr5, cr15, {2}
 1bc:	74616464 	strvcbt	r6, [r1], #-1124
 1c0:	05550061 	ldreqb	r0, [r5, #-97]
 1c4:	73750000 	cmnvc	r5, #0	; 0x0
 1c8:	65735f62 	ldrvsb	r5, [r3, #-3938]!
 1cc:	6c7a646e 	cfldrdvs	mvd6, [sl], #-440
 1d0:	056e0070 	streqb	r0, [lr, #-112]!
 1d4:	73750000 	cmnvc	r5, #0	; 0x0
 1d8:	65735f62 	ldrvsb	r5, [r3, #-3938]!
 1dc:	7473646e 	ldrvcbt	r6, [r3], #-1134
 1e0:	006c6c61 	rsbeq	r6, ip, r1, ror #24
 1e4:	0000057d 	andeq	r0, r0, sp, ror r5
 1e8:	5f627375 	swipl	0x00627375
 1ec:	6d756e65 	ldcvsl	14, cr6, [r5, #-404]!
 1f0:	74617265 	strvcbt	r7, [r1], #-613
 1f4:	089f0065 	ldmeqia	pc, {r0, r2, r5, r6}
 1f8:	73750000 	cmnvc	r5, #0	; 0x0
 1fc:	73695f62 	cmnvc	r9, #392	; 0x188
 200:	666e6f63 	strvsbt	r6, [lr], -r3, ror #30
 204:	72756769 	rsbvcs	r6, r5, #27525120	; 0x1a40000
 208:	0f006465 	swieq	0x00006465
 20c:	75000009 	strvc	r0, [r0, #-9]
 210:	775f6273 	undefined
 214:	65746972 	ldrvsb	r6, [r4, #-2418]!
 218:	0009dc00 	andeq	sp, r9, r0, lsl #24
 21c:	62737500 	rsbvss	r7, r3, #0	; 0x0
 220:	6165725f 	cmnvs	r5, pc, asr r2
 224:	0a370064 	beq	dc03bc <_ram_end+0xbbb8b0>
 228:	73750000 	cmnvc	r5, #0	; 0x0
 22c:	72705f62 	rsbvcs	r5, r0, #392	; 0x188
 230:	00746e69 	rsbeqs	r6, r4, r9, ror #28
 234:	00000b02 	andeq	r0, r0, r2, lsl #22
 238:	5f627375 	swipl	0x00627375
 23c:	6c6c6f70 	stcvsl	15, cr6, [ip], #-448
 240:	000c2800 	andeq	r2, ip, r0, lsl #16
 244:	76656400 	strvcbt	r6, [r5], -r0, lsl #8
 248:	63736544 	cmnvs	r3, #285212672	; 0x11000000
 24c:	74706972 	ldrvcbt	r6, [r0], #-2418
 250:	4a00726f 	bmi	1cc14 <.debug_pubnames+0x1cc14>
 254:	6300000c 	tstvs	r0, #12	; 0xc
 258:	65446766 	strvsb	r6, [r4, #-1894]
 25c:	69726373 	ldmvsdb	r2!, {r0, r1, r4, r5, r6, r8, r9, sp, lr}^
 260:	726f7470 	rsbvc	r7, pc, #1879048192	; 0x70000000
 264:	000c5c00 	andeq	r5, ip, r0, lsl #24
 268:	6e696c00 	cdpvs	12, 6, cr6, cr9, cr0, {0}
 26c:	0c6e0065 	stceql	0, cr0, [lr], #-404
 270:	55700000 	ldrplb	r0, [r0]!
 274:	80007064 	andhi	r7, r0, r4, rrx
 278:	6300000c 	tstvs	r0, #12	; 0xc
 27c:	65727275 	ldrvsb	r7, [r2, #-629]!
 280:	6f43746e 	swivs	0x0043746e
 284:	6769666e 	strvsb	r6, [r9, -lr, ror #12]!
 288:	74617275 	strvcbt	r7, [r1], #-629
 28c:	006e6f69 	rsbeq	r6, lr, r9, ror #30
 290:	00000c92 	muleq	r0, r2, ip
 294:	72727563 	rsbvcs	r7, r2, #415236096	; 0x18c00000
 298:	43746e65 	cmnmi	r4, #1616	; 0x650
 29c:	656e6e6f 	strvsb	r6, [lr, #-3695]!
 2a0:	6f697463 	swivs	0x00697463
 2a4:	0ca4006e 	stceq	0, cr0, [r4], #440
 2a8:	75630000 	strvcb	r0, [r3]!
 2ac:	6e657272 	mcrvs	2, 3, r7, cr5, cr2, {3}
 2b0:	76635274 	undefined
 2b4:	6b6e6142 	blvs	1b987c4 <_ram_end+0x1993cb8>
 2b8:	000cc700 	andeq	ip, ip, r0, lsl #14
 2bc:	66756200 	ldrvsbt	r6, [r5], -r0, lsl #4
 2c0:	000cda00 	andeq	sp, ip, r0, lsl #20
 2c4:	746f6e00 	strvcbt	r6, [pc], #3584	; 2cc <.debug_pubnames+0x2cc>
 2c8:	73726966 	cmnvc	r2, #1671168	; 0x198000
 2cc:	6d697474 	cfstrdvs	mvd7, [r9, #-464]!
 2d0:	00000065 	andeq	r0, r0, r5, rrx
 2d4:	006d0000 	rsbeq	r0, sp, r0
 2d8:	00020000 	andeq	r0, r2, r0
 2dc:	0000187f 	andeq	r1, r0, pc, ror r8
 2e0:	000002a5 	andeq	r0, r0, r5, lsr #5
 2e4:	0000005a 	andeq	r0, r0, sl, asr r0
 2e8:	626d6173 	rsbvs	r6, sp, #-1073741796	; 0xc000001c
 2ec:	65735f61 	ldrvsb	r5, [r3, #-3937]!
 2f0:	00707574 	rsbeqs	r7, r0, r4, ror r5
 2f4:	0000006d 	andeq	r0, r0, sp, rrx
 2f8:	626d6173 	rsbvs	r6, sp, #-1073741796	; 0xc000001c
 2fc:	024b0061 	subeq	r0, fp, #97	; 0x61
 300:	756f0000 	strvcb	r0, [pc, #0]!	; 308 <.debug_pubnames+0x308>
 304:	025d0074 	subeqs	r0, sp, #116	; 0x74
 308:	756f0000 	strvcb	r0, [pc, #0]!	; 310 <.debug_pubnames+0x310>
 30c:	656c5f74 	strvsb	r5, [ip, #-3956]!
 310:	026f006e 	rsbeq	r0, pc, #110	; 0x6e
 314:	61730000 	cmnvs	r3, r0
 318:	5f61626d 	swipl	0x0061626d
 31c:	646e6573 	strvsbt	r6, [lr], #-1395
 320:	656c6966 	strvsb	r6, [ip, #-2406]!
 324:	6464615f 	strvsbt	r6, [r4], #-351
 328:	02810072 	addeq	r0, r1, #114	; 0x72
 32c:	73750000 	cmnvc	r5, #0	; 0x0
 330:	75625f62 	strvcb	r5, [r2, #-3938]!
 334:	725f6b6c 	subvcs	r6, pc, #110592	; 0x1b000
 338:	5f646165 	swipl	0x00646165
 33c:	676e656c 	strvsb	r6, [lr, -ip, ror #10]!
 340:	00006874 	andeq	r6, r0, r4, ror r8
 344:	dd000000 	stcle	0, cr0, [r0]
 348:	02000000 	andeq	r0, r0, #0	; 0x0
 34c:	001b2400 	andeqs	r2, fp, r0, lsl #8
 350:	0006a300 	andeq	sl, r6, r0, lsl #6
 354:	00010000 	andeq	r0, r1, r0
 358:	6d766e00 	ldcvsl	14, cr6, [r6]
 35c:	696e695f 	stmvsdb	lr!, {r0, r1, r2, r3, r4, r6, r8, fp, sp, lr}^
 360:	010f0074 	tsteq	pc, r4, ror r0
 364:	6c660000 	stcvsl	0, cr0, [r6]
 368:	5f687361 	swipl	0x00687361
 36c:	75746573 	ldrvcb	r6, [r4, #-1395]!
 370:	012c0070 	teqeq	ip, r0, ror r0
 374:	6c660000 	stcvsl	0, cr0, [r6]
 378:	5f687361 	swipl	0x00687361
 37c:	74696e69 	strvcbt	r6, [r9], #-3689
 380:	00016000 	andeq	r6, r1, r0
 384:	616c6600 	cmnvs	ip, r0, lsl #12
 388:	725f6873 	subvcs	r6, pc, #7536640	; 0x730000
 38c:	79646165 	stmvcdb	r4!, {r0, r2, r5, r6, r8, sp, lr}^
 390:	00018900 	andeq	r8, r1, r0, lsl #18
 394:	616c6600 	cmnvs	ip, r0, lsl #12
 398:	6c5f6873 	mrrcvs	8, 7, r6, pc, cr3
 39c:	5f6b636f 	swipl	0x006b636f
 3a0:	74617473 	strvcbt	r7, [r1], #-1139
 3a4:	98007375 	stmlsda	r0, {r0, r2, r4, r5, r6, r8, r9, ip, sp, lr}
 3a8:	66000001 	strvs	r0, [r0], -r1
 3ac:	6873616c 	ldmvsda	r3!, {r2, r3, r5, r6, r8, sp, lr}^
 3b0:	636f6c5f 	cmnvs	pc, #24320	; 0x5f00
 3b4:	0283006b 	addeq	r0, r3, #107	; 0x6b
 3b8:	6c660000 	stcvsl	0, cr0, [r6]
 3bc:	5f687361 	swipl	0x00687361
 3c0:	6f6c6e75 	swivs	0x006c6e75
 3c4:	ed006b63 	fstd	d6, [r0, #-396]
 3c8:	66000002 	strvs	r0, [r0], -r2
 3cc:	6873616c 	ldmvsda	r3!, {r2, r3, r5, r6, r8, sp, lr}^
 3d0:	6172655f 	cmnvs	r2, pc, asr r5
 3d4:	615f6573 	cmpvs	pc, r3, ror r5
 3d8:	22006c6c 	andcs	r6, r0, #27648	; 0x6c00
 3dc:	66000004 	strvs	r0, [r0], -r4
 3e0:	6873616c 	ldmvsda	r3!, {r2, r3, r5, r6, r8, sp, lr}^
 3e4:	6972775f 	ldmvsdb	r2!, {r0, r1, r2, r3, r4, r6, r8, r9, sl, ip, sp, lr}^
 3e8:	b7006574 	smlsdxlt	r0, r4, r5, r6
 3ec:	66000004 	strvs	r0, [r0], -r4
 3f0:	6873616c 	ldmvsda	r3!, {r2, r3, r5, r6, r8, sp, lr}^
 3f4:	6165725f 	cmnvs	r5, pc, asr r2
 3f8:	05140064 	ldreq	r0, [r4, #-100]
 3fc:	6c660000 	stcvsl	0, cr0, [r6]
 400:	5f687361 	swipl	0x00687361
 404:	6e616c62 	cdpvs	12, 6, cr6, cr1, cr2, {3}
 408:	68635f6b 	stmvsda	r3!, {r0, r1, r3, r5, r6, r8, r9, sl, fp, ip, lr}^
 40c:	006b6365 	rsbeq	r6, fp, r5, ror #6
 410:	00000555 	andeq	r0, r0, r5, asr r5
 414:	73616c66 	cmnvc	r1, #26112	; 0x6600
 418:	72775f68 	rsbvcs	r5, r7, #416	; 0x1a0
 41c:	5f657469 	swipl	0x00657469
 420:	006c6c61 	rsbeq	r6, ip, r1, ror #24
 424:	00000000 	andeq	r0, r0, r0
 428:	0000006e 	andeq	r0, r0, lr, rrx
 42c:	21c70002 	biccs	r0, r7, r2
 430:	08bd0000 	ldmeqia	sp!, {}
 434:	047f0000 	ldreqbt	r0, [pc], #0	; 43c <.debug_pubnames+0x43c>
 438:	65640000 	strvsb	r0, [r4]!
 43c:	7579616c 	ldrvcb	r6, [r9, #-364]!
 440:	04cc0073 	streqb	r0, [ip], #115
 444:	70630000 	rsbvc	r0, r3, r0
 448:	725f646c 	subvcs	r6, pc, #1811939328	; 0x6c000000
 44c:	74657365 	strvcbt	r7, [r5], #-869
 450:	00059900 	andeq	r9, r5, r0, lsl #18
 454:	73756200 	cmnvc	r5, #0	; 0x0
 458:	7465735f 	strvcbt	r7, [r5], #-863
 45c:	4f007075 	swimi	0x00007075
 460:	6c000006 	stcvs	0, cr0, [r0], {6}
 464:	735f6465 	cmpvc	pc, #1694498816	; 0x65000000
 468:	70757465 	rsbvcs	r7, r5, r5, ror #8
 46c:	00079f00 	andeq	r9, r7, r0, lsl #30
 470:	64656c00 	strvsbt	r6, [r5], #-3072
 474:	6c6f705f 	stcvsl	0, cr7, [pc], #-380
 478:	0898006c 	ldmeqia	r8, {r2, r3, r5, r6}
 47c:	656c0000 	strvsb	r0, [ip]!
 480:	6f635f64 	swivs	0x00635f64
 484:	00746e75 	rsbeqs	r6, r4, r5, ror lr
 488:	000008aa 	andeq	r0, r0, sl, lsr #17
 48c:	5f64656c 	swipl	0x0064656c
 490:	74617473 	strvcbt	r7, [r1], #-1139
 494:	00000065 	andeq	r0, r0, r5, rrx
 498:	015b0000 	cmpeq	fp, r0
 49c:	00020000 	andeq	r0, r2, r0
 4a0:	00002a84 	andeq	r2, r0, r4, lsl #21
 4a4:	000007d8 	ldreqd	r0, [r0], -r8
 4a8:	00000081 	andeq	r0, r0, r1, lsl #1
 4ac:	63747570 	cmnvs	r4, #469762048	; 0x1c000000
 4b0:	0000e400 	andeq	lr, r0, r0, lsl #8
 4b4:	74757000 	ldrvcbt	r7, [r5]
 4b8:	01370073 	teqeq	r7, r3, ror r0
 4bc:	65680000 	strvsb	r0, [r8]!
 4c0:	6f00706c 	swivs	0x0000706c
 4c4:	74000001 	strvc	r0, [r0], #-1
 4c8:	7070756f 	rsbvcs	r7, r0, pc, ror #10
 4cc:	8a007265 	bhi	1ce68 <.debug_pubnames+0x1ce68>
 4d0:	70000001 	andvc	r0, r0, r1
 4d4:	65737261 	ldrvsb	r7, [r3, #-609]!
 4d8:	6d756e5f 	ldcvsl	14, cr6, [r5, #-380]!
 4dc:	00020500 	andeq	r0, r2, r0, lsl #10
 4e0:	72617000 	rsbvc	r7, r1, #0	; 0x0
 4e4:	775f6573 	undefined
 4e8:	0064726f 	rsbeq	r7, r4, pc, ror #4
 4ec:	000002a7 	andeq	r0, r0, r7, lsr #5
 4f0:	5f696c63 	swipl	0x00696c63
 4f4:	73726170 	cmnvc	r2, #28	; 0x1c
 4f8:	03360065 	teqeq	r6, #101	; 0x65
 4fc:	65620000 	strvsb	r0, [r2]!
 500:	5d007065 	stcpl	0, cr7, [r0, #-404]
 504:	63000003 	tstvs	r0, #3	; 0x3
 508:	705f696c 	subvcs	r6, pc, ip, ror #18
 50c:	5f6c6c6f 	swipl	0x006c6c6f
 510:	725f7872 	subvcs	r7, pc, #7471104	; 0x720000
 514:	00676e69 	rsbeq	r6, r7, r9, ror #28
 518:	0000040d 	andeq	r0, r0, sp, lsl #8
 51c:	725f7872 	subvcs	r7, pc, #7471104	; 0x720000
 520:	5f676e69 	swipl	0x00676e69
 524:	00646461 	rsbeq	r6, r4, r1, ror #8
 528:	00000428 	andeq	r0, r0, r8, lsr #8
 52c:	725f7872 	subvcs	r7, pc, #7471104	; 0x720000
 530:	5f676e69 	swipl	0x00676e69
 534:	63617073 	cmnvs	r1, #115	; 0x73
 538:	043f0065 	ldreqt	r0, [pc], #101	; 540 <.debug_pubnames+0x540>
 53c:	6c630000 	stcvsl	0, cr0, [r3]
 540:	65735f69 	ldrvsb	r5, [r3, #-3945]!
 544:	00707574 	rsbeqs	r7, r0, r4, ror r5
 548:	00000451 	andeq	r0, r0, r1, asr r4
 54c:	5f696c63 	swipl	0x00696c63
 550:	6c6c6f70 	stcvsl	15, cr6, [ip], #-448
 554:	0005d900 	andeq	sp, r5, r0, lsl #18
 558:	686f7400 	stmvsda	pc!, {sl, ip, sp, lr}^
 55c:	f4007865 	strnv	r7, [r0], #-2149
 560:	64000005 	strvs	r0, [r0], #-5
 564:	6d706d75 	ldcvsl	13, cr6, [r0, #-468]!
 568:	04006d65 	streq	r6, [r0], #-3429
 56c:	72000007 	andvc	r0, r0, #7	; 0x7
 570:	69725f78 	ldmvsdb	r2!, {r3, r4, r5, r6, r8, r9, sl, fp, ip, lr}^
 574:	1600676e 	strne	r6, [r0], -lr, ror #14
 578:	72000007 	andvc	r0, r0, #7	; 0x7
 57c:	69725f78 	ldmvsdb	r2!, {r3, r4, r5, r6, r8, r9, sl, fp, ip, lr}^
 580:	685f676e 	ldmvsda	pc, {r1, r2, r3, r5, r6, r8, r9, sl, sp, lr}^
 584:	00646165 	rsbeq	r6, r4, r5, ror #2
 588:	00000728 	andeq	r0, r0, r8, lsr #14
 58c:	725f7872 	subvcs	r7, pc, #7471104	; 0x720000
 590:	5f676e69 	swipl	0x00676e69
 594:	6c696174 	stfvse	f6, [r9], #-464
 598:	00073a00 	andeq	r3, r7, r0, lsl #20
 59c:	5f787200 	swipl	0x00787200
 5a0:	676e6972 	undefined
 5a4:	746e635f 	strvcbt	r6, [lr], #-863
 5a8:	00075c00 	andeq	r5, r7, r0, lsl #24
 5ac:	696c6300 	stmvsdb	ip!, {r8, r9, sp, lr}^
 5b0:	6e696c5f 	mcrvs	12, 3, r6, cr9, cr15, {2}
 5b4:	076e0065 	streqb	r0, [lr, -r5, rrx]!
 5b8:	6c630000 	stcvsl	0, cr0, [r3]
 5bc:	696c5f69 	stmvsdb	ip!, {r0, r3, r5, r6, r8, r9, sl, fp, ip, lr}^
 5c0:	6c5f656e 	cfldr64vs	mvdx6, [pc], {110}
 5c4:	80006e65 	andhi	r6, r0, r5, ror #28
 5c8:	63000007 	tstvs	r0, #7	; 0x7
 5cc:	735f696c 	cmpvc	pc, #1769472	; 0x1b0000
 5d0:	65746174 	ldrvsb	r6, [r4, #-372]!
 5d4:	00079200 	andeq	r9, r7, r0, lsl #4
 5d8:	696c6300 	stmvsdb	ip!, {r8, r9, sp, lr}^
 5dc:	7365725f 	cmnvc	r5, #-268435451	; 0xf0000005
 5e0:	00746c75 	rsbeqs	r6, r4, r5, ror ip
 5e4:	000007a4 	andeq	r0, r0, r4, lsr #15
 5e8:	5f696c63 	swipl	0x00696c63
 5ec:	61736964 	cmnvs	r3, r4, ror #18
 5f0:	64656c62 	strvsbt	r6, [r5], #-3170
 5f4:	00000000 	andeq	r0, r0, r0
 5f8:	00015f00 	andeq	r5, r1, r0, lsl #30
 5fc:	5c000200 	sfmpl	f0, 4, [r0], {0}
 600:	80000032 	andhi	r0, r0, r2, lsr r0
 604:	1600000e 	strne	r0, [r0], -lr
 608:	41000007 	tstmi	r0, r7
 60c:	46313954 	undefined
 610:	4344505f 	cmpmi	r4, #95	; 0x5f
 614:	7465535f 	strvcbt	r5, [r5], #-863
 618:	7478654e 	ldrvcbt	r6, [r8], #-1358
 61c:	6f007852 	swivs	0x00007852
 620:	41000007 	tstmi	r0, r7
 624:	46313954 	undefined
 628:	4344505f 	cmpmi	r4, #95	; 0x5f
 62c:	7465535f 	strvcbt	r5, [r5], #-863
 630:	7478654e 	ldrvcbt	r6, [r8], #-1358
 634:	c8007854 	stmgtda	r0, {r2, r4, r6, fp, ip, sp, lr}
 638:	41000007 	tstmi	r0, r7
 63c:	46313954 	undefined
 640:	4344505f 	cmpmi	r4, #95	; 0x5f
 644:	7465535f 	strvcbt	r5, [r5], #-863
 648:	21007852 	tstcs	r0, r2, asr r8
 64c:	41000008 	tstmi	r0, r8
 650:	46313954 	undefined
 654:	4344505f 	cmpmi	r4, #95	; 0x5f
 658:	7465535f 	strvcbt	r5, [r5], #-863
 65c:	b4007854 	strlt	r7, [r0], #-2132
 660:	41000008 	tstmi	r0, r8
 664:	46313954 	undefined
 668:	4344505f 	cmpmi	r4, #95	; 0x5f
 66c:	65704f5f 	ldrvsb	r4, [r0, #-3935]!
 670:	098a006e 	stmeqib	sl, {r1, r2, r3, r5, r6}
 674:	54410000 	strplb	r0, [r1]
 678:	5f463139 	swipl	0x00463139
 67c:	425f5355 	submis	r5, pc, #1409286145	; 0x54000001
 680:	72647561 	rsbvc	r7, r4, #406847488	; 0x18400000
 684:	00657461 	rsbeq	r7, r5, r1, ror #8
 688:	00000a67 	andeq	r0, r0, r7, ror #20
 68c:	31395441 	teqcc	r9, r1, asr #8
 690:	53555f46 	cmppl	r5, #280	; 0x118
 694:	6e6f435f 	mcrvs	3, 3, r4, cr15, cr15, {2}
 698:	75676966 	strvcb	r6, [r7, #-2406]!
 69c:	8c006572 	cfstr32hi	mvfx6, [r0], {114}
 6a0:	7500000b 	strvc	r0, [r0, #-11]
 6a4:	74726173 	ldrvcbt	r6, [r2], #-371
 6a8:	5f78745f 	swipl	0x0078745f
 6ac:	74706d65 	ldrvcbt	r6, [r0], #-3429
 6b0:	0ba80079 	bleq	fea0089c <_ram_end+0xfe7fbd90>
 6b4:	73750000 	cmnvc	r5, #0	; 0x0
 6b8:	5f747261 	swipl	0x00747261
 6bc:	665f7874 	undefined
 6c0:	6873756c 	ldmvsda	r3!, {r2, r3, r5, r6, r8, sl, ip, sp, lr}^
 6c4:	000bfb00 	andeq	pc, fp, r0, lsl #22
 6c8:	61737500 	cmnvs	r3, r0, lsl #10
 6cc:	705f7472 	subvcs	r7, pc, r2, ror r4
 6d0:	00637475 	rsbeq	r7, r3, r5, ror r4
 6d4:	00000c71 	andeq	r0, r0, r1, ror ip
 6d8:	72617375 	rsbvc	r7, r1, #-738197503	; 0xd4000001
 6dc:	65675f74 	strvsb	r5, [r7, #-3956]!
 6e0:	725f6374 	subvcs	r6, pc, #-805306367	; 0xd0000001
 6e4:	9b007964 	blls	1ec7c <.debug_pubnames+0x1ec7c>
 6e8:	7500000c 	strvc	r0, [r0, #-12]
 6ec:	74726173 	ldrvcbt	r6, [r2], #-371
 6f0:	7465675f 	strvcbt	r6, [r5], #-1887
 6f4:	0cc50063 	stceql	0, cr0, [r5], {99}
 6f8:	73750000 	cmnvc	r5, #0	; 0x0
 6fc:	5f747261 	swipl	0x00747261
 700:	62616e65 	rsbvs	r6, r1, #1616	; 0x650
 704:	695f656c 	ldmvsdb	pc, {r2, r3, r5, r6, r8, sl, sp, lr}^
 708:	ec00746e 	cfstrs	mvf7, [r0], {110}
 70c:	7500000c 	strvc	r0, [r0, #-12]
 710:	74726173 	ldrvcbt	r6, [r2], #-371
 714:	7369645f 	cmnvc	r9, #1593835520	; 0x5f000000
 718:	656c6261 	strvsb	r6, [ip, #-609]!
 71c:	746e695f 	strvcbt	r6, [lr], #-2399
 720:	000d1300 	andeq	r1, sp, r0, lsl #6
 724:	61737500 	cmnvs	r3, r0, lsl #10
 728:	635f7472 	cmpvs	pc, #1912602624	; 0x72000000
 72c:	7172695f 	cmnvc	r2, pc, asr r9
 730:	6e61685f 	mcrvs	8, 3, r6, cr1, cr15, {2}
 734:	72656c64 	rsbvc	r6, r5, #25600	; 0x6400
 738:	000d6900 	andeq	r6, sp, r0, lsl #18
 73c:	61737500 	cmnvs	r3, r0, lsl #10
 740:	735f7472 	cmpvc	pc, #1912602624	; 0x72000000
 744:	70757465 	rsbvcs	r7, r5, r5, ror #8
 748:	000e6d00 	andeq	r6, lr, r0, lsl #26
 74c:	61737500 	cmnvs	r3, r0, lsl #10
 750:	695f7472 	ldmvsdb	pc, {r1, r4, r5, r6, sl, ip, sp, lr}^
 754:	0073746e 	rsbeqs	r7, r3, lr, ror #8
 758:	00000000 	andeq	r0, r0, r0
 75c:	00000094 	muleq	r0, r4, r0
 760:	40dc0002 	sbcmis	r0, ip, r2
 764:	04ce0000 	streqb	r0, [lr]
 768:	003d0000 	eoreqs	r0, sp, r0
 76c:	70780000 	rsbvcs	r0, r8, r0
 770:	746e6972 	strvcbt	r6, [lr], #-2418
 774:	017e0066 	cmneq	lr, r6, rrx
 778:	656d0000 	strvsb	r0, [sp]!
 77c:	7970636d 	ldmvcdb	r0!, {r0, r2, r3, r5, r6, r8, r9, sp, lr}^
 780:	0001f100 	andeq	pc, r1, r0, lsl #2
 784:	6d656d00 	stcvsl	13, cr6, [r5]
 788:	00746573 	rsbeqs	r6, r4, r3, ror r5
 78c:	00000252 	andeq	r0, r0, r2, asr r2
 790:	6e727473 	mrcvs	4, 3, r7, cr2, cr3, {3}
 794:	00797063 	rsbeqs	r7, r9, r3, rrx
 798:	000002a1 	andeq	r0, r0, r1, lsr #5
 79c:	63727473 	cmnvs	r2, #1929379840	; 0x73000000
 7a0:	d500706d 	strle	r7, [r0, #-109]
 7a4:	73000002 	tstvc	r0, #2	; 0x2
 7a8:	636e7274 	cmnvs	lr, #1073741831	; 0x40000007
 7ac:	1400706d 	strne	r7, [r0], #-109
 7b0:	73000003 	tstvc	r0, #3	; 0x3
 7b4:	656c7274 	strvsb	r7, [ip, #-628]!
 7b8:	0348006e 	cmpeq	r8, #110	; 0x6e
 7bc:	74730000 	ldrvcbt	r0, [r3]
 7c0:	72686372 	rsbvc	r6, r8, #-939524095	; 0xc8000001
 7c4:	0003c700 	andeq	ip, r3, r0, lsl #14
 7c8:	69647500 	stmvsdb	r4!, {r8, sl, ip, sp, lr}^
 7cc:	646f6d76 	strvsbt	r6, [pc], #3446	; 7d4 <.debug_pubnames+0x7d4>
 7d0:	00346973 	eoreqs	r6, r4, r3, ror r9
 7d4:	000003fe 	streqd	r0, [r0], -lr
 7d8:	64755f5f 	ldrvsbt	r5, [r5], #-3935
 7dc:	69737669 	ldmvsdb	r3!, {r0, r3, r5, r6, r9, sl, ip, sp, lr}^
 7e0:	046c0033 	streqbt	r0, [ip], #-51
 7e4:	5f5f0000 	swipl	0x005f0000
 7e8:	646f6d75 	strvsbt	r6, [pc], #3445	; 7f0 <.debug_pubnames+0x7f0>
 7ec:	00336973 	eoreqs	r6, r3, r3, ror r9
 7f0:	00000000 	andeq	r0, r0, r0
 7f4:	000000ce 	andeq	r0, r0, lr, asr #1
 7f8:	45aa0002 	strmi	r0, [sl, #2]!
 7fc:	05c20000 	streqb	r0, [r2]
 800:	003a0000 	eoreqs	r0, sl, r0
 804:	756f0000 	strvcb	r0, [pc, #0]!	; 80c <.debug_pubnames+0x80c>
 808:	61725f74 	cmnvs	r2, r4, ror pc
 80c:	74705f77 	ldrvcbt	r5, [r0], #-3959
 810:	009c0072 	addeqs	r0, ip, r2, ror r0
 814:	756f0000 	strvcb	r0, [pc, #0]!	; 81c <.debug_pubnames+0x81c>
 818:	61725f74 	cmnvs	r2, r4, ror pc
 81c:	00ed0077 	rsceq	r0, sp, r7, ror r0
 820:	61630000 	cmnvs	r3, r0
 824:	68635f74 	stmvsda	r3!, {r2, r4, r5, r6, r8, r9, sl, fp, ip, lr}^
 828:	01490072 	cmpeq	r9, r2, ror r0
 82c:	61630000 	cmnvs	r3, r0
 830:	74735f74 	ldrvcbt	r5, [r3], #-3956
 834:	016b0072 	cmneq	fp, r2, ror r0
 838:	61630000 	cmnvs	r3, r0
 83c:	65685f74 	strvsb	r5, [r8, #-3956]!
 840:	01af0078 	moveq	r0, r8, ror r0
 844:	61630000 	cmnvs	r3, r0
 848:	6e695f74 	mcrvs	15, 3, r5, cr9, cr4, {3}
 84c:	61725f74 	cmnvs	r2, r4, ror pc
 850:	00786964 	rsbeqs	r6, r8, r4, ror #18
 854:	00000347 	andeq	r0, r0, r7, asr #6
 858:	5f746163 	swipl	0x00746163
 85c:	00746e69 	rsbeqs	r6, r4, r9, ror #28
 860:	00000375 	andeq	r0, r0, r5, ror r3
 864:	5f727473 	swipl	0x00727473
 868:	695f6f74 	ldmvsdb	pc, {r2, r4, r5, r6, r8, r9, sl, fp, sp, lr}^
 86c:	6e00746e 	cdpvs	4, 0, cr7, cr0, cr14, {3}
 870:	70000004 	andvc	r0, r0, r4
 874:	65737261 	ldrvsb	r7, [r3, #-609]!
 878:	6f77745f 	swivs	0x0077745f
 87c:	6d6f635f 	stcvsl	3, cr6, [pc, #-380]!
 880:	735f616d 	cmpvc	pc, #1073741851	; 0x4000001b
 884:	72617065 	rsbvc	r7, r1, #101	; 0x65
 888:	64657461 	strvsbt	r7, [r5], #-1121
 88c:	7865685f 	stmvcda	r5!, {r0, r1, r2, r3, r4, r6, fp, sp, lr}^
 890:	0004de00 	andeq	sp, r4, r0, lsl #28
 894:	72617000 	rsbvc	r7, r1, #0	; 0x0
 898:	635f6573 	cmpvs	pc, #482344960	; 0x1cc00000
 89c:	616d6d6f 	cmnvs	sp, pc, ror #26
 8a0:	7065735f 	rsbvc	r7, r5, pc, asr r3
 8a4:	74617261 	strvcbt	r7, [r1], #-609
 8a8:	695f6465 	ldmvsdb	pc, {r0, r2, r5, r6, sl, sp, lr}^
 8ac:	0073746e 	rsbeqs	r7, r3, lr, ror #8
 8b0:	000005af 	andeq	r0, r0, pc, lsr #11
 8b4:	61666564 	cmnvs	r6, r4, ror #10
 8b8:	5f746c75 	swipl	0x00746c75
 8bc:	69646172 	stmvsdb	r4!, {r1, r4, r5, r6, r8, sp, lr}^
 8c0:	00000078 	andeq	r0, r0, r8, ror r0
	...
Disassembly of section .debug_aranges:

00000000 <.debug_aranges>:
   0:	0000001c 	andeq	r0, r0, ip, lsl r0
   4:	00000002 	andeq	r0, r0, r2
   8:	00040000 	andeq	r0, r4, r0
   c:	00000000 	andeq	r0, r0, r0
  10:	0020015c 	eoreq	r0, r0, ip, asr r1
  14:	000000c0 	andeq	r0, r0, r0, asr #1
	...
  20:	0000001c 	andeq	r0, r0, ip, lsl r0
  24:	02ab0002 	adceq	r0, fp, #2	; 0x2
  28:	00040000 	andeq	r0, r4, r0
  2c:	00000000 	andeq	r0, r0, r0
  30:	0020021c 	eoreq	r0, r0, ip, lsl r2
  34:	00000130 	andeq	r0, r0, r0, lsr r1
	...
  40:	0000001c 	andeq	r0, r0, ip, lsl r0
  44:	04890002 	streq	r0, [r9], #2
  48:	00040000 	andeq	r0, r4, r0
  4c:	00000000 	andeq	r0, r0, r0
  50:	0020034c 	eoreq	r0, r0, ip, asr #6
  54:	000004a0 	andeq	r0, r0, r0, lsr #9
	...
  60:	0000001c 	andeq	r0, r0, ip, lsl r0
  64:	0b910002 	bleq	fe440074 <_ram_end+0xfe23b568>
  68:	00040000 	andeq	r0, r4, r0
  6c:	00000000 	andeq	r0, r0, r0
  70:	002007ec 	eoreq	r0, r0, ip, ror #15
  74:	00001838 	andeq	r1, r0, r8, lsr r8
	...
  80:	0000001c 	andeq	r0, r0, ip, lsl r0
  84:	187f0002 	ldmneda	pc!, {r1}^
  88:	00040000 	andeq	r0, r4, r0
  8c:	00000000 	andeq	r0, r0, r0
  90:	00202024 	eoreq	r2, r0, r4, lsr #32
  94:	000003a8 	andeq	r0, r0, r8, lsr #7
	...
  a0:	0000001c 	andeq	r0, r0, ip, lsl r0
  a4:	1b240002 	blne	9000b4 <_ram_end+0x6fb5a8>
  a8:	00040000 	andeq	r0, r4, r0
  ac:	00000000 	andeq	r0, r0, r0
  b0:	002023cc 	eoreq	r2, r0, ip, asr #7
  b4:	00000378 	andeq	r0, r0, r8, ror r3
	...
  c0:	0000001c 	andeq	r0, r0, ip, lsl r0
  c4:	21c70002 	biccs	r0, r7, r2
  c8:	00040000 	andeq	r0, r4, r0
  cc:	00000000 	andeq	r0, r0, r0
  d0:	00202744 	eoreq	r2, r0, r4, asr #14
  d4:	000003a0 	andeq	r0, r0, r0, lsr #7
	...
  e0:	0000001c 	andeq	r0, r0, ip, lsl r0
  e4:	2a840002 	bcs	fe1000f4 <_ram_end+0xfdefb5e8>
  e8:	00040000 	andeq	r0, r4, r0
  ec:	00000000 	andeq	r0, r0, r0
  f0:	00202ae4 	eoreq	r2, r0, r4, ror #21
  f4:	0000079c 	muleq	r0, ip, r7
	...
 100:	0000001c 	andeq	r0, r0, ip, lsl r0
 104:	325c0002 	subccs	r0, ip, #2	; 0x2
 108:	00040000 	andeq	r0, r4, r0
 10c:	00000000 	andeq	r0, r0, r0
 110:	00203280 	eoreq	r3, r0, r0, lsl #5
 114:	000003b4 	streqh	r0, [r0], -r4
	...
 120:	0000001c 	andeq	r0, r0, ip, lsl r0
 124:	40dc0002 	sbcmis	r0, ip, r2
 128:	00040000 	andeq	r0, r4, r0
 12c:	00000000 	andeq	r0, r0, r0
 130:	00203634 	eoreq	r3, r0, r4, lsr r6
 134:	000004fc 	streqd	r0, [r0], -ip
	...
 140:	0000001c 	andeq	r0, r0, ip, lsl r0
 144:	45aa0002 	strmi	r0, [sl, #2]!
 148:	00040000 	andeq	r0, r4, r0
 14c:	00000000 	andeq	r0, r0, r0
 150:	00203b30 	eoreq	r3, r0, r0, lsr fp
 154:	0000087c 	andeq	r0, r0, ip, ror r8
	...
Disassembly of section .debug_str:

00000000 <.debug_str>:
   0:	72617473 	rsbvc	r7, r1, #1929379840	; 0x73000000
   4:	2e707574 	mrccs	5, 3, r7, cr0, cr4, {3}
   8:	4d500063 	ldcmil	0, cr0, [r0, #-396]
   c:	4d495f43 	stcmil	15, cr5, [r9, #-268]
  10:	415f0052 	cmpmi	pc, r2, asr r0
  14:	53313954 	teqpl	r1, #1376256	; 0x150000
  18:	434d505f 	cmpmi	sp, #95	; 0x5f
  1c:	434d5000 	cmpmi	sp, #0	; 0x0
  20:	5343505f 	cmppl	r3, #95	; 0x5f
  24:	4d500052 	ldcmil	0, cr0, [r0, #-328]
  28:	43505f43 	cmpmi	r0, #268	; 0x10c
  2c:	50005244 	andpl	r5, r0, r4, asr #4
  30:	505f434d 	subpls	r4, pc, sp, asr #6
  34:	00524543 	subeqs	r4, r2, r3, asr #10
  38:	5f434d50 	swipl	0x00434d50
  3c:	5246434d 	subpl	r4, r6, #872415233	; 0x34000001
  40:	54535200 	ldrplb	r5, [r3], #-512
  44:	43525f43 	cmpmi	r2, #268	; 0x10c
  48:	54410052 	strplb	r0, [r1], #-82
  4c:	53503139 	cmppl	r0, #1073741838	; 0x4000000e
  50:	5453525f 	ldrplb	r5, [r3], #-607
  54:	54410043 	strplb	r0, [r1], #-67
  58:	53503139 	cmppl	r0, #1073741838	; 0x4000000e
  5c:	434d505f 	cmpmi	sp, #95	; 0x5f
  60:	61747300 	cmnvs	r4, r0, lsl #6
  64:	70757472 	rsbvcs	r7, r5, r2, ror r4
  68:	554e4700 	strplb	r4, [lr, #-1792]
  6c:	33204320 	teqcc	r0, #-2147483648	; 0x80000000
  70:	332e342e 	teqcc	lr, #771751936	; 0x2e000000
  74:	434d5000 	cmpmi	sp, #0	; 0x0
  78:	5245495f 	subpl	r4, r5, #1556480	; 0x17c000
  7c:	434d5000 	cmpmi	sp, #0	; 0x0
  80:	4c4c505f 	mcrrmi	0, 5, r5, ip, cr15
  84:	53520052 	cmppl	r2, #82	; 0x52
  88:	525f4354 	subpls	r4, pc, #1342177281	; 0x50000001
  8c:	6400524d 	strvs	r5, [r0], #-589
  90:	62617369 	rsbvs	r7, r1, #-1543503871	; 0xa4000001
  94:	695f656c 	ldmvsdb	pc, {r2, r3, r5, r6, r8, sl, sp, lr}^
  98:	7265746e 	rsbvc	r7, r5, #1845493760	; 0x6e000000
  9c:	74707572 	ldrvcbt	r7, [r0], #-1394
  a0:	65520073 	ldrvsb	r0, [r2, #-115]
  a4:	76726573 	undefined
  a8:	00306465 	eoreqs	r6, r0, r5, ror #8
  ac:	65736552 	ldrvsb	r6, [r3, #-1362]!
  b0:	64657672 	strvsbt	r7, [r5], #-1650
  b4:	65520031 	ldrvsb	r0, [r2, #-49]
  b8:	76726573 	undefined
  bc:	00326465 	eoreqs	r6, r2, r5, ror #8
  c0:	65736552 	ldrvsb	r6, [r3, #-1362]!
  c4:	64657672 	strvsbt	r7, [r5], #-1650
  c8:	50700033 	rsbpls	r0, r0, r3, lsr r0
  cc:	6500434d 	strvs	r4, [r0, #-845]
  d0:	6c62616e 	stfvse	f6, [r2], #-440
  d4:	6e695f65 	cdpvs	15, 6, cr5, cr9, cr5, {3}
  d8:	72726574 	rsbvcs	r6, r2, #486539264	; 0x1d000000
  dc:	73747075 	cmnvc	r4, #117	; 0x75
  e0:	434d5000 	cmpmi	sp, #0	; 0x0
  e4:	4b43505f 	blmi	10d4268 <_ram_end+0xecf75c>
  e8:	6e690052 	mcrvs	0, 3, r0, cr9, cr2, {2}
  ec:	615f7374 	cmpvs	pc, r4, ror r3
  f0:	655f6572 	ldrvsb	r6, [pc, #-1394]	; fffffb86 <_ram_end+0xffdfb07a>
  f4:	6c62616e 	stfvse	f6, [r2], #-440
  f8:	52006465 	andpl	r6, r0, #1694498816	; 0x65000000
  fc:	72657365 	rsbvc	r7, r5, #-1811939327	; 0x94000001
 100:	34646576 	strccbt	r6, [r4], #-1398
 104:	434d5000 	cmpmi	sp, #0	; 0x0
 108:	5244495f 	subpl	r4, r4, #1556480	; 0x17c000
 10c:	6e6f6c00 	cdpvs	12, 6, cr6, cr15, cr0, {0}
 110:	6e752067 	cdpvs	0, 7, cr2, cr5, cr7, {3}
 114:	6e676973 	mcrvs	9, 3, r6, cr7, cr3, {3}
 118:	69206465 	stmvsdb	r0!, {r0, r2, r5, r6, sl, sp, lr}
 11c:	7500746e 	strvc	r7, [r0, #-1134]
 120:	6769736e 	strvsb	r7, [r9, -lr, ror #6]!
 124:	2064656e 	rsbcs	r6, r4, lr, ror #10
 128:	72616863 	rsbvc	r6, r1, #6488064	; 0x630000
 12c:	69662f00 	stmvsdb	r6!, {r8, r9, sl, fp, sp}^
 130:	3273656c 	rsbccs	r6, r3, #452984832	; 0x1b000000
 134:	6f72702f 	swivs	0x0072702f
 138:	7463656a 	strvcbt	r6, [r3], #-1386
 13c:	64752f73 	ldrvsbt	r2, [r5], #-3955
 140:	2f6b7369 	swics	0x006b7369
 144:	64616f6c 	strvsbt	r6, [r1], #-3948
 148:	52007265 	andpl	r7, r0, #1342177286	; 0x50000006
 14c:	5f435453 	swipl	0x00435453
 150:	00525352 	subeqs	r5, r2, r2, asr r3
 154:	5f434d50 	swipl	0x00434d50
 158:	52534353 	subpls	r4, r3, #1275068417	; 0x4c000001
 15c:	434d5000 	cmpmi	sp, #0	; 0x0
 160:	4b434d5f 	blmi	10d36e4 <_ram_end+0xecebd8>
 164:	4d500052 	ldcmil	0, cr0, [r0, #-328]
 168:	43535f43 	cmpmi	r3, #268	; 0x10c
 16c:	70005244 	andvc	r5, r0, r4, asr #4
 170:	43545352 	cmpmi	r4, #1207959553	; 0x48000001
 174:	6f687300 	swivs	0x00687300
 178:	75207472 	strvc	r7, [r0, #-1138]!
 17c:	6769736e 	strvsb	r7, [r9, -lr, ror #6]!
 180:	2064656e 	rsbcs	r6, r4, lr, ror #10
 184:	00746e69 	rsbeqs	r6, r4, r9, ror #28
 188:	5f434d50 	swipl	0x00434d50
 18c:	52454353 	subpl	r4, r5, #1275068417	; 0x4c000001
 190:	434d5000 	cmpmi	sp, #0	; 0x0
 194:	0052535f 	subeqs	r5, r2, pc, asr r3
 198:	3954415f 	ldmccdb	r4, {r0, r1, r2, r3, r4, r6, r8, lr}^
 19c:	525f5331 	subpls	r5, pc, #-1006632960	; 0xc4000000
 1a0:	00435453 	subeq	r5, r3, r3, asr r4
 1a4:	5f434d50 	swipl	0x00434d50
 1a8:	00524f4d 	subeqs	r4, r2, sp, asr #30
 1ac:	72705f5f 	rsbvcs	r5, r0, #380	; 0x17c
 1b0:	74656665 	strvcbt	r6, [r5], #-1637
 1b4:	615f6863 	cmpvs	pc, r3, ror #16
 1b8:	74726f62 	ldrvcbt	r6, [r2], #-3938
 1bc:	72707800 	rsbvcs	r7, r0, #0	; 0x0
 1c0:	66746e69 	ldrvsbt	r6, [r4], -r9, ror #28
 1c4:	646c6f00 	strvsbt	r6, [ip], #-3840
 1c8:	0070735f 	rsbeqs	r7, r0, pc, asr r3
 1cc:	6b72616d 	blvs	1c98788 <_ram_end+0x1a93c7c>
 1d0:	725f7075 	subvcs	r7, pc, #117	; 0x75
 1d4:	64006d61 	strvs	r6, [r0], #-3425
 1d8:	67756265 	ldrvsb	r6, [r5, -r5, ror #4]!
 1dc:	5f00632e 	swipl	0x0000632e
 1e0:	666f735f 	undefined
 1e4:	72617774 	rsbvc	r7, r1, #30408704	; 0x1d00000
 1e8:	6e695f65 	cdpvs	15, 6, cr5, cr9, cr5, {3}
 1ec:	72726574 	rsbvcs	r6, r2, #486539264	; 0x1d000000
 1f0:	00747075 	rsbeqs	r7, r4, r5, ror r0
 1f4:	6e755f5f 	mrcvs	15, 3, r5, cr5, cr15, {2}
 1f8:	69666564 	stmvsdb	r6!, {r2, r5, r6, r8, sl, sp, lr}^
 1fc:	5f64656e 	swipl	0x0064656e
 200:	74736e69 	ldrvcbt	r6, [r3], #-3689
 204:	74637572 	strvcbt	r7, [r3], #-1394
 208:	006e6f69 	rsbeq	r6, lr, r9, ror #30
 20c:	70735f5f 	rsbvcs	r5, r3, pc, asr pc
 210:	6f697275 	swivs	0x00697275
 214:	685f7375 	ldmvsda	pc, {r0, r2, r4, r5, r6, r8, r9, ip, sp, lr}^
 218:	6c646e61 	stcvsl	14, cr6, [r4], #-388
 21c:	5f007265 	swipl	0x00007265
 220:	7461645f 	strvcbt	r6, [r1], #-1119
 224:	62615f61 	rsbvs	r5, r1, #388	; 0x184
 228:	0074726f 	rsbeqs	r7, r4, pc, ror #4
 22c:	63617473 	cmnvs	r1, #1929379840	; 0x73000000
 230:	74705f6b 	ldrvcbt	r5, [r0], #-3947
 234:	65640072 	strvsb	r0, [r4, #-114]!
 238:	5f677562 	swipl	0x00677562
 23c:	75746573 	ldrvcb	r6, [r4, #-1395]!
 240:	6e6c0070 	mcrvs	0, 3, r0, cr12, cr0, {3}
 244:	74705f6b 	ldrvcbt	r5, [r0], #-3947
 248:	616d0072 	cmnvs	sp, r2, ror r0
 24c:	632e6e69 	teqvs	lr, #1680	; 0x690
 250:	706f6300 	rsbvc	r6, pc, r0, lsl #6
 254:	6e615f79 	mcrvs	15, 3, r5, cr1, cr9, {3}
 258:	75725f64 	ldrvcb	r5, [r2, #-3940]!
 25c:	7375006e 	cmnvc	r5, #110	; 0x6e
 260:	6f705f62 	swivs	0x00705f62
 264:	72006c6c 	andvc	r6, r0, #27648	; 0x6c00
 268:	6f696765 	swivs	0x00696765
 26c:	656c006e 	strvsb	r0, [ip, #-110]!
 270:	6f705f64 	swivs	0x00705f64
 274:	70006c6c 	andvc	r6, r0, ip, ror #24
 278:	72676f72 	rsbvc	r6, r7, #456	; 0x1c8
 27c:	656d6d61 	strvsb	r6, [sp, #-3425]!
 280:	61770064 	cmnvs	r7, r4, rrx
 284:	755f7469 	ldrvcb	r7, [pc, #-1129]	; fffffe23 <_ram_end+0xffdfb317>
 288:	65720073 	ldrvsb	r0, [r2, #-115]!
 28c:	746f6f62 	strvcbt	r6, [pc], #3938	; 294 <.debug_str+0x294>
 290:	6d617300 	stcvsl	3, cr7, [r1]
 294:	735f6162 	cmpvc	pc, #-2147483624	; 0x80000018
 298:	70757465 	rsbvcs	r7, r5, r5, ror #8
 29c:	5f434d00 	swipl	0x00434d00
 2a0:	52534141 	subpls	r4, r3, #1073741840	; 0x40000010
 2a4:	61737500 	cmnvs	r3, r0, lsl #10
 2a8:	735f7472 	cmpvc	pc, #1912602624	; 0x72000000
 2ac:	70757465 	rsbvcs	r7, r5, r5, ror #8
 2b0:	5f434d00 	swipl	0x00434d00
 2b4:	00524d46 	subeqs	r4, r2, r6, asr #26
 2b8:	31395441 	teqcc	r9, r1, asr #8
 2bc:	4d5f5350 	ldcmil	3, cr5, [pc, #-320]
 2c0:	73750043 	cmnvc	r5, #67	; 0x43
 2c4:	65735f62 	ldrvsb	r5, [r3, #-3938]!
 2c8:	00707574 	rsbeqs	r7, r0, r4, ror r5
 2cc:	5f627375 	swipl	0x00627375
 2d0:	6e65706f 	cdpvs	0, 6, cr7, cr5, cr15, {3}
 2d4:	6e756600 	cdpvs	6, 7, cr6, cr5, cr0, {0}
 2d8:	434d0063 	cmpmi	sp, #99	; 0x63
 2dc:	5243525f 	subpl	r5, r3, #-268435451	; 0xf0000005
 2e0:	69617700 	stmvsdb	r1!, {r8, r9, sl, ip, sp, lr}^
 2e4:	616d0074 	cmnvs	sp, r4, ror r0
 2e8:	70006e69 	andvc	r6, r0, r9, ror #28
 2ec:	00737475 	rsbeqs	r7, r3, r5, ror r4
 2f0:	73616c66 	cmnvc	r1, #26112	; 0x6600
 2f4:	65735f68 	ldrvsb	r5, [r3, #-3944]!
 2f8:	00707574 	rsbeqs	r7, r0, r4, ror r5
 2fc:	74696177 	strvcbt	r6, [r9], #-375
 300:	00736d5f 	rsbeqs	r6, r3, pc, asr sp
 304:	465f434d 	ldrmib	r4, [pc], -sp, asr #6
 308:	75005243 	strvc	r5, [r0, #-579]
 30c:	74726173 	ldrvcbt	r6, [r2], #-371
 310:	7465675f 	strvcbt	r6, [r5], #-1887
 314:	64725f63 	ldrvsbt	r5, [r2], #-3939
 318:	61770079 	cmnvs	r7, r9, ror r0
 31c:	315f7469 	cmpcc	pc, r9, ror #8
 320:	434d0073 	cmpmi	sp, #115	; 0x73
 324:	5253465f 	subpls	r4, r3, #99614720	; 0x5f00000
 328:	5f434d00 	swipl	0x00434d00
 32c:	00525341 	subeqs	r5, r2, r1, asr #6
 330:	3954415f 	ldmccdb	r4, {r0, r1, r2, r3, r4, r6, r8, lr}^
 334:	4d5f5331 	ldcmil	3, cr5, [pc, #-196]
 338:	6c630043 	stcvsl	0, cr0, [r3], #-268
 33c:	6f705f69 	swivs	0x00705f69
 340:	6c006c6c 	stcvs	12, cr6, [r0], {108}
 344:	735f6465 	cmpvc	pc, #1694498816	; 0x65000000
 348:	70757465 	rsbvcs	r7, r5, r5, ror #8
 34c:	746f6e00 	strvcbt	r6, [pc], #3584	; 354 <.debug_str+0x354>
 350:	73726966 	cmnvc	r2, #1671168	; 0x198000
 354:	6d697474 	cfstrdvs	mvd7, [r9, #-464]!
 358:	44550065 	ldrmib	r0, [r5], #-101
 35c:	45495f50 	strmib	r5, [r9, #-3920]
 360:	54410052 	strplb	r0, [r1], #-82
 364:	5f533139 	swipl	0x00533139
 368:	5f434443 	swipl	0x00434443
 36c:	454e494c 	strmib	r4, [lr, #-2380]
 370:	444f435f 	strmib	r4, [pc], #863	; 378 <.debug_str+0x378>
 374:	00474e49 	subeq	r4, r7, r9, asr #28
 378:	5f4f4950 	swipl	0x004f4950
 37c:	00525349 	subeqs	r5, r2, r9, asr #6
 380:	5f627375 	swipl	0x00627375
 384:	61746164 	cmnvs	r4, r4, ror #2
 388:	64616572 	strvsbt	r6, [r1], #-1394
 38c:	49500079 	ldmmidb	r0, {r0, r3, r4, r5, r6}^
 390:	44495f4f 	strmib	r5, [r9], #-3919
 394:	49500052 	ldmmidb	r0, {r1, r4, r6}^
 398:	444f5f4f 	strmib	r5, [pc], #3919	; 3a0 <.debug_str+0x3a0>
 39c:	55005253 	strpl	r5, [r0, #-595]
 3a0:	435f5044 	cmpmi	pc, #68	; 0x44
 3a4:	75005253 	strvc	r5, [r0, #-595]
 3a8:	735f6273 	cmpvc	pc, #805306375	; 0x30000007
 3ac:	73646e65 	cmnvc	r4, #1616	; 0x650
 3b0:	6c6c6174 	stfvse	f6, [ip], #-464
 3b4:	39544100 	ldmccdb	r4, {r8, lr}^
 3b8:	5f535031 	swipl	0x00535031
 3bc:	00504455 	subeqs	r4, r0, r5, asr r4
 3c0:	5f4f4950 	swipl	0x004f4950
 3c4:	00524549 	subeqs	r4, r2, r9, asr #10
 3c8:	6c615677 	stcvsl	6, cr5, [r1], #-476
 3cc:	55006575 	strpl	r6, [r0, #-1397]
 3d0:	495f5044 	ldmmidb	pc, {r2, r6, ip, lr}^
 3d4:	7500524d 	strvc	r5, [r0, #-589]
 3d8:	726f6873 	rsbvc	r6, pc, #7536640	; 0x730000
 3dc:	44700074 	ldrmibt	r0, [r0], #-116
 3e0:	00617461 	rsbeq	r7, r1, r1, ror #8
 3e4:	626d6173 	rsbvs	r6, sp, #-1073741796	; 0xc000001c
 3e8:	44550061 	ldrmib	r0, [r5], #-97
 3ec:	554e5f50 	strplb	r5, [lr, #-3920]
 3f0:	6663004d 	strvsbt	r0, [r3], -sp, asr #32
 3f4:	73654467 	cmnvc	r5, #1728053248	; 0x67000000
 3f8:	70697263 	rsbvc	r7, r9, r3, ror #4
 3fc:	00726f74 	rsbeqs	r6, r2, r4, ror pc
 400:	5f4f4950 	swipl	0x004f4950
 404:	52534241 	subpls	r4, r3, #268435460	; 0x10000004
 408:	62737500 	rsbvss	r7, r3, #0	; 0x0
 40c:	6972775f 	ldmvsdb	r2!, {r0, r1, r2, r3, r4, r6, r8, r9, sl, ip, sp, lr}^
 410:	75006574 	strvc	r6, [r0, #-1396]
 414:	655f6273 	ldrvsb	r6, [pc, #-627]	; 1a9 <.debug_str+0x1a9>
 418:	656d756e 	strvsb	r7, [sp, #-1390]!
 41c:	65746172 	ldrvsb	r6, [r4, #-370]!
 420:	4f495000 	swimi	0x00495000
 424:	5253425f 	subpls	r4, r3, #-268435451	; 0xf0000005
 428:	65526200 	ldrvsb	r6, [r2, #-512]
 42c:	73657571 	cmnvc	r5, #473956352	; 0x1c400000
 430:	75630074 	strvcb	r0, [r3, #-116]!
 434:	6e657272 	mcrvs	2, 3, r7, cr5, cr2, {3}
 438:	6e6f4374 	mcrvs	3, 3, r4, cr15, cr4, {3}
 43c:	75676966 	strvcb	r6, [r7, #-2406]!
 440:	69746172 	ldmvsdb	r4!, {r1, r4, r5, r6, r8, sp, lr}^
 444:	55006e6f 	strpl	r6, [r0, #-3695]
 448:	465f5044 	ldrmib	r5, [pc], -r4, asr #32
 44c:	5f005244 	swipl	0x00005244
 450:	31395441 	teqcc	r9, r1, asr #8
 454:	44555f53 	ldrmib	r5, [r5], #-3923
 458:	626e0050 	rsbvs	r0, lr, #80	; 0x50
 45c:	65747942 	ldrvsb	r7, [r4, #-2370]!
 460:	76635273 	undefined
 464:	61446200 	cmpvs	r4, r0, lsl #4
 468:	69426174 	stmvsdb	r2, {r2, r4, r5, r6, r8, sp, lr}^
 46c:	50007374 	andpl	r7, r0, r4, ror r3
 470:	495f4f49 	ldmmidb	pc, {r0, r3, r6, r8, r9, sl, fp, lr}^
 474:	00525346 	subeqs	r5, r2, r6, asr #6
 478:	5f504455 	swipl	0x00504455
 47c:	45545352 	ldrmib	r5, [r4, #-850]
 480:	73750050 	cmnvc	r5, #80	; 0x50
 484:	72705f62 	rsbvcs	r5, r0, #392	; 0x188
 488:	00746e69 	rsbeqs	r6, r4, r9, ror #28
 48c:	5f4f4950 	swipl	0x004f4950
 490:	52444649 	subpl	r4, r4, #76546048	; 0x4900000
 494:	4f495000 	swimi	0x00495000
 498:	52534f5f 	subpls	r4, r3, #380	; 0x17c
 49c:	44776400 	ldrmibt	r6, [r7], #-1024
 4a0:	52524554 	subpls	r4, r2, #352321536	; 0x15000000
 4a4:	00657461 	rsbeq	r7, r5, r1, ror #8
 4a8:	5f4f4950 	swipl	0x004f4950
 4ac:	0052444f 	subeqs	r4, r2, pc, asr #8
 4b0:	61745377 	cmnvs	r4, r7, ror r3
 4b4:	00737574 	rsbeqs	r7, r3, r4, ror r5
 4b8:	5f4f4950 	swipl	0x004f4950
 4bc:	52454649 	subpl	r4, r5, #76546048	; 0x4900000
 4c0:	4f495000 	swimi	0x00495000
 4c4:	52454f5f 	subpl	r4, r5, #380	; 0x17c
 4c8:	72756300 	rsbvcs	r6, r5, #0	; 0x0
 4cc:	746e6572 	strvcbt	r6, [lr], #-1394
 4d0:	65636552 	strvsb	r6, [r3, #-1362]!
 4d4:	42657669 	rsbmi	r7, r5, #110100480	; 0x6900000
 4d8:	006b6e61 	rsbeq	r6, fp, r1, ror #28
 4dc:	5f4f4950 	swipl	0x004f4950
 4e0:	52444f43 	subpl	r4, r4, #268	; 0x10c
 4e4:	50445500 	subpl	r5, r4, r0, lsl #10
 4e8:	5253495f 	subpls	r4, r3, #1556480	; 0x17c000
 4ec:	50445500 	subpl	r5, r4, r0, lsl #10
 4f0:	424c475f 	submi	r4, ip, #24903680	; 0x17c0000
 4f4:	54415453 	strplb	r5, [r1], #-1107
 4f8:	44550045 	ldrmib	r0, [r5], #-69
 4fc:	44495f50 	strmib	r5, [r9], #-3920
 500:	73750052 	cmnvc	r5, #82	; 0x52
 504:	73695f62 	cmnvc	r9, #392	; 0x188
 508:	666e6f63 	strvsbt	r6, [lr], -r3, ror #30
 50c:	72756769 	rsbvcs	r6, r5, #27525120	; 0x1a40000
 510:	52006465 	andpl	r6, r0, #1694498816	; 0x65000000
 514:	72657365 	rsbvc	r7, r5, #-1811939327	; 0x94000001
 518:	35646576 	strccb	r6, [r4, #-1398]!
 51c:	4f495000 	swimi	0x00495000
 520:	5550505f 	ldrplb	r5, [r0, #-95]
 524:	50005253 	andpl	r5, r0, r3, asr r2
 528:	4f5f4f49 	swimi	0x005f4f49
 52c:	00525357 	subeqs	r5, r2, r7, asr r3
 530:	5f4f4950 	swipl	0x004f4950
 534:	44555050 	ldrmib	r5, [r5], #-80
 538:	73750052 	cmnvc	r5, #82	; 0x52
 53c:	65725f62 	ldrvsb	r5, [r2, #-3938]!
 540:	73006461 	tstvc	r0, #1627389952	; 0x61000000
 544:	656c7274 	strvsb	r7, [ip, #-628]!
 548:	4950006e 	ldmmidb	r0, {r1, r2, r3, r5, r6}^
 54c:	574f5f4f 	strplb	r5, [pc, -pc, asr #30]
 550:	75005244 	strvc	r5, [r0, #-580]
 554:	735f6273 	cmpvc	pc, #805306375	; 0x30000007
 558:	7a646e65 	bvc	191bef4 <_ram_end+0x17173e8>
 55c:	6300706c 	tstvs	r0, #108	; 0x6c
 560:	65727275 	ldrvsb	r7, [r2, #-629]!
 564:	6352746e 	cmpvs	r2, #1845493760	; 0x6e000000
 568:	6e614276 	mcrvs	2, 3, r4, cr1, cr6, {3}
 56c:	4362006b 	cmnmi	r2, #107	; 0x6b
 570:	46726168 	ldrmibt	r6, [r2], -r8, ror #2
 574:	616d726f 	cmnvs	sp, pc, ror #4
 578:	49500074 	ldmmidb	r0, {r2, r4, r5, r6}^
 57c:	44505f4f 	ldrmib	r5, [r0], #-3919
 580:	50005253 	andpl	r5, r0, r3, asr r2
 584:	495f4f49 	ldmmidb	pc, {r0, r3, r6, r8, r9, sl, fp, lr}^
 588:	5500524d 	strpl	r5, [r0, #-589]
 58c:	545f5044 	ldrplb	r5, [pc], #68	; 594 <.debug_str+0x594>
 590:	00435658 	subeq	r5, r3, r8, asr r6
 594:	5f4f4950 	swipl	0x004f4950
 598:	45555050 	ldrmib	r5, [r5, #-80]
 59c:	49770052 	ldmmidb	r7!, {r1, r4, r6}^
 5a0:	7865646e 	stmvcda	r5!, {r1, r2, r3, r5, r6, sl, sp, lr}^
 5a4:	4f495000 	swimi	0x00495000
 5a8:	45574f5f 	ldrmib	r4, [r7, #-3935]
 5ac:	65640052 	strvsb	r0, [r4, #-82]!
 5b0:	73654476 	cmnvc	r5, #1979711488	; 0x76000000
 5b4:	70697263 	rsbvc	r7, r9, r3, ror #4
 5b8:	00726f74 	rsbeqs	r6, r2, r4, ror pc
 5bc:	5f627375 	swipl	0x00627375
 5c0:	646e6573 	strvsbt	r6, [lr], #-1395
 5c4:	61746164 	cmnvs	r4, r4, ror #2
 5c8:	654c7700 	strvsb	r7, [ip, #-1792]
 5cc:	6874676e 	ldmvsda	r4!, {r1, r2, r3, r5, r6, r8, r9, sl, sp, lr}^
 5d0:	63617000 	cmnvs	r1, #0	; 0x0
 5d4:	5374656b 	cmnpl	r4, #448790528	; 0x1ac00000
 5d8:	00657a69 	rsbeq	r7, r5, r9, ror #20
 5dc:	65526d62 	ldrvsb	r6, [r2, #-3426]
 5e0:	73657571 	cmnvc	r5, #473956352	; 0x1c400000
 5e4:	70795474 	rsbvcs	r5, r9, r4, ror r4
 5e8:	49500065 	ldmmidb	r0, {r0, r2, r5, r6}^
 5ec:	4f535f4f 	swimi	0x00535f4f
 5f0:	62005244 	andvs	r5, r0, #1073741828	; 0x40000004
 5f4:	69726150 	ldmvsdb	r2!, {r4, r6, r8, sp, lr}^
 5f8:	79547974 	ldmvcdb	r4, {r2, r4, r5, r6, r8, fp, ip, sp, lr}^
 5fc:	75006570 	strvc	r6, [r0, #-1392]
 600:	632e6273 	teqvs	lr, #805306375	; 0x30000007
 604:	72756300 	rsbvcs	r6, r5, #0	; 0x0
 608:	746e6572 	strvcbt	r6, [lr], #-1394
 60c:	6e6e6f43 	cdpvs	15, 6, cr6, cr14, cr3, {2}
 610:	69746365 	ldmvsdb	r4!, {r0, r2, r5, r6, r8, r9, sp, lr}^
 614:	55006e6f 	strpl	r6, [r0, #-3695]
 618:	465f5044 	ldrmib	r5, [pc], -r4, asr #32
 61c:	52444441 	subpl	r4, r4, #1090519040	; 0x41000000
 620:	4f495000 	swimi	0x00495000
 624:	5253505f 	subpls	r5, r3, #95	; 0x5f
 628:	50445500 	subpl	r5, r4, r0, lsl #10
 62c:	5243495f 	subpl	r4, r3, #1556480	; 0x17c000
 630:	39544100 	ldmccdb	r4, {r8, lr}^
 634:	5f535031 	swipl	0x00535031
 638:	004f4950 	subeq	r4, pc, r0, asr r9
 63c:	5f4f4950 	swipl	0x004f4950
 640:	00524450 	subeqs	r4, r2, r0, asr r4
 644:	70645570 	rsbvc	r5, r4, r0, ror r5
 648:	4f495000 	swimi	0x00495000
 64c:	5253415f 	subpls	r4, r3, #-1073741801	; 0xc0000017
 650:	4f495000 	swimi	0x00495000
 654:	5245505f 	subpl	r5, r5, #95	; 0x5f
 658:	4f495000 	swimi	0x00495000
 65c:	53444d5f 	cmppl	r4, #6080	; 0x17c0
 660:	63750052 	cmnvs	r5, #82	; 0x52
 664:	00726168 	rsbeqs	r6, r2, r8, ror #2
 668:	6f695070 	swivs	0x00695070
 66c:	4f495000 	swimi	0x00495000
 670:	44444d5f 	strmib	r4, [r4], #-3423
 674:	69750052 	ldmvsdb	r5!, {r1, r4, r6}^
 678:	5000746e 	andpl	r7, r0, lr, ror #8
 67c:	4d5f4f49 	ldcmil	15, cr4, [pc, #-292]
 680:	00524544 	subeqs	r4, r2, r4, asr #10
 684:	3954415f 	ldmccdb	r4, {r0, r1, r2, r3, r4, r6, r8, lr}^
 688:	505f5331 	subpls	r5, pc, r1, lsr r3
 68c:	63004f49 	tstvs	r0, #292	; 0x124
 690:	735f7461 	cmpvc	pc, #1627389952	; 0x61000000
 694:	70007274 	andvc	r7, r0, r4, ror r2
 698:	706d6f72 	rsbvc	r6, sp, r2, ror pc
 69c:	756f0074 	strvcb	r0, [pc, #-116]!	; 630 <.debug_str+0x630>
 6a0:	61725f74 	cmnvs	r2, r4, ror pc
 6a4:	61630077 	cmnvs	r3, r7, ror r0
 6a8:	65685f74 	strvsb	r5, [r8, #-3956]!
 6ac:	61700078 	cmnvs	r0, r8, ror r0
 6b0:	5f657372 	swipl	0x00657372
 6b4:	5f6f7774 	swipl	0x006f7774
 6b8:	6d6d6f63 	stcvsl	15, cr6, [sp, #-396]!
 6bc:	65735f61 	ldrvsb	r5, [r3, #-3937]!
 6c0:	61726170 	cmnvs	r2, r0, ror r1
 6c4:	5f646574 	swipl	0x00646574
 6c8:	00786568 	rsbeqs	r6, r8, r8, ror #10
 6cc:	626d6173 	rsbvs	r6, sp, #-1073741796	; 0xc000001c
 6d0:	00632e61 	rsbeq	r2, r3, r1, ror #28
 6d4:	626d6173 	rsbvs	r6, sp, #-1073741796	; 0xc000001c
 6d8:	65735f61 	ldrvsb	r5, [r3, #-3937]!
 6dc:	6966646e 	stmvsdb	r6!, {r1, r2, r3, r5, r6, sl, sp, lr}^
 6e0:	615f656c 	cmpvs	pc, ip, ror #10
 6e4:	00726464 	rsbeqs	r6, r2, r4, ror #8
 6e8:	5f627375 	swipl	0x00627375
 6ec:	6b6c7562 	blvs	1b1dc7c <_ram_end+0x1919170>
 6f0:	6165725f 	cmnvs	r5, pc, asr r2
 6f4:	656c5f64 	strvsb	r5, [ip, #-3940]!
 6f8:	6874676e 	ldmvsda	r4!, {r1, r2, r3, r5, r6, r8, r9, sl, sp, lr}^
 6fc:	746e6900 	strvcbt	r6, [lr], #-2304
 700:	63617265 	cmnvs	r1, #1342177286	; 0x50000006
 704:	65766974 	ldrvsb	r6, [r6, #-2420]!
 708:	74756f00 	ldrvcbt	r6, [r5], #-3840
 70c:	6e656c5f 	mcrvs	12, 3, r6, cr5, cr15, {2}
 710:	74756f00 	ldrvcbt	r6, [r5], #-3840
 714:	7761725f 	undefined
 718:	7274705f 	rsbvcs	r7, r4, #95	; 0x5f
 71c:	616c6600 	cmnvs	ip, r0, lsl #12
 720:	725f6873 	subvcs	r6, pc, #7536640	; 0x730000
 724:	00646165 	rsbeq	r6, r4, r5, ror #2
 728:	7478656e 	ldrvcbt	r6, [r8], #-1390
 72c:	616c6600 	cmnvs	ip, r0, lsl #12
 730:	755f6873 	ldrvcb	r6, [pc, #-2163]	; fffffec5 <_ram_end+0xffdfb3b9>
 734:	636f6c6e 	cmnvs	pc, #28160	; 0x6e00
 738:	6c66006b 	stcvsl	0, cr0, [r6], #-428
 73c:	5f687361 	swipl	0x00687361
 740:	73617265 	cmnvc	r1, #1342177286	; 0x50000006
 744:	6c615f65 	stcvsl	15, cr5, [r1], #-404
 748:	766e006c 	strvcbt	r0, [lr], -ip, rrx
 74c:	6e695f6d 	cdpvs	15, 6, cr5, cr9, cr13, {3}
 750:	62007469 	andvs	r7, r0, #1761607680	; 0x69000000
 754:	00666675 	rsbeq	r6, r6, r5, ror r6
 758:	434d7470 	cmpmi	sp, #1879048192	; 0x70000000
 75c:	61747300 	cmnvs	r4, r0, lsl #6
 760:	66007472 	undefined
 764:	6873616c 	ldmvsda	r3!, {r2, r3, r5, r6, r8, sp, lr}^
 768:	636f6c5f 	cmnvs	pc, #24320	; 0x5f00
 76c:	74735f6b 	ldrvcbt	r5, [r3], #-3947
 770:	73757461 	cmnvc	r5, #1627389952	; 0x61000000
 774:	616c6600 	cmnvs	ip, r0, lsl #12
 778:	775f6873 	undefined
 77c:	65746972 	ldrvsb	r6, [r4, #-2418]!
 780:	616c6600 	cmnvs	ip, r0, lsl #12
 784:	725f6873 	subvcs	r6, pc, #7536640	; 0x730000
 788:	79646165 	stmvcdb	r4!, {r0, r2, r5, r6, r8, sp, lr}^
 78c:	67617000 	strvsb	r7, [r1, -r0]!
 790:	69730065 	ldmvsdb	r3!, {r0, r2, r5, r6}^
 794:	4600657a 	undefined
 798:	6873616c 	ldmvsda	r3!, {r2, r3, r5, r6, r8, sp, lr}^
 79c:	636f4c5f 	cmnvs	pc, #24320	; 0x5f00
 7a0:	61505f6b 	cmpvs	r0, fp, ror #30
 7a4:	66006567 	strvs	r6, [r0], -r7, ror #10
 7a8:	6873616c 	ldmvsda	r3!, {r2, r3, r5, r6, r8, sp, lr}^
 7ac:	616c625f 	cmnvs	ip, pc, asr r2
 7b0:	635f6b6e 	cmpvs	pc, #112640	; 0x1b800
 7b4:	6b636568 	blvs	18d9d5c <_ram_end+0x16d5250>
 7b8:	616c6600 	cmnvs	ip, r0, lsl #12
 7bc:	632e6873 	teqvs	lr, #7536640	; 0x730000
 7c0:	616c6600 	cmnvs	ip, r0, lsl #12
 7c4:	695f6873 	ldmvsdb	pc, {r0, r1, r4, r5, r6, fp, sp, lr}^
 7c8:	0074696e 	rsbeqs	r6, r4, lr, ror #18
 7cc:	73616c66 	cmnvc	r1, #26112	; 0x6600
 7d0:	6c660068 	stcvsl	0, cr0, [r6], #-416
 7d4:	5f687361 	swipl	0x00687361
 7d8:	6b636f6c 	blvs	18dc590 <_ram_end+0x16d7a84>
 7dc:	73656400 	cmnvc	r5, #0	; 0x0
 7e0:	6c660074 	stcvsl	0, cr0, [r6], #-464
 7e4:	5f687361 	swipl	0x00687361
 7e8:	74697277 	strvcbt	r7, [r9], #-631
 7ec:	6c615f65 	stcvsl	15, cr5, [r1], #-404
 7f0:	6c46006c 	mcrrvs	0, 6, r0, r6, cr12
 7f4:	5f687361 	swipl	0x00687361
 7f8:	72646441 	rsbvc	r6, r4, #1090519040	; 0x41000000
 7fc:	00737365 	rsbeqs	r7, r3, r5, ror #6
 800:	646c7063 	strvsbt	r7, [ip], #-99
 804:	7373615f 	cmnvc	r3, #-1073741801	; 0xc0000017
 808:	69747265 	ldmvsdb	r4!, {r0, r2, r5, r6, r9, ip, sp, lr}^
 80c:	6900676e 	stmvsdb	r0, {r1, r2, r3, r5, r6, r8, r9, sl, sp, lr}
 810:	7475706e 	ldrvcbt	r7, [r5], #-110
 814:	73756200 	cmnvc	r5, #0	; 0x0
 818:	7361705f 	cmnvc	r1, #95	; 0x5f
 81c:	65766973 	ldrvsb	r6, [r6, #-2419]!
 820:	6c656400 	cfstrdvs	mvd6, [r5]
 824:	73757961 	cmnvc	r5, #1589248	; 0x184000
 828:	735f7500 	cmpvc	pc, #0	; 0x0
 82c:	74726f68 	ldrvcbt	r6, [r2], #-3944
 830:	6c706300 	ldcvsl	3, cr6, [r0]
 834:	65725f64 	ldrvsb	r5, [r2, #-3940]!
 838:	00746573 	rsbeqs	r6, r4, r3, ror r5
 83c:	5f64656c 	swipl	0x0064656c
 840:	6e756f63 	cdpvs	15, 7, cr6, cr5, cr3, {3}
 844:	70630074 	rsbvc	r0, r3, r4, ror r0
 848:	775f646c 	ldrvcb	r6, [pc, -ip, ror #8]
 84c:	65746972 	ldrvsb	r6, [r4, #-2418]!
 850:	6275735f 	rsbvss	r7, r5, #2080374785	; 0x7c000001
 854:	00676572 	rsbeq	r6, r7, r2, ror r5
 858:	5f737562 	swipl	0x00737562
 85c:	75746573 	ldrvcb	r6, [r4, #-1395]!
 860:	656c0070 	strvsb	r0, [ip, #-112]!
 864:	00632e64 	rsbeq	r2, r3, r4, ror #28
 868:	5f737562 	swipl	0x00737562
 86c:	74697277 	strvcbt	r7, [r9], #-631
 870:	6f6c5f65 	swivs	0x006c5f65
 874:	6200676e 	andvs	r6, r0, #28835840	; 0x1b80000
 878:	645f7375 	ldrvsb	r7, [pc], #885	; 880 <.debug_str+0x880>
 87c:	65766972 	ldrvsb	r6, [r6, #-2418]!
 880:	72637300 	rsbvc	r7, r3, #0	; 0x0
 884:	68637461 	stmvsda	r3!, {r0, r5, r6, sl, ip, sp, lr}^
 888:	64656c00 	strvsbt	r6, [r5], #-3072
 88c:	6174735f 	cmnvs	r4, pc, asr r3
 890:	72006574 	andvc	r6, r0, #486539264	; 0x1d000000
 894:	69725f78 	ldmvsdb	r2!, {r3, r4, r5, r6, r8, r9, sl, fp, ip, lr}^
 898:	615f676e 	cmpvs	pc, lr, ror #14
 89c:	64006464 	strvs	r6, [r0], #-1124
 8a0:	6d706d75 	ldcvsl	13, cr6, [r0, #-468]!
 8a4:	63006d65 	tstvs	r0, #6464	; 0x1940
 8a8:	645f696c 	ldrvsb	r6, [pc], #2412	; 8b0 <.debug_str+0x8b0>
 8ac:	62617369 	rsbvs	r7, r1, #-1543503871	; 0xa4000001
 8b0:	0064656c 	rsbeq	r6, r4, ip, ror #10
 8b4:	65686f74 	strvsb	r6, [r8, #-3956]!
 8b8:	73750078 	cmnvc	r5, #120	; 0x78
 8bc:	5f747261 	swipl	0x00747261
 8c0:	63746567 	cmnvs	r4, #432013312	; 0x19c00000
 8c4:	66666f00 	strvsbt	r6, [r6], -r0, lsl #30
 8c8:	00746573 	rsbeqs	r6, r4, r3, ror r5
 8cc:	5f696c63 	swipl	0x00696c63
 8d0:	656e696c 	strvsb	r6, [lr, #-2412]!
 8d4:	756f7400 	strvcb	r7, [pc, #-1024]!	; 4dc <.debug_str+0x4dc>
 8d8:	72657070 	rsbvc	r7, r5, #112	; 0x70
 8dc:	72617000 	rsbvc	r7, r1, #0	; 0x0
 8e0:	775f6573 	undefined
 8e4:	0064726f 	rsbeq	r7, r4, pc, ror #4
 8e8:	72616863 	rsbvc	r6, r1, #6488064	; 0x630000
 8ec:	6c630073 	stcvsl	0, cr0, [r3], #-460
 8f0:	61705f69 	cmnvs	r0, r9, ror #30
 8f4:	00657372 	rsbeq	r7, r5, r2, ror r3
 8f8:	2e696c63 	cdpcs	12, 6, cr6, cr9, cr3, {3}
 8fc:	75620063 	strvcb	r0, [r2, #-99]!
 900:	72656666 	rsbvc	r6, r5, #106954752	; 0x6600000
 904:	696c6300 	stmvsdb	ip!, {r8, r9, sp, lr}^
 908:	7365725f 	cmnvc	r5, #-268435451	; 0xf0000005
 90c:	00746c75 	rsbeqs	r6, r4, r5, ror ip
 910:	706c6568 	rsbvc	r6, ip, r8, ror #10
 914:	72617000 	rsbvc	r7, r1, #0	; 0x0
 918:	6e5f6573 	mrcvs	5, 2, r6, cr15, cr3, {3}
 91c:	75006d75 	strvc	r6, [r0, #-3445]
 920:	74726173 	ldrvcbt	r6, [r2], #-371
 924:	7475705f 	ldrvcbt	r7, [r5], #-95
 928:	6c630063 	stcvsl	0, cr0, [r3], #-396
 92c:	65735f69 	ldrvsb	r5, [r3, #-3945]!
 930:	00707574 	rsbeqs	r7, r0, r4, ror r5
 934:	725f7872 	subvcs	r7, pc, #7471104	; 0x720000
 938:	5f676e69 	swipl	0x00676e69
 93c:	6c696174 	stfvse	f6, [r9], #-464
 940:	696c6300 	stmvsdb	ip!, {r8, r9, sp, lr}^
 944:	6174735f 	cmnvs	r4, pc, asr r3
 948:	63006574 	tstvs	r0, #486539264	; 0x1d000000
 94c:	705f696c 	subvcs	r6, pc, ip, ror #18
 950:	5f6c6c6f 	swipl	0x006c6c6f
 954:	725f7872 	subvcs	r7, pc, #7471104	; 0x720000
 958:	00676e69 	rsbeq	r6, r7, r9, ror #28
 95c:	725f7872 	subvcs	r7, pc, #7471104	; 0x720000
 960:	5f676e69 	swipl	0x00676e69
 964:	00746e63 	rsbeqs	r6, r4, r3, ror #28
 968:	68635f75 	stmvsda	r3!, {r0, r2, r4, r5, r6, r8, r9, sl, fp, ip, lr}^
 96c:	72007261 	andvc	r7, r0, #268435462	; 0x10000006
 970:	69725f78 	ldmvsdb	r2!, {r3, r4, r5, r6, r8, r9, sl, fp, ip, lr}^
 974:	685f676e 	ldmvsda	pc, {r1, r2, r3, r5, r6, r8, r9, sl, sp, lr}^
 978:	00646165 	rsbeq	r6, r4, r5, ror #2
 97c:	70656562 	rsbvc	r6, r5, r2, ror #10
 980:	696c6300 	stmvsdb	ip!, {r8, r9, sp, lr}^
 984:	6e696c5f 	mcrvs	12, 3, r6, cr9, cr15, {2}
 988:	656c5f65 	strvsb	r5, [ip, #-3941]!
 98c:	7872006e 	ldmvcda	r2!, {r1, r2, r3, r5, r6}^
 990:	6e69725f 	mcrvs	2, 3, r7, cr9, cr15, {2}
 994:	70735f67 	rsbvcs	r5, r3, r7, ror #30
 998:	00656361 	rsbeq	r6, r5, r1, ror #6
 99c:	505f5355 	subpls	r5, pc, r5, asr r3
 9a0:	00524354 	subeqs	r4, r2, r4, asr r3
 9a4:	72617375 	rsbvc	r7, r1, #-738197503	; 0xd4000001
 9a8:	6e655f74 	mcrvs	15, 3, r5, cr5, cr4, {3}
 9ac:	656c6261 	strvsb	r6, [ip, #-609]!
 9b0:	746e695f 	strvcbt	r6, [lr], #-2399
 9b4:	5f535500 	swipl	0x00535500
 9b8:	7500524d 	strvc	r5, [r0, #-589]
 9bc:	74726173 	ldrvcbt	r6, [r2], #-371
 9c0:	5f78745f 	swipl	0x0078745f
 9c4:	73756c66 	cmnvc	r5, #26112	; 0x6600
 9c8:	53550068 	cmppl	r5, #104	; 0x68
 9cc:	5354505f 	cmppl	r4, #95	; 0x5f
 9d0:	44500052 	ldrmib	r0, [r0], #-82
 9d4:	4e525f43 	cdpmi	15, 5, cr5, cr2, cr3, {2}
 9d8:	74005243 	strvc	r5, [r0], #-579
 9dc:	67656d69 	strvsb	r6, [r5, -r9, ror #26]!
 9e0:	64726175 	ldrvsbt	r6, [r2], #-373
 9e4:	5f535500 	swipl	0x00535500
 9e8:	00524852 	subeqs	r4, r2, r2, asr r8
 9ec:	65646f6d 	strvsb	r6, [r4, #-3949]!
 9f0:	39544100 	ldmccdb	r4, {r8, lr}^
 9f4:	555f4631 	ldrplb	r4, [pc, #-1585]	; 3cb <.debug_str+0x3cb>
 9f8:	61425f53 	cmpvs	r2, r3, asr pc
 9fc:	61726475 	cmnvs	r2, r5, ror r4
 a00:	70006574 	andvc	r6, r0, r4, ror r5
 a04:	52415355 	subpl	r5, r1, #1409286145	; 0x54000001
 a08:	73750054 	cmnvc	r5, #84	; 0x54
 a0c:	5f747261 	swipl	0x00747261
 a10:	72695f63 	rsbvc	r5, r9, #396	; 0x18c
 a14:	61685f71 	cmnvs	r8, r1, ror pc
 a18:	656c646e 	strvsb	r6, [ip, #-1134]!
 a1c:	73750072 	cmnvc	r5, #114	; 0x72
 a20:	5f747261 	swipl	0x00747261
 a24:	655f7874 	ldrvsb	r7, [pc, #-2164]	; 1b8 <.debug_str+0x1b8>
 a28:	7974706d 	ldmvcdb	r4!, {r0, r2, r3, r5, r6, ip, sp, lr}^
 a2c:	39544100 	ldmccdb	r4, {r8, lr}^
 a30:	505f4631 	subpls	r4, pc, r1, lsr r6
 a34:	4f5f4344 	swimi	0x005f4344
 a38:	006e6570 	rsbeq	r6, lr, r0, ror r5
 a3c:	6e69616d 	powvsez	f6, f1, #5.0
 a40:	636f6c43 	cmnvs	pc, #17152	; 0x4300
 a44:	5355006b 	cmppl	r5, #107	; 0x6b
 a48:	5244495f 	subpl	r4, r4, #1556480	; 0x17c000
 a4c:	39544100 	ldmccdb	r4, {r8, lr}^
 a50:	505f4631 	subpls	r4, pc, r1, lsr r6
 a54:	535f4344 	cmppl	pc, #268435457	; 0x10000001
 a58:	78547465 	ldmvcda	r4, {r0, r2, r5, r6, sl, ip, sp, lr}^
 a5c:	69616d00 	stmvsdb	r1!, {r8, sl, fp, sp, lr}^
 a60:	6c635f6e 	stcvsl	15, cr5, [r3], #-440
 a64:	006b636f 	rsbeq	r6, fp, pc, ror #6
 a68:	4e5f5355 	mrcmi	3, 2, r5, cr15, cr5, {2}
 a6c:	62005245 	andvs	r5, r0, #1342177284	; 0x50000004
 a70:	73657479 	cmnvc	r5, #2030043136	; 0x79000000
 a74:	5f535500 	swipl	0x00535500
 a78:	00524549 	subeqs	r4, r2, r9, asr #10
 a7c:	435f5355 	cmpmi	pc, #1409286145	; 0x54000001
 a80:	73750052 	cmnvc	r5, #82	; 0x52
 a84:	5f747261 	swipl	0x00747261
 a88:	73746e69 	cmnvc	r4, #1680	; 0x690
 a8c:	39544100 	ldmccdb	r4, {r8, lr}^
 a90:	5f535031 	swipl	0x00535031
 a94:	52415355 	subpl	r5, r1, #1409286145	; 0x54000001
 a98:	53550054 	cmppl	r5, #84	; 0x54
 a9c:	4752425f 	undefined
 aa0:	44500052 	ldrmib	r0, [r0], #-82
 aa4:	50545f43 	subpls	r5, r4, r3, asr #30
 aa8:	50700052 	rsbpls	r0, r0, r2, asr r0
 aac:	55004344 	strpl	r4, [r0, #-836]
 ab0:	50545f53 	subpls	r5, r4, r3, asr pc
 ab4:	54410052 	strplb	r0, [r1], #-82
 ab8:	53503139 	cmppl	r0, #1073741838	; 0x4000000e
 abc:	4344505f 	cmpmi	r4, #95	; 0x5f
 ac0:	75616200 	strvcb	r6, [r1, #-512]!
 ac4:	61765f64 	cmnvs	r6, r4, ror #30
 ac8:	0065756c 	rsbeq	r7, r5, ip, ror #10
 acc:	5f434450 	swipl	0x00434450
 ad0:	52504e52 	subpls	r4, r0, #1312	; 0x520
 ad4:	54415f00 	strplb	r5, [r1], #-3840
 ad8:	5f533139 	swipl	0x00533139
 adc:	00434450 	subeq	r4, r3, r0, asr r4
 ae0:	5f434450 	swipl	0x00434450
 ae4:	00524354 	subeqs	r4, r2, r4, asr r3
 ae8:	31395441 	teqcc	r9, r1, asr #8
 aec:	53555f46 	cmppl	r5, #280	; 0x118
 af0:	6e6f435f 	mcrvs	3, 3, r4, cr15, cr15, {2}
 af4:	75676966 	strvcb	r6, [r7, #-2406]!
 af8:	41006572 	tstmi	r0, r2, ror r5
 afc:	46313954 	undefined
 b00:	4344505f 	cmpmi	r4, #95	; 0x5f
 b04:	7465535f 	strvcbt	r5, [r5], #-863
 b08:	7478654e 	ldrvcbt	r6, [r8], #-1358
 b0c:	55007854 	strpl	r7, [r0, #-2132]
 b10:	43545f53 	cmpmi	r4, #332	; 0x14c
 b14:	61620052 	qdsubvs	r0, r2, r2
 b18:	61526475 	cmpvs	r2, r5, ror r4
 b1c:	50006574 	andpl	r6, r0, r4, ror r5
 b20:	525f4344 	subpls	r4, pc, #268435457	; 0x10000001
 b24:	55005250 	strpl	r5, [r0, #-592]
 b28:	4e525f53 	mrcmi	15, 2, r5, cr2, cr3, {2}
 b2c:	75005250 	strvc	r5, [r0, #-592]
 b30:	74726173 	ldrvcbt	r6, [r2], #-371
 b34:	5f00632e 	swipl	0x0000632e
 b38:	31395441 	teqcc	r9, r1, asr #8
 b3c:	53555f53 	cmppl	r5, #332	; 0x14c
 b40:	00545241 	subeqs	r5, r4, r1, asr #4
 b44:	5f434450 	swipl	0x00434450
 b48:	52504e54 	subpls	r4, r0, #1344	; 0x540
 b4c:	5f535500 	swipl	0x00535500
 b50:	00525052 	subeqs	r5, r2, r2, asr r0
 b54:	676e6f6c 	strvsb	r6, [lr, -ip, ror #30]!
 b58:	746e6920 	strvcbt	r6, [lr], #-2336
 b5c:	43445000 	cmpmi	r4, #0	; 0x0
 b60:	5243525f 	subpl	r5, r3, #-268435451	; 0xf0000005
 b64:	5f535500 	swipl	0x00535500
 b68:	55004649 	strpl	r4, [r0, #-1609]
 b6c:	4e525f53 	mrcmi	15, 2, r5, cr2, cr3, {2}
 b70:	41005243 	tstmi	r0, r3, asr #4
 b74:	46313954 	undefined
 b78:	4344505f 	cmpmi	r4, #95	; 0x5f
 b7c:	7465535f 	strvcbt	r5, [r5], #-863
 b80:	7478654e 	ldrvcbt	r6, [r8], #-1358
 b84:	55007852 	strpl	r7, [r0, #-2130]
 b88:	4e545f53 	mrcmi	15, 2, r5, cr4, cr3, {2}
 b8c:	75005250 	strvc	r5, [r0, #-592]
 b90:	74726173 	ldrvcbt	r6, [r2], #-371
 b94:	7369645f 	cmnvc	r9, #1593835520	; 0x5f000000
 b98:	656c6261 	strvsb	r6, [ip, #-609]!
 b9c:	746e695f 	strvcbt	r6, [lr], #-2399
 ba0:	64646100 	strvsbt	r6, [r4], #-256
 ba4:	73736572 	cmnvc	r3, #478150656	; 0x1c800000
 ba8:	43445000 	cmpmi	r4, #0	; 0x0
 bac:	434e545f 	cmpmi	lr, #1593835520	; 0x5f000000
 bb0:	53550052 	cmppl	r5, #82	; 0x52
 bb4:	5243525f 	subpl	r5, r3, #-268435451	; 0xf0000005
 bb8:	5f535500 	swipl	0x00535500
 bbc:	52475454 	subpl	r5, r7, #1409286144	; 0x54000000
 bc0:	39544100 	ldmccdb	r4, {r8, lr}^
 bc4:	505f4631 	subpls	r4, pc, r1, lsr r6
 bc8:	535f4344 	cmppl	pc, #268435457	; 0x10000001
 bcc:	78527465 	ldmvcda	r2, {r0, r2, r5, r6, sl, ip, sp, lr}^
 bd0:	43445000 	cmpmi	r4, #0	; 0x0
 bd4:	4354505f 	cmpmi	r4, #95	; 0x5f
 bd8:	53550052 	cmppl	r5, #82	; 0x52
 bdc:	524d495f 	subpl	r4, sp, #1556480	; 0x17c000
 be0:	5f535500 	swipl	0x00535500
 be4:	00525343 	subeqs	r5, r2, r3, asr #6
 be8:	5f434450 	swipl	0x00434450
 bec:	52535450 	subpls	r5, r3, #1342177280	; 0x50000000
 bf0:	5f535500 	swipl	0x00535500
 bf4:	00524854 	subeqs	r4, r2, r4, asr r8
 bf8:	465f5355 	undefined
 bfc:	00494449 	subeq	r4, r9, r9, asr #8
 c00:	545f5355 	ldrplb	r5, [pc], #853	; c08 <.debug_str+0xc08>
 c04:	0052434e 	subeqs	r4, r2, lr, asr #6
 c08:	525f5355 	subpls	r5, pc, #1409286145	; 0x54000001
 c0c:	00524f54 	subeqs	r4, r2, r4, asr pc
 c10:	64756162 	ldrvsbt	r6, [r5], #-354
 c14:	7461725f 	strvcbt	r7, [r1], #-607
 c18:	6f740065 	swivs	0x00740065
 c1c:	65766173 	ldrvsb	r6, [r6, #-371]!
 c20:	6f726600 	swivs	0x00726600
 c24:	7473006d 	ldrvcbt	r0, [r3], #-109
 c28:	72686372 	rsbvc	r6, r8, #-939524095	; 0xc8000001
 c2c:	76696400 	strvcbt	r6, [r9], -r0, lsl #8
 c30:	6c61765f 	stcvsl	6, cr7, [r1], #-380
 c34:	776f7000 	strvcb	r7, [pc, -r0]!
 c38:	66003031 	undefined
 c3c:	616d726f 	cmnvs	sp, pc, ror #4
 c40:	6c665f74 	stcvsl	15, cr5, [r6], #-464
 c44:	75006761 	strvc	r6, [r0, #-1889]
 c48:	6c61765f 	stcvsl	6, cr7, [r1], #-380
 c4c:	72747300 	rsbvcs	r7, r4, #0	; 0x0
 c50:	7970636e 	ldmvcdb	r0!, {r1, r2, r3, r5, r6, r8, r9, sp, lr}^
 c54:	755f5f00 	ldrvcb	r5, [pc, #-3840]	; fffffd5c <_ram_end+0xffdfb250>
 c58:	73646f6d 	cmnvc	r4, #436	; 0x1b4
 c5c:	6d003369 	stcvs	3, cr3, [r0, #-420]
 c60:	65736d65 	ldrvsb	r6, [r3, #-3429]!
 c64:	72700074 	rsbvcs	r0, r0, #116	; 0x74
 c68:	66746e69 	ldrvsbt	r6, [r4], -r9, ror #28
 c6c:	5f00632e 	swipl	0x0000632e
 c70:	756e675f 	strvcb	r6, [lr, #-1887]!
 c74:	61765f63 	cmnvs	r6, r3, ror #30
 c78:	73696c5f 	cmnvc	r9, #24320	; 0x5f00
 c7c:	6f660074 	swivs	0x00660074
 c80:	74616d72 	strvcbt	r6, [r1], #-3442
 c84:	72747300 	rsbvcs	r7, r4, #0	; 0x0
 c88:	00706d63 	rsbeqs	r6, r0, r3, ror #26
 c8c:	564e4f43 	strplb	r4, [lr], -r3, asr #30
 c90:	49535245 	ldmmidb	r3, {r0, r2, r6, r9, ip, lr}^
 c94:	4c5f4e4f 	mrrcmi	14, 4, r4, pc, cr15
 c98:	00504f4f 	subeqs	r4, r0, pc, asr #30
 c9c:	65736162 	ldrvsb	r6, [r3, #-354]!
 ca0:	646f6d00 	strvsbt	r6, [pc], #3328	; ca8 <.debug_str+0xca8>
 ca4:	746e6177 	strvcbt	r6, [lr], #-375
 ca8:	6d006465 	cfstrsvs	mvf6, [r0, #-404]
 cac:	70636d65 	rsbvc	r6, r3, r5, ror #26
 cb0:	5f5f0079 	swipl	0x005f0079
 cb4:	76696475 	undefined
 cb8:	00336973 	eoreqs	r6, r3, r3, ror r9
 cbc:	76696475 	undefined
 cc0:	73646f6d 	cmnvc	r4, #436	; 0x1b4
 cc4:	73003469 	tstvc	r0, #1761607680	; 0x69000000
 cc8:	636e7274 	cmnvs	lr, #1073741831	; 0x40000007
 ccc:	6300706d 	tstvs	r0, #109	; 0x6d
 cd0:	635f7461 	cmpvs	pc, #1627389952	; 0x61000000
 cd4:	74007268 	strvc	r7, [r0], #-616
 cd8:	00747865 	rsbeqs	r7, r4, r5, ror #16
 cdc:	7374756f 	cmnvc	r4, #465567744	; 0x1bc00000
 ce0:	63007274 	tstvs	r0, #1073741831	; 0x40000007
 ce4:	695f7461 	ldmvsdb	pc, {r0, r5, r6, sl, ip, sp, lr}^
 ce8:	7300746e 	tstvc	r0, #1845493760	; 0x6e000000
 cec:	745f7274 	ldrvcb	r7, [pc], #628	; cf4 <.debug_str+0xcf4>
 cf0:	6e695f6f 	cdpvs	15, 6, cr5, cr9, cr15, {3}
 cf4:	70750074 	rsbvcs	r0, r5, r4, ror r0
 cf8:	63726570 	cmnvs	r2, #469762048	; 0x1c000000
 cfc:	00657361 	rsbeq	r7, r5, r1, ror #6
 d00:	69735f76 	ldmvsdb	r3!, {r1, r2, r4, r5, r6, r8, r9, sl, fp, ip, lr}^
 d04:	64656e67 	strvsbt	r6, [r5], #-3687
 d08:	74756f00 	ldrvcbt	r6, [r5], #-3840
 d0c:	736f705f 	cmnvc	pc, #95	; 0x5f
 d10:	6c5f7300 	mrrcvs	3, 0, r7, pc, cr0
 d14:	76006e65 	strvc	r6, [r0], -r5, ror #28
 d18:	736e755f 	cmnvc	lr, #398458880	; 0x17c00000
 d1c:	656e6769 	strvsb	r6, [lr, #-1897]!
 d20:	61760064 	cmnvs	r6, r4, rrx
 d24:	0064696c 	rsbeq	r6, r4, ip, ror #18
 d28:	61666564 	cmnvs	r6, r4, ror #10
 d2c:	5f746c75 	swipl	0x00746c75
 d30:	69646172 	stmvsdb	r4!, {r1, r4, r5, r6, r8, sp, lr}^
 d34:	65740078 	ldrvsb	r0, [r4, #-120]!
 d38:	7300646e 	tstvc	r0, #1845493760	; 0x6e000000
 d3c:	5f776f68 	swipl	0x00776f68
 d40:	69646172 	stmvsdb	r4!, {r1, r4, r5, r6, r8, sp, lr}^
 d44:	72705f78 	rsbvcs	r5, r0, #480	; 0x1e0
 d48:	78696665 	stmvcda	r9!, {r0, r2, r5, r6, r9, sl, sp, lr}^
 d4c:	72617000 	rsbvc	r7, r1, #0	; 0x0
 d50:	635f6573 	cmpvs	pc, #482344960	; 0x1cc00000
 d54:	616d6d6f 	cmnvs	sp, pc, ror #26
 d58:	7065735f 	rsbvc	r7, r5, pc, asr r3
 d5c:	74617261 	strvcbt	r7, [r1], #-609
 d60:	695f6465 	ldmvsdb	pc, {r0, r2, r5, r6, sl, sp, lr}^
 d64:	0073746e 	rsbeqs	r7, r3, lr, ror #8
 d68:	6e656c70 	mcrvs	12, 3, r6, cr5, cr0, {3}
 d6c:	70757300 	rsbvcs	r7, r5, r0, lsl #6
 d70:	74726f70 	ldrvcbt	r6, [r2], #-3952
 d74:	6300632e 	tstvs	r0, #-1207959552	; 0xb8000000
 d78:	695f7461 	ldmvsdb	pc, {r0, r5, r6, sl, ip, sp, lr}^
 d7c:	725f746e 	subvcs	r7, pc, #1845493760	; 0x6e000000
 d80:	78696461 	stmvcda	r9!, {r0, r5, r6, sl, sp, lr}^
	...
Disassembly of section .comment:

00000000 <.comment>:
   0:	43434700 	cmpmi	r3, #0	; 0x0
   4:	4728203a 	undefined
   8:	2029554e 	eorcs	r5, r9, lr, asr #10
   c:	2e342e33 	mrccs	14, 1, r2, cr4, cr3, {1}
  10:	47000033 	smladxmi	r0, r3, r0, r0
  14:	203a4343 	eorcss	r4, sl, r3, asr #6
  18:	554e4728 	strplb	r4, [lr, #-1832]
  1c:	2e332029 	cdpcs	0, 3, cr2, cr3, cr9, {1}
  20:	00332e34 	eoreqs	r2, r3, r4, lsr lr
  24:	43434700 	cmpmi	r3, #0	; 0x0
  28:	4728203a 	undefined
  2c:	2029554e 	eorcs	r5, r9, lr, asr #10
  30:	2e342e33 	mrccs	14, 1, r2, cr4, cr3, {1}
  34:	47000033 	smladxmi	r0, r3, r0, r0
  38:	203a4343 	eorcss	r4, sl, r3, asr #6
  3c:	554e4728 	strplb	r4, [lr, #-1832]
  40:	2e332029 	cdpcs	0, 3, cr2, cr3, cr9, {1}
  44:	00332e34 	eoreqs	r2, r3, r4, lsr lr
  48:	43434700 	cmpmi	r3, #0	; 0x0
  4c:	4728203a 	undefined
  50:	2029554e 	eorcs	r5, r9, lr, asr #10
  54:	2e342e33 	mrccs	14, 1, r2, cr4, cr3, {1}
  58:	47000033 	smladxmi	r0, r3, r0, r0
  5c:	203a4343 	eorcss	r4, sl, r3, asr #6
  60:	554e4728 	strplb	r4, [lr, #-1832]
  64:	2e332029 	cdpcs	0, 3, cr2, cr3, cr9, {1}
  68:	00332e34 	eoreqs	r2, r3, r4, lsr lr
  6c:	43434700 	cmpmi	r3, #0	; 0x0
  70:	4728203a 	undefined
  74:	2029554e 	eorcs	r5, r9, lr, asr #10
  78:	2e342e33 	mrccs	14, 1, r2, cr4, cr3, {1}
  7c:	47000033 	smladxmi	r0, r3, r0, r0
  80:	203a4343 	eorcss	r4, sl, r3, asr #6
  84:	554e4728 	strplb	r4, [lr, #-1832]
  88:	2e332029 	cdpcs	0, 3, cr2, cr3, cr9, {1}
  8c:	00332e34 	eoreqs	r2, r3, r4, lsr lr
  90:	43434700 	cmpmi	r3, #0	; 0x0
  94:	4728203a 	undefined
  98:	2029554e 	eorcs	r5, r9, lr, asr #10
  9c:	2e342e33 	mrccs	14, 1, r2, cr4, cr3, {1}
  a0:	47000033 	smladxmi	r0, r3, r0, r0
  a4:	203a4343 	eorcss	r4, sl, r3, asr #6
  a8:	554e4728 	strplb	r4, [lr, #-1832]
  ac:	2e332029 	cdpcs	0, 3, cr2, cr3, cr9, {1}
  b0:	00332e34 	eoreqs	r2, r3, r4, lsr lr
  b4:	43434700 	cmpmi	r3, #0	; 0x0
  b8:	4728203a 	undefined
  bc:	2029554e 	eorcs	r5, r9, lr, asr #10
  c0:	2e342e33 	mrccs	14, 1, r2, cr4, cr3, {1}
  c4:	Address 0xc4 is out of bounds.

Disassembly of section .debug_ranges:

00000000 <.debug_ranges>:
   0:	0000015c 	andeq	r0, r0, ip, asr r1
   4:	000001c8 	andeq	r0, r0, r8, asr #3
   8:	000001d8 	ldreqd	r0, [r0], -r8
   c:	000001e0 	andeq	r0, r0, r0, ror #3
	...
  18:	000001f4 	streqd	r0, [r0], -r4
  1c:	0000026c 	andeq	r0, r0, ip, ror #4
  20:	00000288 	andeq	r0, r0, r8, lsl #5
  24:	00000294 	muleq	r0, r4, r2
  28:	00000270 	andeq	r0, r0, r0, ror r2
  2c:	00000278 	andeq	r0, r0, r8, ror r2
	...
  38:	0000033c 	andeq	r0, r0, ip, lsr r3
  3c:	00000360 	andeq	r0, r0, r0, ror #6
  40:	00000460 	andeq	r0, r0, r0, ror #8
  44:	00000478 	andeq	r0, r0, r8, ror r4
	...
  50:	000003fc 	streqd	r0, [r0], -ip
  54:	00000448 	andeq	r0, r0, r8, asr #8
  58:	00000478 	andeq	r0, r0, r8, ror r4
  5c:	000004a0 	andeq	r0, r0, r0, lsr #9
	...
  68:	00000404 	andeq	r0, r0, r4, lsl #8
  6c:	00000448 	andeq	r0, r0, r8, asr #8
  70:	00000478 	andeq	r0, r0, r8, ror r4
  74:	000004a0 	andeq	r0, r0, r0, lsr #9
	...
  80:	0000091c 	andeq	r0, r0, ip, lsl r9
  84:	0000092c 	andeq	r0, r0, ip, lsr #18
  88:	00000b70 	andeq	r0, r0, r0, ror fp
  8c:	00000c34 	andeq	r0, r0, r4, lsr ip
	...
  98:	000010bc 	streqh	r1, [r0], -ip
  9c:	000010e8 	andeq	r1, r0, r8, ror #1
  a0:	00001100 	andeq	r1, r0, r0, lsl #2
  a4:	00001130 	andeq	r1, r0, r0, lsr r1
	...
  b0:	00001164 	andeq	r1, r0, r4, ror #2
  b4:	00001190 	muleq	r0, r0, r1
  b8:	000011a8 	andeq	r1, r0, r8, lsr #3
  bc:	000011d8 	ldreqd	r1, [r0], -r8
	...
  c8:	00001258 	andeq	r1, r0, r8, asr r2
  cc:	0000129c 	muleq	r0, ip, r2
  d0:	00001330 	andeq	r1, r0, r0, lsr r3
  d4:	00001358 	andeq	r1, r0, r8, asr r3
	...
  e0:	0000141c 	andeq	r1, r0, ip, lsl r4
  e4:	00001448 	andeq	r1, r0, r8, asr #8
  e8:	00001460 	andeq	r1, r0, r0, ror #8
  ec:	00001490 	muleq	r0, r0, r4
	...
  f8:	000014c0 	andeq	r1, r0, r0, asr #9
  fc:	000014ec 	andeq	r1, r0, ip, ror #9
 100:	00001504 	andeq	r1, r0, r4, lsl #10
 104:	00001534 	andeq	r1, r0, r4, lsr r5
	...
 110:	000015b0 	streqh	r1, [r0], -r0
 114:	000015fc 	streqd	r1, [r0], -ip
 118:	00001810 	andeq	r1, r0, r0, lsl r8
 11c:	00001838 	andeq	r1, r0, r8, lsr r8
 120:	000017e0 	andeq	r1, r0, r0, ror #15
 124:	000017f4 	streqd	r1, [r0], -r4
	...
 130:	00001608 	andeq	r1, r0, r8, lsl #12
 134:	00001650 	andeq	r1, r0, r0, asr r6
 138:	000017b8 	streqh	r1, [r0], -r8
 13c:	000017d4 	ldreqd	r1, [r0], -r4
	...
 148:	00001658 	andeq	r1, r0, r8, asr r6
 14c:	000017b8 	streqh	r1, [r0], -r8
 150:	000017f4 	streqd	r1, [r0], -r4
 154:	00001810 	andeq	r1, r0, r0, lsl r8
	...
 160:	00001658 	andeq	r1, r0, r8, asr r6
 164:	00001660 	andeq	r1, r0, r0, ror #12
 168:	0000179c 	muleq	r0, ip, r7
 16c:	000017b8 	streqh	r1, [r0], -r8
 170:	00001750 	andeq	r1, r0, r0, asr r7
 174:	00001754 	andeq	r1, r0, r4, asr r7
 178:	00001748 	andeq	r1, r0, r8, asr #14
 17c:	0000174c 	andeq	r1, r0, ip, asr #14
 180:	00001670 	andeq	r1, r0, r0, ror r6
 184:	00001738 	andeq	r1, r0, r8, lsr r7
 188:	00001664 	andeq	r1, r0, r4, ror #12
 18c:	0000166c 	andeq	r1, r0, ip, ror #12
	...
 198:	00001670 	andeq	r1, r0, r0, ror r6
 19c:	000016b4 	streqh	r1, [r0], -r4
 1a0:	0000179c 	muleq	r0, ip, r7
 1a4:	000017b8 	streqh	r1, [r0], -r8
	...
 1b0:	00001738 	andeq	r1, r0, r8, lsr r7
 1b4:	00001748 	andeq	r1, r0, r8, asr #14
 1b8:	000017f4 	streqd	r1, [r0], -r4
 1bc:	00001810 	andeq	r1, r0, r0, lsl r8
 1c0:	00001754 	andeq	r1, r0, r4, asr r7
 1c4:	00001788 	andeq	r1, r0, r8, lsl #15
 1c8:	0000174c 	andeq	r1, r0, ip, asr #14
 1cc:	00001750 	andeq	r1, r0, r0, asr r7
	...
 1d8:	00000134 	andeq	r0, r0, r4, lsr r1
 1dc:	00000174 	andeq	r0, r0, r4, ror r1
 1e0:	00000324 	andeq	r0, r0, r4, lsr #6
 1e4:	000003a8 	andeq	r0, r0, r8, lsr #7
 1e8:	000001b4 	streqh	r0, [r0], -r4
 1ec:	00000308 	andeq	r0, r0, r8, lsl #6
	...
 1f8:	00000180 	andeq	r0, r0, r0, lsl #3
 1fc:	00000194 	muleq	r0, r4, r1
 200:	00000308 	andeq	r0, r0, r8, lsl #6
 204:	00000324 	andeq	r0, r0, r4, lsr #6
	...
 210:	000002b8 	streqh	r0, [r0], -r8
 214:	000002c4 	andeq	r0, r0, r4, asr #5
 218:	000002dc 	ldreqd	r0, [r0], -ip
 21c:	0000034c 	andeq	r0, r0, ip, asr #6
 220:	000002d4 	ldreqd	r0, [r0], -r4
 224:	000002d8 	ldreqd	r0, [r0], -r8
 228:	000002c8 	andeq	r0, r0, r8, asr #5
 22c:	000002d0 	ldreqd	r0, [r0], -r0
	...
 238:	0000003c 	andeq	r0, r0, ip, lsr r0
 23c:	00000040 	andeq	r0, r0, r0, asr #32
 240:	00000050 	andeq	r0, r0, r0, asr r0
 244:	0000006c 	andeq	r0, r0, ip, rrx
 248:	00000044 	andeq	r0, r0, r4, asr #32
 24c:	00000050 	andeq	r0, r0, r0, asr r0
	...
 258:	0000009c 	muleq	r0, ip, r0
 25c:	000000a0 	andeq	r0, r0, r0, lsr #1
 260:	000000c8 	andeq	r0, r0, r8, asr #1
 264:	000000e4 	andeq	r0, r0, r4, ror #1
 268:	000000c0 	andeq	r0, r0, r0, asr #1
 26c:	000000c4 	andeq	r0, r0, r4, asr #1
 270:	000000b4 	streqh	r0, [r0], -r4
 274:	000000bc 	streqh	r0, [r0], -ip
	...
 280:	000000fc 	streqd	r0, [r0], -ip
 284:	00000100 	andeq	r0, r0, r0, lsl #2
 288:	00000160 	andeq	r0, r0, r0, ror #2
 28c:	00000164 	andeq	r0, r0, r4, ror #2
 290:	00000150 	andeq	r0, r0, r0, asr r1
 294:	00000154 	andeq	r0, r0, r4, asr r1
 298:	00000118 	andeq	r0, r0, r8, lsl r1
 29c:	00000144 	andeq	r0, r0, r4, asr #2
 2a0:	00000108 	andeq	r0, r0, r8, lsl #2
 2a4:	00000114 	andeq	r0, r0, r4, lsl r1
	...
 2b0:	00000110 	andeq	r0, r0, r0, lsl r1
 2b4:	00000114 	andeq	r0, r0, r4, lsl r1
 2b8:	0000011c 	andeq	r0, r0, ip, lsl r1
 2bc:	00000144 	andeq	r0, r0, r4, asr #2
	...
 2c8:	0000018c 	andeq	r0, r0, ip, lsl #3
 2cc:	0000019c 	muleq	r0, ip, r1
 2d0:	00000284 	andeq	r0, r0, r4, lsl #5
 2d4:	00000298 	muleq	r0, r8, r2
 2d8:	0000027c 	andeq	r0, r0, ip, ror r2
 2dc:	00000280 	andeq	r0, r0, r0, lsl #5
 2e0:	0000026c 	andeq	r0, r0, ip, ror #4
 2e4:	00000278 	andeq	r0, r0, r8, ror r2
 2e8:	000001a0 	andeq	r0, r0, r0, lsr #3
 2ec:	00000268 	andeq	r0, r0, r8, ror #4
	...
 2f8:	000001a8 	andeq	r0, r0, r8, lsr #3
 2fc:	000001ac 	andeq	r0, r0, ip, lsr #3
 300:	000001d4 	ldreqd	r0, [r0], -r4
 304:	000001f0 	streqd	r0, [r0], -r0
 308:	000001cc 	andeq	r0, r0, ip, asr #3
 30c:	000001d0 	ldreqd	r0, [r0], -r0
 310:	000001c0 	andeq	r0, r0, r0, asr #3
 314:	000001c8 	andeq	r0, r0, r8, asr #3
	...
 320:	00000200 	andeq	r0, r0, r0, lsl #4
 324:	00000204 	andeq	r0, r0, r4, lsl #4
 328:	0000026c 	andeq	r0, r0, ip, ror #4
 32c:	00000270 	andeq	r0, r0, r0, ror r2
 330:	00000260 	andeq	r0, r0, r0, ror #4
 334:	00000264 	andeq	r0, r0, r4, ror #4
 338:	00000224 	andeq	r0, r0, r4, lsr #4
 33c:	00000250 	andeq	r0, r0, r0, asr r2
 340:	00000210 	andeq	r0, r0, r0, lsl r2
 344:	0000021c 	andeq	r0, r0, ip, lsl r2
	...
 350:	00000218 	andeq	r0, r0, r8, lsl r2
 354:	0000021c 	andeq	r0, r0, ip, lsl r2
 358:	00000228 	andeq	r0, r0, r8, lsr #4
 35c:	00000250 	andeq	r0, r0, r0, asr r2
	...
 368:	00000268 	andeq	r0, r0, r8, ror #4
 36c:	0000026c 	andeq	r0, r0, ip, ror #4
 370:	00000298 	muleq	r0, r8, r2
 374:	000002c0 	andeq	r0, r0, r0, asr #5
 378:	00000280 	andeq	r0, r0, r0, lsl #5
 37c:	00000284 	andeq	r0, r0, r4, lsl #5
 380:	00000278 	andeq	r0, r0, r8, ror r2
 384:	0000027c 	andeq	r0, r0, ip, ror r2
	...
 390:	00000280 	andeq	r0, r0, r0, lsl #5
 394:	00000284 	andeq	r0, r0, r4, lsl #5
 398:	000002a0 	andeq	r0, r0, r0, lsr #5
 39c:	000002b8 	streqh	r0, [r0], -r8
	...
 3a8:	000002d4 	ldreqd	r0, [r0], -r4
 3ac:	000002d8 	ldreqd	r0, [r0], -r8
 3b0:	00000304 	andeq	r0, r0, r4, lsl #6
 3b4:	000003a0 	andeq	r0, r0, r0, lsr #7
 3b8:	000002e0 	andeq	r0, r0, r0, ror #5
 3bc:	000002e4 	andeq	r0, r0, r4, ror #5
	...
 3c8:	00000388 	andeq	r0, r0, r8, lsl #7
 3cc:	0000038c 	andeq	r0, r0, ip, lsl #7
 3d0:	000003d8 	ldreqd	r0, [r0], -r8
 3d4:	00000400 	andeq	r0, r0, r0, lsl #8
 3d8:	00000394 	muleq	r0, r4, r3
 3dc:	000003c0 	andeq	r0, r0, r0, asr #7
	...
 3e8:	000004dc 	ldreqd	r0, [r0], -ip
 3ec:	0000050c 	andeq	r0, r0, ip, lsl #10
 3f0:	0000060c 	andeq	r0, r0, ip, lsl #12
 3f4:	00000614 	andeq	r0, r0, r4, lsl r6
	...
 400:	00000524 	andeq	r0, r0, r4, lsr #10
 404:	00000554 	andeq	r0, r0, r4, asr r5
 408:	0000062c 	andeq	r0, r0, ip, lsr #12
 40c:	00000634 	andeq	r0, r0, r4, lsr r6
	...
 418:	00000564 	andeq	r0, r0, r4, ror #10
 41c:	00000568 	andeq	r0, r0, r8, ror #10
 420:	00000634 	andeq	r0, r0, r4, lsr r6
 424:	00000674 	andeq	r0, r0, r4, ror r6
 428:	00000614 	andeq	r0, r0, r4, lsl r6
 42c:	0000061c 	andeq	r0, r0, ip, lsl r6
 430:	0000056c 	andeq	r0, r0, ip, ror #10
 434:	000005c4 	andeq	r0, r0, r4, asr #11
	...
 440:	00000594 	muleq	r0, r4, r5
 444:	000005c4 	andeq	r0, r0, r4, asr #11
 448:	00000634 	andeq	r0, r0, r4, lsr r6
 44c:	0000063c 	andeq	r0, r0, ip, lsr r6
	...
 458:	000005c4 	andeq	r0, r0, r4, asr #11
 45c:	000005e8 	andeq	r0, r0, r8, ror #11
 460:	000005f8 	streqd	r0, [r0], -r8
 464:	00000600 	andeq	r0, r0, r0, lsl #12
 468:	000005ec 	andeq	r0, r0, ip, ror #11
 46c:	000005f0 	streqd	r0, [r0], -r0
	...
 478:	000006bc 	streqh	r0, [r0], -ip
 47c:	00000780 	andeq	r0, r0, r0, lsl #15
 480:	00000784 	andeq	r0, r0, r4, lsl #15
 484:	00000788 	andeq	r0, r0, r8, lsl #15
	...
 490:	000000c8 	andeq	r0, r0, r8, asr #1
 494:	000000cc 	andeq	r0, r0, ip, asr #1
 498:	0000010c 	andeq	r0, r0, ip, lsl #2
 49c:	00000114 	andeq	r0, r0, r4, lsl r1
 4a0:	000000ec 	andeq	r0, r0, ip, ror #1
 4a4:	00000108 	andeq	r0, r0, r8, lsl #2
 4a8:	000000e0 	andeq	r0, r0, r0, ror #1
 4ac:	000000e4 	andeq	r0, r0, r4, ror #1
 4b0:	000000d4 	ldreqd	r0, [r0], -r4
 4b4:	000000d8 	ldreqd	r0, [r0], -r8
	...
 4c0:	000001ec 	andeq	r0, r0, ip, ror #3
 4c4:	00000200 	andeq	r0, r0, r0, lsl #4
 4c8:	00000204 	andeq	r0, r0, r4, lsl #4
 4cc:	0000021c 	andeq	r0, r0, ip, lsl r2
	...
 4d8:	00000120 	andeq	r0, r0, r0, lsr #2
 4dc:	00000140 	andeq	r0, r0, r0, asr #2
 4e0:	000001d8 	ldreqd	r0, [r0], -r8
 4e4:	00000200 	andeq	r0, r0, r0, lsl #4
	...
 4f0:	00000424 	andeq	r0, r0, r4, lsr #8
 4f4:	00000428 	andeq	r0, r0, r8, lsr #8
 4f8:	00000434 	andeq	r0, r0, r4, lsr r4
 4fc:	00000494 	muleq	r0, r4, r4
	...
 508:	00000498 	muleq	r0, r8, r4
 50c:	0000049c 	muleq	r0, ip, r4
 510:	000004a0 	andeq	r0, r0, r0, lsr #9
 514:	000004f8 	streqd	r0, [r0], -r8
	...
 520:	000007cc 	andeq	r0, r0, ip, asr #15
 524:	0000084c 	andeq	r0, r0, ip, asr #16
 528:	0000085c 	andeq	r0, r0, ip, asr r8
 52c:	00000874 	andeq	r0, r0, r4, ror r8
 530:	00000850 	andeq	r0, r0, r0, asr r8
 534:	00000854 	andeq	r0, r0, r4, asr r8
	...
